------- FILE c:\Users\roger\OneDrive\Documents\Atari\BrawdyBAS\brawdy.bas.asm LEVEL 1 PASS 4
      1  8400 ????						; Provided under the CC0 license. See the included LICENSE.txt for details.
      2  8400 ????
      3  8400 ????				      processor	6502
------- FILE vcs.h LEVEL 2 PASS 4
      0  8400 ????				      include	"vcs.h"
      1  8400 ????						; Provided under the CC0 license. See the included LICENSE.txt for details.
      2  8400 ????
      3  8400 ????						; VCS.H
      4  8400 ????						; Version 1.05, 13/November/2003
      5  8400 ????
      6  8400 ????	       00 69	   VERSION_VCS =	105
      7  8400 ????
      8  8400 ????						; THIS IS A PRELIMINARY RELEASE OF *THE* "STANDARD" VCS.H
      9  8400 ????						; THIS FILE IS EXPLICITLY SUPPORTED AS A DASM-PREFERRED COMPANION FILE
     10  8400 ????						; PLEASE DO *NOT* REDISTRIBUTE THIS FILE!
     11  8400 ????						;
     12  8400 ????						; This file defines hardware registers and memory mapping for the
     13  8400 ????						; Atari 2600. It is distributed as a companion machine-specific support package
     14  8400 ????						; for the DASM compiler. Updates to this file, DASM, and associated tools are
     15  8400 ????						; available at at http://www.atari2600.org/dasm
     16  8400 ????						;
     17  8400 ????						; Many thanks to the original author(s) of this file, and to everyone who has
     18  8400 ????						; contributed to understanding the Atari 2600.  If you take issue with the
     19  8400 ????						; contents, or naming of registers, please write to me (atari2600@taswegian.com)
     20  8400 ????						; with your views.  Please contribute, if you think you can improve this
     21  8400 ????						; file!
     22  8400 ????						;
     23  8400 ????						; Latest Revisions...
     24  8400 ????						; 1.05  13/NOV/2003	  - Correction to 1.04 - now functions as requested by MR.
     25  8400 ????						;			  - Added VERSION_VCS equate (which will reflect 100x version #)
     26  8400 ????						;			    This will allow conditional code to verify VCS.H being
     27  8400 ????						;			    used for code assembly.
     28  8400 ????						; 1.04  12/NOV/2003	 Added TIA_BASE_WRITE_ADDRESS and TIA_BASE_READ_ADDRESS for
     29  8400 ????						;			 convenient disassembly/reassembly compatibility for hardware
     30  8400 ????						;			 mirrored reading/writing differences.	This is more a 
     31  8400 ????						;			 readability issue, and binary compatibility with disassembled
     32  8400 ????						;			 and reassembled sources.  Per Manuel Rotschkar's suggestion.
     33  8400 ????						; 1.03  12/MAY/2003	 Added SEG segment at end of file to fix old-code compatibility
     34  8400 ????						;			 which was broken by the use of segments in this file, as
     35  8400 ????						;			 reported by Manuel Polik on [stella] 11/MAY/2003
     36  8400 ????						; 1.02  22/MAR/2003	 Added TIMINT($285)
     37  8400 ????						; 1.01				Constant offset added to allow use for 3F-style bankswitching
     38  8400 ????						;						 - define TIA_BASE_ADDRESS as $40 for Tigervision carts, otherwise
     39  8400 ????						;						   it is safe to leave it undefined, and the base address will
     40  8400 ????						;						   be set to 0.  Thanks to Eckhard Stolberg for the suggestion.
     41  8400 ????						;			    Note, may use -DLABEL=EXPRESSION to define TIA_BASE_ADDRESS
     42  8400 ????						;			  - register definitions are now generated through assignment
     43  8400 ????						;			    in uninitialised segments.	This allows a changeable base
     44  8400 ????						;			    address architecture.
     45  8400 ????						; 1.0	22/MAR/2003		Initial release
     46  8400 ????
     47  8400 ????
     48  8400 ????						;-------------------------------------------------------------------------------
     49  8400 ????
     50  8400 ????						; TIA_BASE_ADDRESS
     51  8400 ????						; The TIA_BASE_ADDRESS defines the base address of access to TIA registers.
     52  8400 ????						; Normally 0, the base address should (externally, before including this file)
     53  8400 ????						; be set to $40 when creating 3F-bankswitched (and other?) cartridges.
     54  8400 ????						; The reason is that this bankswitching scheme treats any access to locations
     55  8400 ????						; < $40 as a bankswitch.
     56  8400 ????
     57  8400 ????			  -	      IFNCONST	TIA_BASE_ADDRESS
     58  8400 ????			  -TIA_BASE_ADDRESS =	0
     59  8400 ????				      ENDIF
     60  8400 ????
     61  8400 ????						; Note: The address may be defined on the command-line using the -D switch, eg:
     62  8400 ????						; dasm.exe code.asm -DTIA_BASE_ADDRESS=$40 -f3 -v5 -ocode.bin
     63  8400 ????						; *OR* by declaring the label before including this file, eg:
     64  8400 ????						; TIA_BASE_ADDRESS = $40
     65  8400 ????						;   include "vcs.h"
     66  8400 ????
     67  8400 ????						; Alternate read/write address capability - allows for some disassembly compatibility
     68  8400 ????						; usage ; to allow reassembly to binary perfect copies).  This is essentially catering
     69  8400 ????						; for the mirrored ROM hardware registers.
     70  8400 ????
     71  8400 ????						; Usage: As per above, define the TIA_BASE_READ_ADDRESS and/or TIA_BASE_WRITE_ADDRESS
     72  8400 ????						; using the -D command-line switch, as required.  If the addresses are not defined, 
     73  8400 ????						; they defaut to the TIA_BASE_ADDRESS.
     74  8400 ????
     75  8400 ????			  -	      IFNCONST	TIA_BASE_READ_ADDRESS
     76  8400 ????			  -TIA_BASE_READ_ADDRESS =	TIA_BASE_ADDRESS
     77  8400 ????				      ENDIF
     78  8400 ????
     79  8400 ????			  -	      IFNCONST	TIA_BASE_WRITE_ADDRESS
     80  8400 ????			  -TIA_BASE_WRITE_ADDRESS =	TIA_BASE_ADDRESS
     81  8400 ????				      ENDIF
     82  8400 ????
     83  8400 ????						;-------------------------------------------------------------------------------
     84  8400 ????
     85 U002d ????				      SEG.U	TIA_REGISTERS_WRITE
     86 U0000					      ORG	TIA_BASE_WRITE_ADDRESS
     87 U0000
     88 U0000							; DO NOT CHANGE THE RELATIVE ORDERING OF REGISTERS!
     89 U0000
     90 U0000		       00	   VSYNC      ds	1	; $00	 0000 00x0   Vertical Sync Set-Clear
     91 U0001		       00	   VBLANK     ds	1	; $01	 xx00 00x0   Vertical Blank Set-Clear
     92 U0002		       00	   WSYNC      ds	1	; $02	 ---- ----   Wait for Horizontal Blank
     93 U0003		       00	   RSYNC      ds	1	; $03	 ---- ----   Reset Horizontal Sync Counter
     94 U0004		       00	   NUSIZ0     ds	1	; $04	 00xx 0xxx   Number-Size player/missle 0
     95 U0005		       00	   NUSIZ1     ds	1	; $05	 00xx 0xxx   Number-Size player/missle 1
     96 U0006		       00	   COLUP0     ds	1	; $06	 xxxx xxx0   Color-Luminance Player 0
     97 U0007		       00	   COLUP1     ds	1	; $07	 xxxx xxx0   Color-Luminance Player 1
     98 U0008		       00	   COLUPF     ds	1	; $08	 xxxx xxx0   Color-Luminance Playfield
     99 U0009		       00	   COLUBK     ds	1	; $09	 xxxx xxx0   Color-Luminance Background
    100 U000a		       00	   CTRLPF     ds	1	; $0A	 00xx 0xxx   Control Playfield, Ball, Collisions
    101 U000b		       00	   REFP0      ds	1	; $0B	 0000 x000   Reflection Player 0
    102 U000c		       00	   REFP1      ds	1	; $0C	 0000 x000   Reflection Player 1
    103 U000d		       00	   PF0	      ds	1	; $0D	 xxxx 0000   Playfield Register Byte 0
    104 U000e		       00	   PF1	      ds	1	; $0E	 xxxx xxxx   Playfield Register Byte 1
    105 U000f		       00	   PF2	      ds	1	; $0F	 xxxx xxxx   Playfield Register Byte 2
    106 U0010		       00	   RESP0      ds	1	; $10	 ---- ----   Reset Player 0
    107 U0011		       00	   RESP1      ds	1	; $11	 ---- ----   Reset Player 1
    108 U0012		       00	   RESM0      ds	1	; $12	 ---- ----   Reset Missle 0
    109 U0013		       00	   RESM1      ds	1	; $13	 ---- ----   Reset Missle 1
    110 U0014		       00	   RESBL      ds	1	; $14	 ---- ----   Reset Ball
    111 U0015		       00	   AUDC0      ds	1	; $15	 0000 xxxx   Audio Control 0
    112 U0016		       00	   AUDC1      ds	1	; $16	 0000 xxxx   Audio Control 1
    113 U0017		       00	   AUDF0      ds	1	; $17	 000x xxxx   Audio Frequency 0
    114 U0018		       00	   AUDF1      ds	1	; $18	 000x xxxx   Audio Frequency 1
    115 U0019		       00	   AUDV0      ds	1	; $19	 0000 xxxx   Audio Volume 0
    116 U001a		       00	   AUDV1      ds	1	; $1A	 0000 xxxx   Audio Volume 1
    117 U001b		       00	   GRP0       ds	1	; $1B	 xxxx xxxx   Graphics Register Player 0
    118 U001c		       00	   GRP1       ds	1	; $1C	 xxxx xxxx   Graphics Register Player 1
    119 U001d		       00	   ENAM0      ds	1	; $1D	 0000 00x0   Graphics Enable Missle 0
    120 U001e		       00	   ENAM1      ds	1	; $1E	 0000 00x0   Graphics Enable Missle 1
    121 U001f		       00	   ENABL      ds	1	; $1F	 0000 00x0   Graphics Enable Ball
    122 U0020		       00	   HMP0       ds	1	; $20	 xxxx 0000   Horizontal Motion Player 0
    123 U0021		       00	   HMP1       ds	1	; $21	 xxxx 0000   Horizontal Motion Player 1
    124 U0022		       00	   HMM0       ds	1	; $22	 xxxx 0000   Horizontal Motion Missle 0
    125 U0023		       00	   HMM1       ds	1	; $23	 xxxx 0000   Horizontal Motion Missle 1
    126 U0024		       00	   HMBL       ds	1	; $24	 xxxx 0000   Horizontal Motion Ball
    127 U0025		       00	   VDELP0     ds	1	; $25	 0000 000x   Vertical Delay Player 0
    128 U0026		       00	   VDELP1     ds	1	; $26	 0000 000x   Vertical Delay Player 1
    129 U0027		       00	   VDELBL     ds	1	; $27	 0000 000x   Vertical Delay Ball
    130 U0028		       00	   RESMP0     ds	1	; $28	 0000 00x0   Reset Missle 0 to Player 0
    131 U0029		       00	   RESMP1     ds	1	; $29	 0000 00x0   Reset Missle 1 to Player 1
    132 U002a		       00	   HMOVE      ds	1	; $2A	 ---- ----   Apply Horizontal Motion
    133 U002b		       00	   HMCLR      ds	1	; $2B	 ---- ----   Clear Horizontal Move Registers
    134 U002c		       00	   CXCLR      ds	1	; $2C	 ---- ----   Clear Collision Latches
    135 U002d
    136 U002d							;-------------------------------------------------------------------------------
    137 U002d
    138 U000e ????				      SEG.U	TIA_REGISTERS_READ
    139 U0000					      ORG	TIA_BASE_READ_ADDRESS
    140 U0000
    141 U0000							;											bit 7	 bit 6
    142 U0000		       00	   CXM0P      ds	1	; $00	     xx00 0000	     Read Collision  M0-P1   M0-P0
    143 U0001		       00	   CXM1P      ds	1	; $01	     xx00 0000			     M1-P0   M1-P1
    144 U0002		       00	   CXP0FB     ds	1	; $02	     xx00 0000			     P0-PF   P0-BL
    145 U0003		       00	   CXP1FB     ds	1	; $03	     xx00 0000			     P1-PF   P1-BL
    146 U0004		       00	   CXM0FB     ds	1	; $04	     xx00 0000			     M0-PF   M0-BL
    147 U0005		       00	   CXM1FB     ds	1	; $05	     xx00 0000			     M1-PF   M1-BL
    148 U0006		       00	   CXBLPF     ds	1	; $06	     x000 0000			     BL-PF   -----
    149 U0007		       00	   CXPPMM     ds	1	; $07	     xx00 0000			     P0-P1   M0-M1
    150 U0008		       00	   INPT0      ds	1	; $08	     x000 0000	     Read Pot Port 0
    151 U0009		       00	   INPT1      ds	1	; $09	     x000 0000	     Read Pot Port 1
    152 U000a		       00	   INPT2      ds	1	; $0A	     x000 0000	     Read Pot Port 2
    153 U000b		       00	   INPT3      ds	1	; $0B	     x000 0000	     Read Pot Port 3
    154 U000c		       00	   INPT4      ds	1	; $0C		x000 0000	 Read Input (Trigger) 0
    155 U000d		       00	   INPT5      ds	1	; $0D		x000 0000	 Read Input (Trigger) 1
    156 U000e
    157 U000e							;-------------------------------------------------------------------------------
    158 U000e
    159 U0298 ????				      SEG.U	RIOT
    160 U0280					      ORG	$280
    161 U0280
    162 U0280							; RIOT MEMORY MAP
    163 U0280
    164 U0280		       00	   SWCHA      ds	1	; $280      Port A data register for joysticks:
    165 U0281							;			Bits 4-7 for player 1.  Bits 0-3 for player 2.
    166 U0281
    167 U0281		       00	   SWACNT     ds	1	; $281      Port A data direction register (DDR)
    168 U0282		       00	   SWCHB      ds	1	; $282		Port B data (console switches)
    169 U0283		       00	   SWBCNT     ds	1	; $283      Port B DDR
    170 U0284		       00	   INTIM      ds	1	; $284		Timer output
    171 U0285
    172 U0285		       00	   TIMINT     ds	1	; $285
    173 U0286
    174 U0286							; Unused/undefined registers ($285-$294)
    175 U0286
    176 U0286		       00		      ds	1	; $286
    177 U0287		       00		      ds	1	; $287
    178 U0288		       00		      ds	1	; $288
    179 U0289		       00		      ds	1	; $289
    180 U028a		       00		      ds	1	; $28A
    181 U028b		       00		      ds	1	; $28B
    182 U028c		       00		      ds	1	; $28C
    183 U028d		       00		      ds	1	; $28D
    184 U028e		       00		      ds	1	; $28E
    185 U028f		       00		      ds	1	; $28F
    186 U0290		       00		      ds	1	; $290
    187 U0291		       00		      ds	1	; $291
    188 U0292		       00		      ds	1	; $292
    189 U0293		       00		      ds	1	; $293
    190 U0294
    191 U0294		       00	   TIM1T      ds	1	; $294		set 1 clock interval
    192 U0295		       00	   TIM8T      ds	1	; $295      set 8 clock interval
    193 U0296		       00	   TIM64T     ds	1	; $296      set 64 clock interval
    194 U0297		       00	   T1024T     ds	1	; $297      set 1024 clock interval
    195 U0298
    196 U0298							;-------------------------------------------------------------------------------
    197 U0298							; The following required for back-compatibility with code which does not use
    198 U0298							; segments.
    199 U0298
    200  8400 ????				      SEG
    201  8400 ????
    202  8400 ????						; EOF
------- FILE c:\Users\roger\OneDrive\Documents\Atari\BrawdyBAS\brawdy.bas.asm
------- FILE macro.h LEVEL 2 PASS 4
      0  8400 ????				      include	"macro.h"
      1  8400 ????						; Provided under the CC0 license. See the included LICENSE.txt for details.
      2  8400 ????
      3  8400 ????						; MACRO.H
      4  8400 ????						; Version 1.05, 13/NOVEMBER/2003
      5  8400 ????
      6  8400 ????	       00 69	   VERSION_MACRO =	105
      7  8400 ????
      8  8400 ????						;
      9  8400 ????						; THIS FILE IS EXPLICITLY SUPPORTED AS A DASM-PREFERRED COMPANION FILE
     10  8400 ????						; PLEASE DO *NOT* REDISTRIBUTE MODIFIED VERSIONS OF THIS FILE!
     11  8400 ????						;
     12  8400 ????						; This file defines DASM macros useful for development for the Atari 2600.
     13  8400 ????						; It is distributed as a companion machine-specific support package
     14  8400 ????						; for the DASM compiler. Updates to this file, DASM, and associated tools are
     15  8400 ????						; available at at http://www.atari2600.org/dasm
     16  8400 ????						;
     17  8400 ????						; Many thanks to the people who have contributed.  If you take issue with the
     18  8400 ????						; contents, or would like to add something, please write to me
     19  8400 ????						; (atari2600@taswegian.com) with your contribution.
     20  8400 ????						;
     21  8400 ????						; Latest Revisions...
     22  8400 ????						;
     23  8400 ????						; 1.05  14/NOV/2003	  - Added VERSION_MACRO equate (which will reflect 100x version #)
     24  8400 ????						;			    This will allow conditional code to verify MACRO.H being
     25  8400 ????						;			    used for code assembly.
     26  8400 ????						; 1.04  13/NOV/2003	 - SET_POINTER macro added (16-bit address load)
     27  8400 ????						;
     28  8400 ????						; 1.03  23/JUN/2003	 - CLEAN_START macro added - clears TIA, RAM, registers
     29  8400 ????						;
     30  8400 ????						; 1.02  14/JUN/2003	 - VERTICAL_SYNC macro added
     31  8400 ????						;			   (standardised macro for vertical synch code)
     32  8400 ????						; 1.01  22/MAR/2003	 - SLEEP macro added. 
     33  8400 ????						;			 - NO_ILLEGAL_OPCODES switch implemented
     34  8400 ????						; 1.0	22/MAR/2003		Initial release
     35  8400 ????
     36  8400 ????						; Note: These macros use illegal opcodes.  To disable illegal opcode usage, 
     37  8400 ????						;   define the symbol NO_ILLEGAL_OPCODES (-DNO_ILLEGAL_OPCODES=1 on command-line).
     38  8400 ????						;   If you do not allow illegal opcode usage, you must include this file 
     39  8400 ????						;   *after* including VCS.H (as the non-illegal opcodes access hardware
     40  8400 ????						;   registers and require them to be defined first).
     41  8400 ????
     42  8400 ????						; Available macros...
     43  8400 ????						;   SLEEP n		 - sleep for n cycles
     44  8400 ????						;   VERTICAL_SYNC	 - correct 3 scanline vertical synch code
     45  8400 ????						;   CLEAN_START	 - set machine to known state on startup
     46  8400 ????						;   SET_POINTER	 - load a 16-bit absolute to a 16-bit variable
     47  8400 ????
     48  8400 ????						;-------------------------------------------------------------------------------
     49  8400 ????						; SLEEP duration
     50  8400 ????						; Original author: Thomas Jentzsch
     51  8400 ????						; Inserts code which takes the specified number of cycles to execute.	This is
     52  8400 ????						; useful for code where precise timing is required.
     53  8400 ????						; ILLEGAL-OPCODE VERSION DOES NOT AFFECT FLAGS OR REGISTERS.
     54  8400 ????						; LEGAL OPCODE VERSION MAY AFFECT FLAGS
     55  8400 ????						; Uses illegal opcode (DASM 2.20.01 onwards).
     56  8400 ????
     57  8400 ????				      MAC	sleep
     58  8400 ????			   .CYCLES    SET	{1}
     59  8400 ????
     60  8400 ????				      IF	.CYCLES < 2
     61  8400 ????				      ECHO	"MACRO ERROR: 'SLEEP': Duration must be > 1"
     62  8400 ????				      ERR
     63  8400 ????				      ENDIF
     64  8400 ????
     65  8400 ????				      IF	.CYCLES & 1
     66  8400 ????				      IFNCONST	NO_ILLEGAL_OPCODES
     67  8400 ????				      nop	0
     68  8400 ????				      ELSE
     69  8400 ????				      bit	VSYNC
     70  8400 ????				      ENDIF
     71  8400 ????			   .CYCLES    SET	.CYCLES - 3
     72  8400 ????				      ENDIF
     73  8400 ????
     74  8400 ????				      REPEAT	.CYCLES / 2
     75  8400 ????				      nop
     76  8400 ????				      REPEND
     77  8400 ????				      ENDM		;usage: SLEEP n (n>1)
     78  8400 ????
     79  8400 ????						;-------------------------------------------------------------------------------
     80  8400 ????						; VERTICAL_SYNC
     81  8400 ????						; Original author: Manuel Polik
     82  8400 ????						; Inserts the code required for a proper 3 scannline 
     83  8400 ????						; vertical sync sequence
     84  8400 ????						;
     85  8400 ????						; Note: Alters the accumulator
     86  8400 ????						;
     87  8400 ????						; IN:
     88  8400 ????						; OUT: A = 1
     89  8400 ????
     90  8400 ????				      MAC	vertical_sync
     91  8400 ????				      LDA	#$02	; A = VSYNC enable
     92  8400 ????				      STA	WSYNC	; Finish current line
     93  8400 ????				      STA	VSYNC	; Start vertical sync
     94  8400 ????				      STA	WSYNC	; 1st line vertical sync
     95  8400 ????				      STA	WSYNC	; 2nd line vertical sync
     96  8400 ????				      LSR		; A = VSYNC disable
     97  8400 ????				      STA	WSYNC	; 3rd line vertical sync
     98  8400 ????				      STA	VSYNC	; Stop vertical sync
     99  8400 ????				      ENDM
    100  8400 ????
    101  8400 ????						;-------------------------------------------------------------------------------
    102  8400 ????						; CLEAN_START
    103  8400 ????						; Original author: Andrew Davie
    104  8400 ????						; Standardised start-up code, clears stack, all TIA registers and RAM to 0
    105  8400 ????						; Sets stack pointer to $FF, and all registers to 0
    106  8400 ????						; Sets decimal mode off, sets interrupt flag (kind of un-necessary)
    107  8400 ????						; Use as very first section of code on boot (ie: at reset)
    108  8400 ????						; Code written to minimise total ROM usage - uses weird 6502 knowledge :)
    109  8400 ????
    110  8400 ????				      MAC	clean_start
    111  8400 ????				      sei
    112  8400 ????				      cld
    113  8400 ????
    114  8400 ????				      ldx	#0
    115  8400 ????				      txa
    116  8400 ????				      tay
    117  8400 ????			   .CLEAR_STACK dex
    118  8400 ????				      txs
    119  8400 ????				      pha
    120  8400 ????				      bne	.CLEAR_STACK	; SP=$FF, X = A = Y = 0
    121  8400 ????
    122  8400 ????				      ENDM
    123  8400 ????
    124  8400 ????						;-------------------------------------------------------
    125  8400 ????						; SET_POINTER
    126  8400 ????						; Original author: Manuel Rotschkar
    127  8400 ????						;
    128  8400 ????						; Sets a 2 byte RAM pointer to an absolute address.
    129  8400 ????						;
    130  8400 ????						; Usage: SET_POINTER pointer, address
    131  8400 ????						; Example: SET_POINTER SpritePTR, SpriteData
    132  8400 ????						;
    133  8400 ????						; Note: Alters the accumulator, NZ flags
    134  8400 ????						; IN 1: 2 byte RAM location reserved for pointer
    135  8400 ????						; IN 2: absolute address
    136  8400 ????
    137  8400 ????				      MAC	set_pointer
    138  8400 ????			   .POINTER   SET	{1}
    139  8400 ????			   .ADDRESS   SET	{2}
    140  8400 ????
    141  8400 ????				      LDA	#<.ADDRESS	; Get Lowbyte of Address
    142  8400 ????				      STA	.POINTER	; Store in pointer
    143  8400 ????				      LDA	#>.ADDRESS	; Get Hibyte of Address
    144  8400 ????				      STA	.POINTER+1	; Store in pointer+1
    145  8400 ????
    146  8400 ????				      ENDM
    147  8400 ????
    148  8400 ????						; EOF
------- FILE c:\Users\roger\OneDrive\Documents\Atari\BrawdyBAS\brawdy.bas.asm
------- FILE DPCplus.h LEVEL 2 PASS 4
      0  8400 ????				      include	"DPCplus.h"
      1  8400 ????						; Provided under the CC0 license. See the included LICENSE.txt for details.
      2  8400 ????
      3  8400 ????						; DPCplus.H - Display Processor Chip Plus Definitions
      4  8400 ????						; Chris Walton, Fred Quimby, Darrell Spice 2010
      5  8400 ????						; Version 0.00
      6  8400 ????
      7  8400 ????						; DPC Base Address
      8  8400 ????			  -	      IFNCONST	DPC_BASE_ADDRESS
      9  8400 ????			  -DPC_BASE_ADDRESS =	$1000
     10  8400 ????				      ENDIF
     11  8400 ????
     12  8400 ????						; DPC Read Base
     13  8400 ????			  -	      IFNCONST	DPC_BASE_READ_ADDRESS
     14  8400 ????			  -DPC_BASE_READ_ADDRESS =	DPC_BASE_ADDRESS
     15  8400 ????				      ENDIF
     16  8400 ????
     17  8400 ????						; DPC Write Base
     18  8400 ????			  -	      IFNCONST	DPC_BASE_WRITE_ADDRESS
     19  8400 ????			  -DPC_BASE_WRITE_ADDRESS =	DPC_BASE_ADDRESS+$28
     20  8400 ????				      ENDIF
     21  8400 ????
     22 U1028 ????				      SEG.U	DPC_REGISTERS_READ
     23 U1000					      ORG	DPC_BASE_READ_ADDRESS
     24 U1000
     25 U1000							;****************************************
     26 U1000							; DPC+ Read Registers
     27 U1000							;****************************************
     28 U1000							;
     29 U1000							;----------------------------------------
     30 U1000							; Random Numbers
     31 U1000							;----------------------------------------
     32 U1000							; DPC+ provides a 32 bit LFSR (Linear feedback shift register)
     33 U1000							; which is used as a random number generator.	Each individual byte of the
     34 U1000							; random number will return values from 0-255.  The random numbers will follow
     35 U1000							; an exact sequence, so it's best to clock them at least once per frame even if 
     36 U1000							; you don't need the value (this allows the amount of time it takes the user to
     37 U1000							; start the game to select a random starting point in the sequence)
     38 U1000							;----------------------------------------
     39 U1000		       00	   RANDOM0NEXT DS	1	; $00 clock next 32 bit number and returns byte 0
     40 U1001		       00	   RANDOM0PRIOR DS	1	; $01 clock prior 32 bit number and returns byte 0
     41 U1002		       00	   RANDOM1    DS	1	; $02 returns byte 1 of random number w/out clock
     42 U1003		       00	   RANDOM2    DS	1	; $03 returns byte 2 of random number w/out clock
     43 U1004		       00	   RANDOM3    DS	1	; $04 returns byte 3 of random number w/out clock
     44 U1005
     45 U1005							;----------------------------------------
     46 U1005							; Music Fetcher
     47 U1005							;----------------------------------------
     48 U1005							; When generating music, this value must be read every single scanline and
     49 U1005							; stored into AUDV0.
     50 U1005							;----------------------------------------
     51 U1005		       00	   AMPLITUDE  DS	1	; $05
     52 U1006
     53 U1006							;----------------------------------------
     54 U1006							; Reserved
     55 U1006							;----------------------------------------
     56 U1006		       00		      DS	1	; $06
     57 U1007		       00		      DS	1	; $07
     58 U1008
     59 U1008							;----------------------------------------
     60 U1008							; Data Fetcher
     61 U1008							;----------------------------------------
     62 U1008							; There are 8 Data Fetchers which are used to access data stored in the Display
     63 U1008							; Data bank.  Before using, you must point the Data Fetcher at the data to read
     64 U1008							; via DFxLOW and DFxHI.  After each read the Data Fetcher will update to point
     65 U1008							; to the next byte of data to return.
     66 U1008							;
     67 U1008							; psuedo code* to point Data Fetcher 1 to the color data
     68 U1008							;	lda #<(ColorDataPosition - HowFarDownScreen)
     69 U1008							;	sta DF1LOW
     70 U1008							;	lda #>(ColorDataPosition - HowFarDownScreen)
     71 U1008							;	sta DF1HI 
     72 U1008							;	....
     73 U1008							; then in the kernel read the Data Fetcher and update the color, takes 7 cycles
     74 U1008							;	LDA DF1DATA
     75 U1008							;	STA COLUP0
     76 U1008							;
     77 U1008							; * see DPCplus.asm for actual code
     78 U1008							;----------------------------------------
     79 U1008		       00	   DF0DATA    DS	1	; $08
     80 U1009		       00	   DF1DATA    DS	1	; $09
     81 U100a		       00	   DF2DATA    DS	1	; $0A
     82 U100b		       00	   DF3DATA    DS	1	; $0B
     83 U100c		       00	   DF4DATA    DS	1	; $0C
     84 U100d		       00	   DF5DATA    DS	1	; $0D
     85 U100e		       00	   DF6DATA    DS	1	; $0E
     86 U100f		       00	   DF7DATA    DS	1	; $0F
     87 U1010
     88 U1010							;----------------------------------------
     89 U1010							; Data Fetcher, Windowed
     90 U1010							;----------------------------------------
     91 U1010							; The 8 Data Fetchers can also be read in a "windowed" mode, which is most
     92 U1010							; commonly used to update sprites.  To use windowed mode, point the Data
     93 U1010							; Fetcher the same as above, but then also set the Top and Bottom of the
     94 U1010							; Window using DFxTOP and DFxBOT.  When reading via the DFxDATAW registers, a 0
     95 U1010							; value will be returned for anything that's outside of the window.
     96 U1010							;
     97 U1010							; psuedo code to point Data Fetcher0 to the sprite data
     98 U1010							;	lda #<(SpriteDataPosition - HowFarDownScreen)
     99 U1010							;	sta DF0LOW
    100 U1010							;	lda #>(SpriteDataPosition - HowFarDownScreen)
    101 U1010							;	sta DF0HI
    102 U1010							;	
    103 U1010							; set the window for Data Fetcher 0
    104 U1010							;	lda #<(SpriteDataPosition - 1)
    105 U1010							;	sta DF0TOP
    106 U1010							;	lda #<(SpriteDataPosition + ImageHeight)
    107 U1010							;	sta DF0BOT
    108 U1010							;	....
    109 U1010							; then in the kernel read the Data Fetcher and update the sprite, takes 7 cycles
    110 U1010							;	LDA DF0DATAW
    111 U1010							;	STA GRP0
    112 U1010							;----------------------------------------
    113 U1010		       00	   DF0DATAW   DS	1	; $10
    114 U1011		       00	   DF1DATAW   DS	1	; $11
    115 U1012		       00	   DF2DATAW   DS	1	; $12
    116 U1013		       00	   DF3DATAW   DS	1	; $13
    117 U1014		       00	   DF4DATAW   DS	1	; $14
    118 U1015		       00	   DF5DATAW   DS	1	; $15
    119 U1016		       00	   DF6DATAW   DS	1	; $16
    120 U1017		       00	   DF7DATAW   DS	1	; $17
    121 U1018
    122 U1018							;----------------------------------------
    123 U1018							; Fractional Data Fetcher
    124 U1018							;----------------------------------------
    125 U1018							; Another 8 Data Fetchers exist which work differently than the first 8.
    126 U1018							; These allow you to fractionally increment the Data Fetcher so a single
    127 U1018							; value can be read a set number of times before advancing to the next value.
    128 U1018							; This is commonly used to draw asymmetrical playfields without needing to 
    129 U1018							; use 1200 bytes of data (200 scanlines * 6 playfield updates).
    130 U1018							; Before using, you must point the Fractional Data Fetcher at the data to read
    131 U1018							; via DFxFRACLOW and DFxFRACHI.  You must also set the increment value via
    132 U1018							; DFxFRACINC.
    133 U1018							;
    134 U1018							; Set pointer
    135 U1018							;	LDA #<PlayfieldPF0l
    136 U1018							;	STA DF0FRACLOW
    137 U1018							;	... repeat for PF1l, PF2l, PF0r, PF1r and PF2r
    138 U1018							;	lda #>PlayFieldPF0l
    139 U1018							;	STA DF0FRACHI
    140 U1018							;	... repeat for PF1l, PF2l, PF0r, PF1r and PF2r
    141 U1018							; Set the increment to repeat the value for x reads
    142 U1018							;	LDA #(256/x)
    143 U1018							;	STA DF0FRACINC
    144 U1018							;	 STA DF1FRACINC
    145 U1018							;	... repeat for 2-5
    146 U1018							;
    147 U1018							; Special Condition - IF you want to increment the pointer after every read 
    148 U1018							; (just like the normal Data Fetcher), then use the following to set the
    149 U1018							; increment AND prime the Fractional Data Fetcher
    150 U1018							;	LDA #255
    151 U1018							;	STA DF0FRACINC
    152 U1018							;	 STA DF1FRACINC
    153 U1018							;	... repeat for 2-5
    154 U1018							;	LDA DF0FRACDATA - priming read (first value will be read twice)
    155 U1018							;	LDA DF1FRACDATA - priming read (first value will be read twice)
    156 U1018							;	... repeat for 2-5
    157 U1018							;
    158 U1018							; then in the kernel read the Fractional Data Fetchers and update the playfield
    159 U1018							;	LDA DF0FRACDATA
    160 U1018							;	STA PF0
    161 U1018							;	LDA PF1FRACDATA
    162 U1018							;	STA PF1
    163 U1018							;	... repeat for Data Fetchers 2-5, putting them in PF2, PF0, PF1 and PF2
    164 U1018							;----------------------------------------
    165 U1018		       00	   DF0FRACDATA DS	1	; $18
    166 U1019		       00	   DF1FRACDATA DS	1	; $19
    167 U101a		       00	   DF2FRACDATA DS	1	; $1A
    168 U101b		       00	   DF3FRACDATA DS	1	; $1B
    169 U101c		       00	   DF4FRACDATA DS	1	; $1C
    170 U101d		       00	   DF5FRACDATA DS	1	; $1D
    171 U101e		       00	   DF6FRACDATA DS	1	; $1E
    172 U101f		       00	   DF7FRACDATA DS	1	; $1F
    173 U1020
    174 U1020							;----------------------------------------
    175 U1020							; Data Fetcher Window Flag
    176 U1020							;----------------------------------------
    177 U1020							; The Data Fetcher Window Flag allows you to dual-purpose the first four
    178 U1020							; Data Fetchers.  The Window is not required when a Data Fetcher is used to
    179 U1020							; update a sprite's color.  The Flag will return $FF if it's within the window,
    180 U1020							; or 0 if it's not - this value can be used to control the display of the ball
    181 U1020							; and missiles. The Data Fetcher will NOT increment when reading the flag.
    182 U1020							;
    183 U1020							; psuedo code to point Data Fetcher 1 to the color data
    184 U1020							;	lda #<(ColorDataPosition - HowFarDownScreen)
    185 U1020							;	sta DF1LOW
    186 U1020							;	lda #>(ColorDataPosition - HowFarDownScreen)
    187 U1020							;	sta DF1HI
    188 U1020							;
    189 U1020							; set the window based on the missile's Y position and height (number of
    190 U1020							; scanlines to draw missile on)
    191 U1020							;	lda #<(ColorDataPosition + MissileYposition - 1)
    192 U1020							;	sta DF1TOP
    193 U1020							;	lda #<(ColorDataPosition + MissileYposition + MissileHeight)
    194 U1020							;	sta DF1BOT
    195 U1020							;
    196 U1020							; then in the kernel read the Data Fetcher and update the color, then read the
    197 U1020							; flag and update the missile
    198 U1020							;	LDA DF1DATA
    199 U1020							;	STA COLUP0
    200 U1020							;	LDA DF1FLAG
    201 U1020							;	STA ENAM0
    202 U1020							;----------------------------------------
    203 U1020		       00	   DF0FLAG    DS	1	; $20
    204 U1021		       00	   DF1FLAG    DS	1	; $21
    205 U1022		       00	   DF2FLAG    DS	1	; $22
    206 U1023		       00	   DF3FLAG    DS	1	; $23
    207 U1024
    208 U1024							;----------------------------------------
    209 U1024							; Reserved
    210 U1024							;----------------------------------------
    211 U1024		       00		      DS	1	; $24
    212 U1025		       00		      DS	1	; $25
    213 U1026		       00		      DS	1	; $26
    214 U1027		       00		      DS	1	; $27
    215 U1028
    216 U1028
    217 U1080 ????				      SEG.U	DPC_REGISTERS_WRITE
    218 U1028					      ORG	DPC_BASE_WRITE_ADDRESS
    219 U1028
    220 U1028							;****************************************
    221 U1028							; SECTION 2 - DPC+ Write Registers
    222 U1028							;****************************************
    223 U1028							;
    224 U1028							;----------------------------------------
    225 U1028							; Fractional Data Fetcher, Low Pointer
    226 U1028							;----------------------------------------
    227 U1028							; These are used in conjunction with DFxFRACHI to point a Fractional Data
    228 U1028							; Fetcher to the data to read.  For usage, see "Fractional Data Fetcher"
    229 U1028							; in SECTION 1.
    230 U1028							;----------------------------------------
    231 U1028		       00	   DF0FRACLOW DS	1	; $28
    232 U1029		       00	   DF1FRACLOW DS	1	; $29
    233 U102a		       00	   DF2FRACLOW DS	1	; $2A
    234 U102b		       00	   DF3FRACLOW DS	1	; $2B
    235 U102c		       00	   DF4FRACLOW DS	1	; $2C
    236 U102d		       00	   DF5FRACLOW DS	1	; $2D
    237 U102e		       00	   DF6FRACLOW DS	1	; $2E
    238 U102f		       00	   DF7FRACLOW DS	1	; $2F
    239 U1030
    240 U1030							;----------------------------------------
    241 U1030							; Fractional Data Fetcher, High Pointer
    242 U1030							;----------------------------------------
    243 U1030							; These are used in conjunction with DFxFRACLOW to point a Fractional Data
    244 U1030							; Fetcher to the data to read.  For usage, see "Fractional Data Fetcher"
    245 U1030							; in SECTION 1.
    246 U1030							;
    247 U1030							; NOTE: for only the lower 4 bits are used.
    248 U1030							;----------------------------------------
    249 U1030		       00	   DF0FRACHI  DS	1	; $30
    250 U1031		       00	   DF1FRACHI  DS	1	; $31
    251 U1032		       00	   DF2FRACHI  DS	1	; $32
    252 U1033		       00	   DF3FRACHI  DS	1	; $33
    253 U1034		       00	   DF4FRACHI  DS	1	; $34
    254 U1035		       00	   DF5FRACHI  DS	1	; $35 
    255 U1036		       00	   DF6FRACHI  DS	1	; $36 
    256 U1037		       00	   DF7FRACHI  DS	1	; $37 
    257 U1038
    258 U1038							;----------------------------------------
    259 U1038							; Fractional Data Fetcher, Increment
    260 U1038							;----------------------------------------
    261 U1038							; These are used to set the increment amount for the Fractional Data Fetcher.
    262 U1038							; To increment pointer after every Xth read use int(256/X)
    263 U1038							; For usage, see "Fractional Data Fetcher" in SECTION 1.
    264 U1038							;----------------------------------------
    265 U1038		       00	   DF0FRACINC DS	1	; $38
    266 U1039		       00	   DF1FRACINC DS	1	; $39
    267 U103a		       00	   DF2FRACINC DS	1	; $3A
    268 U103b		       00	   DF3FRACINC DS	1	; $3B
    269 U103c		       00	   DF4FRACINC DS	1	; $3C
    270 U103d		       00	   DF5FRACINC DS	1	; $3D
    271 U103e		       00	   DF6FRACINC DS	1	; $3E
    272 U103f		       00	   DF7FRACINC DS	1	; $3F
    273 U1040
    274 U1040							;----------------------------------------
    275 U1040							; Data Fetcher, Window Top
    276 U1040							;----------------------------------------
    277 U1040							; These are used with DFxBOT to define the Data Fetcher Window
    278 U1040							; For usage, see "Data Fetcher, Windowed" in SECTION 1.
    279 U1040							;----------------------------------------
    280 U1040		       00	   DF0TOP     DS	1	; $40
    281 U1041		       00	   DF1TOP     DS	1	; $41
    282 U1042		       00	   DF2TOP     DS	1	; $42
    283 U1043		       00	   DF3TOP     DS	1	; $43
    284 U1044		       00	   DF4TOP     DS	1	; $44
    285 U1045		       00	   DF5TOP     DS	1	; $45
    286 U1046		       00	   DF6TOP     DS	1	; $46
    287 U1047		       00	   DF7TOP     DS	1	; $47
    288 U1048
    289 U1048							;----------------------------------------
    290 U1048							; Data Fetcher, Window Bottom
    291 U1048							;----------------------------------------
    292 U1048							; These are used with DFxTOP to define the Data Fetcher Window
    293 U1048							; For usage, see "Data Fetcher, Windowed" in SECTION 1.
    294 U1048							;----------------------------------------
    295 U1048		       00	   DF0BOT     DS	1	; $48
    296 U1049		       00	   DF1BOT     DS	1	; $49
    297 U104a		       00	   DF2BOT     DS	1	; $4A
    298 U104b		       00	   DF3BOT     DS	1	; $4B
    299 U104c		       00	   DF4BOT     DS	1	; $4C
    300 U104d		       00	   DF5BOT     DS	1	; $4D
    301 U104e		       00	   DF6BOT     DS	1	; $4E
    302 U104f		       00	   DF7BOT     DS	1	; $4F
    303 U1050
    304 U1050							;----------------------------------------
    305 U1050							; Data Fetcher, Low Pointer
    306 U1050							;----------------------------------------
    307 U1050							; These are used in conjunction with DFxHI to point a Data Fetcher to the data
    308 U1050							; to read.  For usage, see "Data Fetcher" in SECTION 1.
    309 U1050							;----------------------------------------
    310 U1050		       00	   DF0LOW     DS	1	; $50
    311 U1051		       00	   DF1LOW     DS	1	; $51
    312 U1052		       00	   DF2LOW     DS	1	; $52
    313 U1053		       00	   DF3LOW     DS	1	; $53
    314 U1054		       00	   DF4LOW     DS	1	; $54
    315 U1055		       00	   DF5LOW     DS	1	; $55
    316 U1056		       00	   DF6LOW     DS	1	; $56
    317 U1057		       00	   DF7LOW     DS	1	; $57
    318 U1058
    319 U1058							;----------------------------------------
    320 U1058							; Fast Fetch Mode
    321 U1058							;----------------------------------------
    322 U1058							; Fast Fetch Mode enables the fastest way to read DPC+ registers.  Normal
    323 U1058							; reads use LDA Absolute addressing (LDA DF0DATA) which takes 4 cycles to
    324 U1058							; process.  Fast Fetch Mode intercepts LDA Immediate addressing (LDA #<DF0DATA)
    325 U1058							; which takes only 2 cycles!  Only immediate values < $28 are intercepted
    326 U1058							; 
    327 U1058							; set Fast Fetch Mode
    328 U1058							;	LDA #0
    329 U1058							;	STA FASTFETCH
    330 U1058							;
    331 U1058							; then use immediate mode to read the registers, takes just 5 cycles to update
    332 U1058							; any TIA register
    333 U1058							;
    334 U1058							;	LDA #<DF0DATA
    335 U1058							;	STA GRP0
    336 U1058							;
    337 U1058							; when done, turn off Fast Fetch Mode using any non-zero value
    338 U1058							;	LDA #$FF
    339 U1058							;	STA FASTFETCH
    340 U1058							;
    341 U1058							; NOTE: if you forget to turn off FASTFETCH mode, then code like this will not
    342 U1058							;	 work as you expect
    343 U1058							;	LDA #0	; returns a RANDOM NUMBER, not 0.
    344 U1058							;	STA COLUPF
    345 U1058							;----------------------------------------
    346 U1058		       00	   FASTFETCH  DS	1	; $58
    347 U1059
    348 U1059							;----------------------------------------
    349 U1059							; Function Support
    350 U1059							;----------------------------------------
    351 U1059							; Currently only Function 255 is defined, and it is used to call user
    352 U1059							; written ARM routines (or C code compiled for the ARM processor.)
    353 U1059							;
    354 U1059							; PARAMETER is not used by function 255, it may be used by future functions.
    355 U1059							; 
    356 U1059							; call custom ARM routine
    357 U1059							;	LDA #$FF
    358 U1059							;	STA CALLFUNCTION
    359 U1059							;
    360 U1059							; A custom ARM demo will be released in the near future
    361 U1059							;----------------------------------------
    362 U1059		       00	   PARAMETER  DS	1	; $59
    363 U105a		       00	   CALLFUNCTION DS	1	; $5A
    364 U105b
    365 U105b							;----------------------------------------
    366 U105b							; Reserved
    367 U105b							;----------------------------------------
    368 U105b		       00		      DS	1	; $5B	 ; reserved
    369 U105c		       00		      DS	1	; $5C	 ; reserved
    370 U105d
    371 U105d							;----------------------------------------
    372 U105d							; Waveforms
    373 U105d							;----------------------------------------
    374 U105d							; Waveforms are 32 byte tables that define a waveform.  Waveforms must be 32
    375 U105d							; byte aligned, and can only be stored in the 4K Display Data Bank. You MUST
    376 U105d							; define an "OFF" waveform,  comprised of all zeros.  The sum of all waveforms
    377 U105d							; being played should be <= 15, so typically you'll use a maximum of 5 for any
    378 U105d							; given value.
    379 U105d							;
    380 U105d							; Valid values are 0-127 and point to the 4K Display Data bank.  The formula
    381 U105d							; (* & $1fff)/32 as shown below will calculate the value for you
    382 U105d							;
    383 U105d							;
    384 U105d							; example waveforms
    385 U105d							;	align 32		; forces the waveform to a 32 byte boundary
    386 U105d							;SOUND_OFF = (* & $1fff)/32	; calculates waveform pointer
    387 U105d							;	.byte 0,0,0,0,0,0,0,0
    388 U105d							;	.byte 0,0,0,0,0,0,0,0
    389 U105d							;	.byte 0,0,0,0,0,0,0,0
    390 U105d							;	.byte 0,0,0,0,0,0,0,0 
    391 U105d							; 
    392 U105d							;	align 32
    393 U105d							;SINE_WAVE = (* & $1fff)/32
    394 U105d							;	.byte 3,3,3,4,4,5,5,5
    395 U105d							;	.byte 5,5,5,5,4,4,3,3
    396 U105d							;	.byte 3,2,2,1,1,0,0,0
    397 U105d							;	.byte 0,0,0,0,1,1,2,2 
    398 U105d							;
    399 U105d							; usage, set voice 0 to Sine Wave, set voice 1 & 2 off
    400 U105d							;	LDA #SINE_WAVE
    401 U105d							;	STA WAVEFORM0
    402 U105d							;	LDA #SOUND_OFF
    403 U105d							;	STA WAVEFORM1
    404 U105d							;	STA WAVEFORM2	
    405 U105d							;----------------------------------------
    406 U105d		       00	   WAVEFORM0  DS	1	; $5D
    407 U105e		       00	   WAVEFORM1  DS	1	; $5E
    408 U105f		       00	   WAVEFORM2  DS	1	; $5F
    409 U1060
    410 U1060							;----------------------------------------
    411 U1060							; Data Fetcher Push (stack)
    412 U1060							;----------------------------------------
    413 U1060							; The Data Fetchers can also be used to update the contents of the 4K
    414 U1060							; Display Data bank.  Point the Data Fetcher to the data to change,
    415 U1060							; then Push to it.  The Data Fetcher's pointer will be decremented BEFORE
    416 U1060							; the data is written.
    417 U1060							;
    418 U1060							; point Data Fetcher 1 to the sprite data
    419 U1060							;	lda #<DisplayData
    420 U1060							;	sta DF1LOW
    421 U1060							;	lda #>DisplayData
    422 U1060							;	sta DF1HI 
    423 U1060							;
    424 U1060							; then update it
    425 U1060							;	LDA #$FF
    426 U1060							;	STA DF1PUSH ; changes data at DisplayData - 1
    427 U1060							;	LDA #$81
    428 U1060							;	STA DF1OUSH ; changes data at DisplayData - 2
    429 U1060							;----------------------------------------
    430 U1060		       00	   DF0PUSH    DS	1	; $60
    431 U1061		       00	   DF1PUSH    DS	1	; $61
    432 U1062		       00	   DF2PUSH    DS	1	; $62
    433 U1063		       00	   DF3PUSH    DS	1	; $63
    434 U1064		       00	   DF4PUSH    DS	1	; $64
    435 U1065		       00	   DF5PUSH    DS	1	; $65
    436 U1066		       00	   DF6PUSH    DS	1	; $66
    437 U1067		       00	   DF7PUSH    DS	1	; $67
    438 U1068
    439 U1068							;----------------------------------------
    440 U1068							; Data Fetcher, High Pointer
    441 U1068							;----------------------------------------
    442 U1068							; These are used in conjunction with DFxLOW to point a Data Fetcher to the data
    443 U1068							; to read.  For usage, see "Data Fetcher" in SECTION 1.
    444 U1068							;----------------------------------------
    445 U1068		       00	   DF0HI      DS	1	; $68
    446 U1069		       00	   DF1HI      DS	1	; $69
    447 U106a		       00	   DF2HI      DS	1	; $6A
    448 U106b		       00	   DF3HI      DS	1	; $6B
    449 U106c		       00	   DF4HI      DS	1	; $6C
    450 U106d		       00	   DF5HI      DS	1	; $6D 
    451 U106e		       00	   DF6HI      DS	1	; $6E 
    452 U106f		       00	   DF7HI      DS	1	; $6F 
    453 U1070
    454 U1070							;----------------------------------------
    455 U1070							; Random Number Initialization
    456 U1070							;----------------------------------------
    457 U1070							; The random number generate defaults to a value that spells out DPC+.
    458 U1070							; Store any value to RRESET to set the random number back to DPC+, or you
    459 U1070							; can use RWRITE0-3 to change the 32 bit value to anything you desire.
    460 U1070							;
    461 U1070							; reset random number
    462 U1070							;	LDA #0
    463 U1070							;	STA RRESET
    464 U1070							;
    465 U1070							; set a specific random number (spells out 2600)
    466 U1070							;	LDA #$32
    467 U1070							;	STA RWRITE0
    468 U1070							;	LDA #$36
    469 U1070							;	STA RWRITE1
    470 U1070							;	LDA #$30
    471 U1070							;	STA RWRITE2
    472 U1070							;	STA RWRITE3
    473 U1070							;
    474 U1070							; NOTE: do not set all 4 bytes to 0, as that will disable the generator.
    475 U1070							;----------------------------------------
    476 U1070		       00	   RRESET     DS	1	; $70
    477 U1071		       00	   RWRITE0    DS	1	; $71
    478 U1072		       00	   RWRITE1    DS	1	; $72
    479 U1073		       00	   RWRITE2    DS	1	; $73
    480 U1074		       00	   RWRITE3    DS	1	; $74
    481 U1075
    482 U1075							;----------------------------------------
    483 U1075							; Notes
    484 U1075							;----------------------------------------
    485 U1075							; These are used to select a value from the frequency table to play.
    486 U1075							; The default table, store in DPC_frequencies.h, only defines frequencies
    487 U1075							; for 1-88, which cover the keys of a piano.  You are free to add additional
    488 U1075							; frequencies from 88-255.  Piano keys are defined at the end of this file
    489 U1075							;
    490 U1075							; set voice 0 to middle C
    491 U1075							;	LDA #C4
    492 U1075							;	STA NOTE0
    493 U1075							;
    494 U1075							; Note: if you are using ARM USER CODE then you can only use notes to 128.
    495 U1075							;----------------------------------------
    496 U1075		       00	   NOTE0      DS	1	; $75
    497 U1076		       00	   NOTE1      DS	1	; $76
    498 U1077		       00	   NOTE2      DS	1	; $77
    499 U1078
    500 U1078							;----------------------------------------
    501 U1078							; Data Fetcher Write (queue)
    502 U1078							;----------------------------------------
    503 U1078							; The Data Fetchers can also be used to update the contents of the 4K
    504 U1078							; Display Data bank.  Point the Data Fetcher to the data to change,
    505 U1078							; then Write to it  The Data Fetcher's pointer will be incremented AFTER
    506 U1078							; the data is written.
    507 U1078							;
    508 U1078							; point Data Fetcher 1 to the sprite data
    509 U1078							;	lda #<SpriteData
    510 U1078							;	sta DF1LOW
    511 U1078							;	lda #>SpriteData
    512 U1078							;	sta DF1HI 
    513 U1078							;
    514 U1078							; then update it
    515 U1078							;	LDA #$FF
    516 U1078							;	STA DF1WRITE ; changes data at SpriteData
    517 U1078							;	LDA #$81
    518 U1078							;	STA DF1WRITE ; changes data at SpriteData + 1
    519 U1078							;----------------------------------------
    520 U1078		       00	   DF0WRITE   DS	1	; $78
    521 U1079		       00	   DF1WRITE   DS	1	; $79
    522 U107a		       00	   DF2WRITE   DS	1	; $7A
    523 U107b		       00	   DF3WRITE   DS	1	; $7B
    524 U107c		       00	   DF4WRITE   DS	1	; $7C
    525 U107d		       00	   DF5WRITE   DS	1	; $7D
    526 U107e		       00	   DF6WRITE   DS	1	; $7E
    527 U107f		       00	   DF7WRITE   DS	1	; $7F
    528 U1080
    529 U1080							;-------------------------------------------------------------------------------
    530 U1080							; The following required for back-compatibility with code which does not use
    531 U1080							; segments.
    532 U1080
    533  8400 ????				      SEG
------- FILE c:\Users\roger\OneDrive\Documents\Atari\BrawdyBAS\brawdy.bas.asm
------- FILE DPCplusbB.h LEVEL 2 PASS 4
      0  8400 ????				      include	"DPCplusbB.h"
      1  8400 ????						; Provided under the CC0 license. See the included LICENSE.txt for details.
      2  8400 ????
      3 U00f5 ????				      SEG.U	vars
      4 U0080					      org	$80
      5 U0080		       00	   player0x   ds	1
      6 U0081		       00	   topP1x     ds	1
      7 U0082		       00	   missile0x  ds	1
      8 U0083		       00	   missile1x  ds	1
      9 U0084		       00	   ballx      ds	1
     10 U0085
     11 U0085		       00 00 00 00*SpriteGfxIndex ds	9
     12 U008e
     13 U008e		       00	   spritedisplay ds	1
     14 U008f
     15 U008f		       00	   player0xcoll ds	1	; to detect p0x colls
     16 U0090		       00	   NewSpriteX ds	1	;		X position
     17 U0090		       00 90	   player1x   =	NewSpriteX
     18 U0091		       00	   player2x   ds	1
     19 U0092		       00	   player3x   ds	1
     20 U0093		       00	   player4x   ds	1
     21 U0094		       00	   player5x   ds	1
     22 U0095		       00	   player6x   ds	1
     23 U0096		       00	   player7x   ds	1
     24 U0097		       00	   player8x   ds	1
     25 U0098		       00	   player9x   ds	1
     26 U0099
     27 U0099		       00	   player0y   ds	1
     28 U009a		       00	   NewSpriteY ds	1	;		Y position
     29 U009a		       00 9a	   player1y   =	NewSpriteY
     30 U009b		       00	   player2y   ds	1
     31 U009c		       00	   player3y   ds	1
     32 U009d		       00	   player4y   ds	1
     33 U009e		       00	   player5y   ds	1
     34 U009f		       00	   player6y   ds	1
     35 U00a0		       00	   player7y   ds	1
     36 U00a1		       00	   player8y   ds	1
     37 U00a2		       00	   player9y   ds	1
     38 U00a3
     39 U00a3		       00 00	   player0color ds	2
     40 U00a5
     41 U00a5		       00	   player0height ds	1
     42 U00a6		       00	   player1height ds	1
     43 U00a7		       00	   player2height ds	1
     44 U00a8		       00	   player3height ds	1
     45 U00a9		       00	   player4height ds	1
     46 U00aa		       00	   player5height ds	1
     47 U00ab		       00	   player6height ds	1
     48 U00ac		       00	   player7height ds	1
     49 U00ad		       00	   player8height ds	1
     50 U00ae		       00	   player9height ds	1
     51 U00af
     52 U00af		       00	   _NUSIZ1    ds	1
     53 U00b0		       00	   NUSIZ2     ds	1
     54 U00b1		       00	   NUSIZ3     ds	1
     55 U00b2		       00	   NUSIZ4     ds	1
     56 U00b3		       00	   NUSIZ5     ds	1
     57 U00b4		       00	   NUSIZ6     ds	1
     58 U00b5		       00	   NUSIZ7     ds	1
     59 U00b6		       00	   NUSIZ8     ds	1
     60 U00b7		       00	   NUSIZ9     ds	1
     61 U00b8
     62 U00b8		       00 00 00    score      ds	3
     63 U00bb		       00	   COLUM0     ds	1
     64 U00bc		       00	   COLUM1     ds	1
     65 U00bd		       00	   player0pointerlo ds	1
     66 U00be		       00	   player0pointerhi ds	1
     67 U00bf
     68 U00bf		       00 85	   RAMcopybegin =	SpriteGfxIndex
     69 U00bf		       00 3a	   RAMcopylength =	*-RAMcopybegin
     70 U00bf
     71 U00bf		       00	   missile0y  ds	1
     72 U00c0		       00	   missile1y  ds	1
     73 U00c1		       00	   bally      ds	1
     74 U00c2
     75 U00c2		       00	   missile0height ds	1
     76 U00c3		       00	   missile1height ds	1
     77 U00c4		       00	   ballheight ds	1
     78 U00c5
     79 U00c5		       00	   statusbarlength ds	1	; needed?
     80 U00c5		       00 c5	   aux3       =	statusbarlength
     81 U00c6
     82 U00c6		       00	   lifecolor  ds	1
     83 U00c6		       00 c6	   pfscorecolor =	lifecolor
     84 U00c7		       00	   aux4       ds	1
     85 U00c8
     86 U00c8		       00	   lifepointer ds	1
     87 U00c9		       00	   lives      ds	1
     88 U00c9		       00 c8	   pfscore1   =	lifepointer
     89 U00c9		       00 c9	   pfscore2   =	lives
     90 U00c9		       00 c8	   aux5       =	pfscore1
     91 U00c9		       00 c9	   aux6       =	pfscore2
     92 U00ca
     93 U00ca		       00	   playfieldpos ds	1
     94 U00cb
     95 U00cb		       00	   temp1      ds	1	; used in sprite flickering
     96 U00cc		       00	   temp2      ds	1	;are obliterated when drawscreen is called.
     97 U00cd		       00	   temp3      ds	1
     98 U00ce		       00	   temp4      ds	1
     99 U00cf		       00	   temp5      ds	1
    100 U00d0		       00	   temp6      ds	1
    101 U00d0		       00 81	   temp7      =	topP1x	; This is used to aid in bankswitching
    102 U00d1
    103 U00d1		       00	   A	      ds	1
    104 U00d1		       00 d1	   a	      =	A
    105 U00d2		       00	   B	      ds	1
    106 U00d2		       00 d2	   b	      =	B
    107 U00d3		       00	   C	      ds	1
    108 U00d3		       00 d3	   c	      =	C
    109 U00d4		       00	   D	      ds	1
    110 U00d4		       00 d4	   d	      =	D
    111 U00d5		       00	   E	      ds	1
    112 U00d5		       00 d5	   e	      =	E
    113 U00d6		       00	   F	      ds	1
    114 U00d6		       00 d6	   f	      =	F
    115 U00d7		       00	   G	      ds	1
    116 U00d7		       00 d7	   g	      =	G
    117 U00d8		       00	   H	      ds	1
    118 U00d8		       00 d8	   h	      =	H
    119 U00d9		       00	   I	      ds	1
    120 U00d9		       00 d9	   i	      =	I
    121 U00da		       00	   J	      ds	1
    122 U00da		       00 da	   j	      =	J
    123 U00db		       00	   K	      ds	1
    124 U00db		       00 db	   k	      =	K
    125 U00dc		       00	   L	      ds	1
    126 U00dc		       00 dc	   l	      =	L
    127 U00dd		       00	   M	      ds	1
    128 U00dd		       00 dd	   m	      =	M
    129 U00de		       00	   N	      ds	1
    130 U00de		       00 de	   n	      =	N
    131 U00df		       00	   O	      ds	1
    132 U00df		       00 df	   o	      =	O
    133 U00e0		       00	   P	      ds	1
    134 U00e0		       00 e0	   p	      =	P
    135 U00e1		       00	   Q	      ds	1
    136 U00e1		       00 e1	   q	      =	Q
    137 U00e2		       00	   R	      ds	1
    138 U00e2		       00 e2	   r	      =	R
    139 U00e3		       00	   S	      ds	1
    140 U00e3		       00 e3	   s	      =	S
    141 U00e4		       00	   T	      ds	1
    142 U00e4		       00 e4	   t	      =	T
    143 U00e5		       00	   U	      ds	1
    144 U00e5		       00 e5	   u	      =	U
    145 U00e6		       00	   V	      ds	1
    146 U00e6		       00 e6	   v	      =	V
    147 U00e7		       00	   W	      ds	1
    148 U00e7		       00 e7	   w	      =	W
    149 U00e8		       00	   X	      ds	1
    150 U00e8		       00 e8	   x	      =	X
    151 U00e9		       00	   Y	      ds	1
    152 U00e9		       00 e9	   y	      =	Y
    153 U00ea		       00	   Z	      ds	1
    154 U00ea		       00 ea	   z	      =	Z
    155 U00eb		       00	   scorecolor ds	1
    156 U00ec
    157 U00ec		       00	   var0       ds	1
    158 U00ed		       00	   var1       ds	1
    159 U00ee		       00	   var2       ds	1
    160 U00ef		       00	   var3       ds	1
    161 U00f0		       00	   var4       ds	1
    162 U00f1		       00	   var5       ds	1
    163 U00f2		       00	   var6       ds	1
    164 U00f3		       00	   var7       ds	1
    165 U00f4		       00	   var8       ds	1
    166 U00f5
 free ram: 0
    167 U00f5					      echo	"free ram:",($f5-*)d
    168 U00f5
    169 U00f5		       00 f6	   stack1     =	$f6
    170 U00f5		       00 f7	   stack2     =	$f7
    171 U00f5		       00 f8	   stack3     =	$f8
    172 U00f5		       00 f9	   stack4     =	$f9
    173 U00f5							; the stack bytes above may be used in the kernel
    174 U00f5							; stack = F6-F7, F8-F9, FA-FB, FC-FD, FE-FF
    175 U00f5
    176 U00f5					      MAC	return
    177 U00f5					      ifnconst	bankswitch
    178 U00f5					      rts
    179 U00f5					      else
    180 U00f5					      jmp	BS_return
    181 U00f5					      endif
    182 U00f5					      ENDM		; auto-return from either a regular or bankswitched module
    183  8400 ????				      seg
    184  8400 ????	       10 00	   rand       =	RANDOM0NEXT
    185  8400 ????	       00 d3	   KERNEL_LINES =	178*76/64	; warning: not all values will work
    186  8400 ????	       00 a7	   OVERSCAN_LINES =	128+33*76/64	; again, not all values work
    187  8400 ????	       d1 a4	   C_function =	FETCHER_BEGIN
    188  8400 ????	       d1 a8	   CcodeData  =	C_function + 4
    189  8400 ????	       d1 e2	   playerpointers =	CcodeData + RAMcopylength
    190  8400 ????	       d2 08	   P1GFX      =	playerpointers + 38
    191  8400 ????	       d3 08	   P1COLOR    =	P1GFX + 256
    192  8400 ????	       d4 08	   P0GFX      =	P1COLOR + 256
    193  8400 ????	       d5 08	   P0COLOR    =	P0GFX + 256
    194  8400 ????	       d6 08	   PF1L       =	P0COLOR + 256
    195  8400 ????	       d7 08	   PF2L       =	PF1L + 256
    196  8400 ????	       d8 08	   PF1R       =	PF2L + 256
    197  8400 ????	       d9 08	   PF2R       =	PF1R + 256
    198  8400 ????	       da 08	   PFCOLS     =	PF2R + 256
    199  8400 ????	       db 08	   JUMPTABLELO =	PFCOLS + 256
    200  8400 ????	       db 14	   JUMPTABLEHI =	JUMPTABLELO + 12
    201  8400 ????	       db 20	   P1HMP      =	JUMPTABLEHI + 12
    202  8400 ????	       db 2d	   P1SKIP     =	P1HMP + 13
    203  8400 ????	       db 39	   NUSIZREFP  =	P1SKIP + 12
    204  8400 ????	       db 45	   scoredata  =	NUSIZREFP + 12
    205  8400 ????	       db a5	   BKCOLS     =	scoredata + 96
    206  8400 ????	       dc a5	   STACKbegin =	BKCOLS + 256
    207  8400 ????	       dd a5	   USERSTACK  =	STACKbegin + 256	; stack starts here and goes down!!!!
 DPC free RAM= 603
    208  8400 ????				      echo	"DPC free RAM=",($1000-(USERSTACK&$0FFF))d
------- FILE c:\Users\roger\OneDrive\Documents\Atari\BrawdyBAS\brawdy.bas.asm
------- FILE 2600basic_variable_redefs.h LEVEL 2 PASS 4
      0  8400 ????				      include	"2600basic_variable_redefs.h"
      1  8400 ????						; This file contains variable mapping and other information for the current project.
      2  8400 ????
      3  8400 ????	       00 b8	   sc1	      =	score
      4  8400 ????
      5  8400 ????	       00 ed	   Damage     =	var1
      6  8400 ????
      7  8400 ????	       00 d5	   PlayerHealth =	e
      8  8400 ????
      9  8400 ????	       00 e6	   swdebounce =	v
     10  8400 ????
     11  8400 ????	       00 e5	   gamenumber =	u
     12  8400 ????
     13  8400 ????	       00 dd	   PlayerDamage =	m
     14  8400 ????
     15  8400 ????	       00 ea	   Bit0_NewLevel =	z
     16  8400 ????
     17  8400 ????	       00 ea	   Bit5_hit   =	z
     18  8400 ????
     19  8400 ????	       00 e9	   Ch0_Counter =	y
     20  8400 ????
     21  8400 ????	       00 e8	   Ch0_Duration =	x
     22  8400 ????
     23  8400 ????	       00 e7	   Ch0_Sound  =	w
     24  8400 ????
     25  8400 ????	       00 e6	   V0	      =	v
     26  8400 ????
     27  8400 ????	       00 e0	   Ch1_Counter =	p
     28  8400 ????
     29  8400 ????	       00 db	   Ch1_Duration =	k
     30  8400 ????
     31  8400 ????	       00 da	   Ch1_Sound  =	j
     32  8400 ????
     33  8400 ????	       00 d8	   V1	      =	h
     34  8400 ????
     35  8400 ????	       00 ea	   Bit7_PLayer3Moving =	z
     36  8400 ????
     37  8400 ????	       00 ea	   Bit6_PLayer3Direction =	z
     38  8400 ????
     39  8400 ????	       00 ea	   Bit4_gameover =	z
     40  8400 ????
     41  8400 ????	       00 e4	   Timer      =	t
     42  8400 ????
     43  8400 ????	       00 e1	   Househit   =	q
     44  8400 ????
     45  8400 ????	       00 ea	   Bit3_ShootorNot =	z
     46  8400 ????
     47  8400 ????	       00 df	   delay      =	o
     48  8400 ????
     49  8400 ????	       00 de	   HealthDrop =	n
     50  8400 ????
     51  8400 ????	       00 ea	   Bit1_missleOn =	z
     52  8400 ????
     53  8400 ????	       00 dc	   level      =	l
     54  8400 ????
     55  8400 ????	       00 ea	   Bit2_EnemyMove =	z
     56  8400 ????
     57  8400 ????	       00 d6	   frame      =	f
     58  8400 ????
     59  8400 ????	       00 d4	   Points     =	d
     60  8400 ????
     61  8400 ????	       00 d3	   EnemySpeed =	c
     62  8400 ????
     63  8400 ????	       00 d2	   Moverate   =	b
     64  8400 ????
     65  8400 ????	       00 d1	   drop       =	a
     66  8400 ????
     67  8400 ????	       00 d9	   EnemyHit   =	i
     68  8400 ????
     69  8400 ????	       00 01	   pfscore    =	1
     70  8400 ????
     71  8400 ????	       00 3c	   LEdge      =	60
     72  8400 ????
     73  8400 ????	       00 64	   REdge      =	100
     74  8400 ????
     75  8400 ????	       00 96	   _P_Edge_Right =	150
     76  8400 ????
     77  8400 ????	       00 00	   _P_Edge_Left =	0
     78  8400 ????
     79  8400 ????	       00 a0	   _P_Edge_Bottom =	160
     80  8400 ????
     81  8400 ????	       00 09	   _P_Edge_Top =	9
     82  8400 ????
     83  8400 ????	       00 20	   bscode_length =	32
     84  8400 ????	       00 fe	   _FE	      =	$FE
     85  8400 ????
     86  8400 ????	       00 fc	   _FC	      =	$FC
     87  8400 ????
     88  8400 ????	       00 fa	   _FA	      =	$FA
     89  8400 ????
     90  8400 ????	       00 f8	   _F8	      =	$F8
     91  8400 ????
     92  8400 ????	       00 f6	   _F6	      =	$F6
     93  8400 ????
     94  8400 ????	       00 f4	   _F4	      =	$F4
     95  8400 ????
     96  8400 ????	       00 f2	   _F2	      =	$F2
     97  8400 ????
     98  8400 ????	       00 f0	   _F0	      =	$F0
     99  8400 ????
    100  8400 ????	       00 ee	   _EE	      =	$EE
    101  8400 ????
    102  8400 ????	       00 ec	   _EC	      =	$EC
    103  8400 ????
    104  8400 ????	       00 ea	   _EA	      =	$EA
    105  8400 ????
    106  8400 ????	       00 e8	   _E8	      =	$E8
    107  8400 ????
    108  8400 ????	       00 e6	   _E6	      =	$E6
    109  8400 ????
    110  8400 ????	       00 e4	   _E4	      =	$E4
    111  8400 ????
    112  8400 ????	       00 e2	   _E2	      =	$E2
    113  8400 ????
    114  8400 ????	       00 e0	   _E0	      =	$E0
    115  8400 ????
    116  8400 ????	       00 de	   _DE	      =	$DE
    117  8400 ????
    118  8400 ????	       00 dc	   _DC	      =	$DC
    119  8400 ????
    120  8400 ????	       00 da	   _DA	      =	$DA
    121  8400 ????
    122  8400 ????	       00 d8	   _D8	      =	$D8
    123  8400 ????
    124  8400 ????	       00 d6	   _D6	      =	$D6
    125  8400 ????
    126  8400 ????	       00 d4	   _D4	      =	$D4
    127  8400 ????
    128  8400 ????	       00 d2	   _D2	      =	$D2
    129  8400 ????
    130  8400 ????	       00 d0	   _D0	      =	$D0
    131  8400 ????
    132  8400 ????	       00 ce	   _CE	      =	$CE
    133  8400 ????
    134  8400 ????	       00 cc	   _CC	      =	$CC
    135  8400 ????
    136  8400 ????	       00 ca	   _CA	      =	$CA
    137  8400 ????
    138  8400 ????	       00 c8	   _C8	      =	$C8
    139  8400 ????
    140  8400 ????	       00 c6	   _C6	      =	$C6
    141  8400 ????
    142  8400 ????	       00 c4	   _C4	      =	$C4
    143  8400 ????
    144  8400 ????	       00 c2	   _C2	      =	$C2
    145  8400 ????
    146  8400 ????	       00 c0	   _C0	      =	$C0
    147  8400 ????
    148  8400 ????	       00 be	   _BE	      =	$BE
    149  8400 ????
    150  8400 ????	       00 bc	   _BC	      =	$BC
    151  8400 ????
    152  8400 ????	       00 ba	   _BA	      =	$BA
    153  8400 ????
    154  8400 ????	       00 b8	   _B8	      =	$B8
    155  8400 ????
    156  8400 ????	       00 b6	   _B6	      =	$B6
    157  8400 ????
    158  8400 ????	       00 b4	   _B4	      =	$B4
    159  8400 ????
    160  8400 ????	       00 b2	   _B2	      =	$B2
    161  8400 ????
    162  8400 ????	       00 b0	   _B0	      =	$B0
    163  8400 ????
    164  8400 ????	       00 ae	   _AE	      =	$AE
    165  8400 ????
    166  8400 ????	       00 ac	   _AC	      =	$AC
    167  8400 ????
    168  8400 ????	       00 aa	   _AA	      =	$AA
    169  8400 ????
    170  8400 ????	       00 a8	   _A8	      =	$A8
    171  8400 ????
    172  8400 ????	       00 a6	   _A6	      =	$A6
    173  8400 ????
    174  8400 ????	       00 a4	   _A4	      =	$A4
    175  8400 ????
    176  8400 ????	       00 a2	   _A2	      =	$A2
    177  8400 ????
    178  8400 ????	       00 a0	   _A0	      =	$A0
    179  8400 ????
    180  8400 ????	       00 9e	   _9E	      =	$9E
    181  8400 ????
    182  8400 ????	       00 9c	   _9C	      =	$9C
    183  8400 ????
    184  8400 ????	       00 9a	   _9A	      =	$9A
    185  8400 ????
    186  8400 ????	       00 98	   _98	      =	$98
    187  8400 ????
    188  8400 ????	       00 96	   _96	      =	$96
    189  8400 ????
    190  8400 ????	       00 94	   _94	      =	$94
    191  8400 ????
    192  8400 ????	       00 92	   _92	      =	$92
    193  8400 ????
    194  8400 ????	       00 90	   _90	      =	$90
    195  8400 ????
    196  8400 ????	       00 8e	   _8E	      =	$8E
    197  8400 ????
    198  8400 ????	       00 8c	   _8C	      =	$8C
    199  8400 ????
    200  8400 ????	       00 8a	   _8A	      =	$8A
    201  8400 ????
    202  8400 ????	       00 88	   _88	      =	$88
    203  8400 ????
    204  8400 ????	       00 86	   _86	      =	$86
    205  8400 ????
    206  8400 ????	       00 84	   _84	      =	$84
    207  8400 ????
    208  8400 ????	       00 82	   _82	      =	$82
    209  8400 ????
    210  8400 ????	       00 80	   _80	      =	$80
    211  8400 ????
    212  8400 ????	       00 7e	   _7E	      =	$7E
    213  8400 ????
    214  8400 ????	       00 7c	   _7C	      =	$7C
    215  8400 ????
    216  8400 ????	       00 7a	   _7A	      =	$7A
    217  8400 ????
    218  8400 ????	       00 78	   _78	      =	$78
    219  8400 ????
    220  8400 ????	       00 76	   _76	      =	$76
    221  8400 ????
    222  8400 ????	       00 74	   _74	      =	$74
    223  8400 ????
    224  8400 ????	       00 72	   _72	      =	$72
    225  8400 ????
    226  8400 ????	       00 70	   _70	      =	$70
    227  8400 ????
    228  8400 ????	       00 6e	   _6E	      =	$6E
    229  8400 ????
    230  8400 ????	       00 6c	   _6C	      =	$6C
    231  8400 ????
    232  8400 ????	       00 6a	   _6A	      =	$6A
    233  8400 ????
    234  8400 ????	       00 68	   _68	      =	$68
    235  8400 ????
    236  8400 ????	       00 66	   _66	      =	$66
    237  8400 ????
    238  8400 ????	       00 64	   _64	      =	$64
    239  8400 ????
    240  8400 ????	       00 62	   _62	      =	$62
    241  8400 ????
    242  8400 ????	       00 60	   _60	      =	$60
    243  8400 ????
    244  8400 ????	       00 5e	   _5E	      =	$5E
    245  8400 ????
    246  8400 ????	       00 5c	   _5C	      =	$5C
    247  8400 ????
    248  8400 ????	       00 5a	   _5A	      =	$5A
    249  8400 ????
    250  8400 ????	       00 58	   _58	      =	$58
    251  8400 ????
    252  8400 ????	       00 56	   _56	      =	$56
    253  8400 ????
    254  8400 ????	       00 54	   _54	      =	$54
    255  8400 ????
    256  8400 ????	       00 52	   _52	      =	$52
    257  8400 ????
    258  8400 ????	       00 50	   _50	      =	$50
    259  8400 ????
    260  8400 ????	       00 4e	   _4E	      =	$4E
    261  8400 ????
    262  8400 ????	       00 4c	   _4C	      =	$4C
    263  8400 ????
    264  8400 ????	       00 4a	   _4A	      =	$4A
    265  8400 ????
    266  8400 ????	       00 48	   _48	      =	$48
    267  8400 ????
    268  8400 ????	       00 46	   _46	      =	$46
    269  8400 ????
    270  8400 ????	       00 44	   _44	      =	$44
    271  8400 ????
    272  8400 ????	       00 42	   _42	      =	$42
    273  8400 ????
    274  8400 ????	       00 40	   _40	      =	$40
    275  8400 ????
    276  8400 ????	       00 3e	   _3E	      =	$3E
    277  8400 ????
    278  8400 ????	       00 3c	   _3C	      =	$3C
    279  8400 ????
    280  8400 ????	       00 3a	   _3A	      =	$3A
    281  8400 ????
    282  8400 ????	       00 38	   _38	      =	$38
    283  8400 ????
    284  8400 ????	       00 36	   _36	      =	$36
    285  8400 ????
    286  8400 ????	       00 34	   _34	      =	$34
    287  8400 ????
    288  8400 ????	       00 32	   _32	      =	$32
    289  8400 ????
    290  8400 ????	       00 30	   _30	      =	$30
    291  8400 ????
    292  8400 ????	       00 2e	   _2E	      =	$2E
    293  8400 ????
    294  8400 ????	       00 2c	   _2C	      =	$2C
    295  8400 ????
    296  8400 ????	       00 2a	   _2A	      =	$2A
    297  8400 ????
    298  8400 ????	       00 28	   _28	      =	$28
    299  8400 ????
    300  8400 ????	       00 26	   _26	      =	$26
    301  8400 ????
    302  8400 ????	       00 24	   _24	      =	$24
    303  8400 ????
    304  8400 ????	       00 22	   _22	      =	$22
    305  8400 ????
    306  8400 ????	       00 20	   _20	      =	$20
    307  8400 ????
    308  8400 ????	       00 1e	   _1E	      =	$1E
    309  8400 ????
    310  8400 ????	       00 1c	   _1C	      =	$1C
    311  8400 ????
    312  8400 ????	       00 1a	   _1A	      =	$1A
    313  8400 ????
    314  8400 ????	       00 18	   _18	      =	$18
    315  8400 ????
    316  8400 ????	       00 16	   _16	      =	$16
    317  8400 ????
    318  8400 ????	       00 14	   _14	      =	$14
    319  8400 ????
    320  8400 ????	       00 12	   _12	      =	$12
    321  8400 ????
    322  8400 ????	       00 10	   _10	      =	$10
    323  8400 ????
    324  8400 ????	       00 0e	   _0E	      =	$0E
    325  8400 ????
    326  8400 ????	       00 0c	   _0C	      =	$0C
    327  8400 ????
    328  8400 ????	       00 0a	   _0A	      =	$0A
    329  8400 ????
    330  8400 ????	       00 08	   _08	      =	$08
    331  8400 ????
    332  8400 ????	       00 06	   _06	      =	$06
    333  8400 ????
    334  8400 ????	       00 04	   _04	      =	$04
    335  8400 ????
    336  8400 ????	       00 02	   _02	      =	$02
    337  8400 ????
    338  8400 ????	       00 00	   _00	      =	$00
    339  8400 ????
    340  8400 ????	       00 05	   font       =	retroputer
    341  8400 ????
    342  8400 ????	       00 2b	   vblank_time =	43
    343  8400 ????	       00 25	   overscan_time =	37
    344  8400 ????	       00 07	   bs_mask    =	7
    345  8400 ????	       00 1c	   bankswitch =	28
    346  8400 ????	       1f f6	   bankswitch_hotspot =	$1FF6
    347  8400 ????	       00 02	   multisprite =	2
------- FILE c:\Users\roger\OneDrive\Documents\Atari\BrawdyBAS\brawdy.bas.asm
      9  0400					      ORG	$400
     10  0400					      RORG	$0
     11  0400					      incbin	DPCplus.arm
     12  1000					      ORG	$1000
     13  1000					      RORG	$1000
     14  1000					      incbin	custom/bin/custom2.bin
     15  1894							; assume custom2.bin > 128 bytes
     16  1894							; repeat $80
     17  1894							; .byte 0
     18  1894							; repend
     19  1894							;This is a modified BB kernel by Omegamatrix
     20  1894							;last updated Nov 7, 2014
     21  1894							;
     22  1894							;
     23  1894							; This .asm file is meant to be used with the modified DPCplus_kernel.asm file that Omegamatrix made.
     24  1894							; It has an extra six digits which can be used by the DPC+ kernel.
     25  1894							; The changes to this score_graphics.asm should not affect regular BB game.
     26  1894
     27  1894
     28  1894
     29  1894							; feel free to modify the score graphics - just keep each digit 8 high
     30  1894							; and keep the conditional compilation stuff intact
     31  1894				  -	      ifconst	ROM2k
     32  1894				  -	      ORG	$F7AC-8
     33  1894					      else
     34  1894					      ifconst	bankswitch
     35  1894				  -	      if	bankswitch == 8
     36  1894				  -	      ORG	$2F94-bscode_length
     37  1894				  -	      RORG	$FF94-bscode_length
     38  1894					      endif
     39  1894				  -	      if	bankswitch == 16
     40  1894				  -	      ORG	$4F94-bscode_length
     41  1894				  -	      RORG	$FF94-bscode_length
     42  1894					      endif
     43  1894				  -	      if	bankswitch == 32
     44  1894				  -	      ORG	$8F94-bscode_length
     45  1894				  -	      RORG	$FF94-bscode_length
     46  1894					      endif
     47  1894				  -	      if	bankswitch == 64
     48  1894				  -	      ORG	$10F80-bscode_length
     49  1894				  -	      RORG	$1FF80-bscode_length
     50  1894					      endif
     51  1894				  -	      else
     52  1894				  -	      ORG	$FF9C
     53  1894					      endif
     54  1894					      endif
     55  1894
     56  1894							; font equates
     57  1894		       00 01	   .21stcentury =	1
     58  1894		       00 02	   alarmclock =	2
     59  1894		       00 03	   handwritten =	3
     60  1894		       00 04	   interrupted =	4
     61  1894		       00 05	   retroputer =	5
     62  1894		       00 06	   whimsey    =	6
     63  1894		       00 07	   tiny       =	7
     64  1894
     65  1894				   scoretable
     66  1894
     67  1894					      ifconst	font
     68  1894				  -	      if	font == .21stcentury
     69  1894				  -	      include	"score_graphics.asm.21stcentury"
     70  1894					      endif
     71  1894				  -	      if	font == alarmclock
     72  1894				  -	      include	"score_graphics.asm.alarmclock"
     73  1894					      endif
     74  1894				  -	      if	font == handwritten
     75  1894				  -	      include	"score_graphics.asm.handwritten"
     76  1894					      endif
     77  1894				  -	      if	font == interrupted
     78  1894				  -	      include	"score_graphics.asm.interrupted"
     79  1894					      endif
     80  1894					      if	font == retroputer
------- FILE score_graphics.asm.retroputer LEVEL 2 PASS 4
      0  1894					      include	"score_graphics.asm.retroputer"
      1  1894							; Provided under the CC0 license. See the included LICENSE.txt for details.
      2  1894
      3  1894		       7e		      .byte.b	%01111110
      4  1895		       46		      .byte.b	%01000110
      5  1896		       46		      .byte.b	%01000110
      6  1897		       46		      .byte.b	%01000110
      7  1898		       62		      .byte.b	%01100010
      8  1899		       62		      .byte.b	%01100010
      9  189a		       62		      .byte.b	%01100010
     10  189b		       7e		      .byte.b	%01111110
     11  189c
     12  189c		       38		      .byte.b	%00111000
     13  189d		       38		      .byte.b	%00111000
     14  189e		       38		      .byte.b	%00111000
     15  189f		       38		      .byte.b	%00111000
     16  18a0		       18		      .byte.b	%00011000
     17  18a1		       18		      .byte.b	%00011000
     18  18a2		       18		      .byte.b	%00011000
     19  18a3		       18		      .byte.b	%00011000
     20  18a4
     21  18a4		       7e		      .byte.b	%01111110
     22  18a5		       60		      .byte.b	%01100000
     23  18a6		       60		      .byte.b	%01100000
     24  18a7		       60		      .byte.b	%01100000
     25  18a8		       3e		      .byte.b	%00111110
     26  18a9		       02		      .byte.b	%00000010
     27  18aa		       42		      .byte.b	%01000010
     28  18ab		       7e		      .byte.b	%01111110
     29  18ac
     30  18ac		       7e		      .byte.b	%01111110
     31  18ad		       46		      .byte.b	%01000110
     32  18ae		       06		      .byte.b	%00000110
     33  18af		       06		      .byte.b	%00000110
     34  18b0		       3e		      .byte.b	%00111110
     35  18b1		       02		      .byte.b	%00000010
     36  18b2		       42		      .byte.b	%01000010
     37  18b3		       7e		      .byte.b	%01111110
     38  18b4
     39  18b4		       0c		      .byte.b	%00001100
     40  18b5		       0c		      .byte.b	%00001100
     41  18b6		       0c		      .byte.b	%00001100
     42  18b7		       7e		      .byte.b	%01111110
     43  18b8		       44		      .byte.b	%01000100
     44  18b9		       44		      .byte.b	%01000100
     45  18ba		       44		      .byte.b	%01000100
     46  18bb		       04		      .byte.b	%00000100
     47  18bc
     48  18bc		       7e		      .byte.b	%01111110
     49  18bd		       46		      .byte.b	%01000110
     50  18be		       06		      .byte.b	%00000110
     51  18bf		       06		      .byte.b	%00000110
     52  18c0		       7c		      .byte.b	%01111100
     53  18c1		       40		      .byte.b	%01000000
     54  18c2		       40		      .byte.b	%01000000
     55  18c3		       7e		      .byte.b	%01111110
     56  18c4
     57  18c4		       7e		      .byte.b	%01111110
     58  18c5		       46		      .byte.b	%01000110
     59  18c6		       46		      .byte.b	%01000110
     60  18c7		       46		      .byte.b	%01000110
     61  18c8		       7c		      .byte.b	%01111100
     62  18c9		       40		      .byte.b	%01000000
     63  18ca		       42		      .byte.b	%01000010
     64  18cb		       7e		      .byte.b	%01111110
     65  18cc
     66  18cc		       0c		      .byte.b	%00001100
     67  18cd		       0c		      .byte.b	%00001100
     68  18ce		       0c		      .byte.b	%00001100
     69  18cf		       0c		      .byte.b	%00001100
     70  18d0		       04		      .byte.b	%00000100
     71  18d1		       02		      .byte.b	%00000010
     72  18d2		       42		      .byte.b	%01000010
     73  18d3		       7e		      .byte.b	%01111110
     74  18d4
     75  18d4		       7e		      .byte.b	%01111110
     76  18d5		       46		      .byte.b	%01000110
     77  18d6		       46		      .byte.b	%01000110
     78  18d7		       46		      .byte.b	%01000110
     79  18d8		       7e		      .byte.b	%01111110
     80  18d9		       42		      .byte.b	%01000010
     81  18da		       42		      .byte.b	%01000010
     82  18db		       7e		      .byte.b	%01111110
     83  18dc
     84  18dc		       06		      .byte.b	%00000110
     85  18dd		       06		      .byte.b	%00000110
     86  18de		       06		      .byte.b	%00000110
     87  18df		       02		      .byte.b	%00000010
     88  18e0		       7e		      .byte.b	%01111110
     89  18e1		       42		      .byte.b	%01000010
     90  18e2		       42		      .byte.b	%01000010
     91  18e3		       7e		      .byte.b	%01111110
     92  18e4
     93  18e4				  -	      ifnconst	DPC_kernel_options
     94  18e4				  -
     95  18e4				  -	      .byte	%00000000
     96  18e4				  -	      .byte	%00000000
     97  18e4				  -	      .byte	%00000000
     98  18e4				  -	      .byte	%00000000
     99  18e4				  -	      .byte	%00000000
    100  18e4				  -	      .byte	%00000000
    101  18e4				  -	      .byte	%00000000
    102  18e4				  -	      .byte	%00000000
    103  18e4				  -
    104  18e4					      endif
------- FILE c:\Users\roger\OneDrive\Documents\Atari\BrawdyBAS\brawdy.bas.asm
     82  18e4					      endif
     83  18e4				  -	      if	font == whimsey
     84  18e4				  -	      include	"score_graphics.asm.whimsey"
     85  18e4					      endif
     86  18e4				  -	      if	font == tiny
     87  18e4				  -	      include	"score_graphics.asm.tiny"
     88  18e4					      endif
     89  18e4				  -	      else		; default font
     90  18e4				  -
     91  18e4				  -	      .byte	%00111100	; |  XXXX  |
     92  18e4				  -	      .byte	%01100110	; | XX  XX |
     93  18e4				  -	      .byte	%01100110	; | XX  XX |
     94  18e4				  -	      .byte	%01100110	; | XX  XX |
     95  18e4				  -	      .byte	%01100110	; | XX  XX |
     96  18e4				  -	      .byte	%01100110	; | XX  XX |
     97  18e4				  -	      .byte	%01100110	; | XX  XX |
     98  18e4				  -	      .byte	%00111100	; |  XXXX  |
     99  18e4				  -
    100  18e4				  -	      .byte	%01111110	; | XXXXXX |
    101  18e4				  -	      .byte	%00011000	; |   XX   |
    102  18e4				  -	      .byte	%00011000	; |   XX   |
    103  18e4				  -	      .byte	%00011000	; |   XX   |
    104  18e4				  -	      .byte	%00011000	; |   XX   |
    105  18e4				  -	      .byte	%00111000	; |  XXX   |
    106  18e4				  -	      .byte	%00011000	; |   XX   |
    107  18e4				  -	      .byte	%00001000	; |	X   |
    108  18e4				  -
    109  18e4				  -	      .byte	%01111110	; | XXXXXX |
    110  18e4				  -	      .byte	%01100000	; | XX     |
    111  18e4				  -	      .byte	%01100000	; | XX     |
    112  18e4				  -	      .byte	%00111100	; |  XXXX  |
    113  18e4				  -	      .byte	%00000110	; |	 XX |
    114  18e4				  -	      .byte	%00000110	; |	 XX |
    115  18e4				  -	      .byte	%01000110	; | X	 XX |
    116  18e4				  -	      .byte	%00111100	; |  XXXX  |
    117  18e4				  -
    118  18e4				  -	      .byte	%00111100	; |  XXXX  |
    119  18e4				  -	      .byte	%01000110	; | X	 XX |
    120  18e4				  -	      .byte	%00000110	; |	 XX |
    121  18e4				  -	      .byte	%00000110	; |	 XX |
    122  18e4				  -	      .byte	%00011100	; |   XXX  |
    123  18e4				  -	      .byte	%00000110	; |	 XX |
    124  18e4				  -	      .byte	%01000110	; | X	 XX |
    125  18e4				  -	      .byte	%00111100	; |  XXXX  |
    126  18e4				  -
    127  18e4				  -	      .byte	%00001100	; |	XX  |
    128  18e4				  -	      .byte	%00001100	; |	XX  |
    129  18e4				  -	      .byte	%01111110	; | XXXXXX |
    130  18e4				  -	      .byte	%01001100	; | X	XX  |
    131  18e4				  -	      .byte	%01001100	; | X	XX  |
    132  18e4				  -	      .byte	%00101100	; |  X XX  |
    133  18e4				  -	      .byte	%00011100	; |   XXX  |
    134  18e4				  -	      .byte	%00001100	; |	XX  |
    135  18e4				  -
    136  18e4				  -	      .byte	%00111100	; |  XXXX  |
    137  18e4				  -	      .byte	%01000110	; | X	 XX |
    138  18e4				  -	      .byte	%00000110	; |	 XX |
    139  18e4				  -	      .byte	%00000110	; |	 XX |
    140  18e4				  -	      .byte	%00111100	; |  XXXX  |
    141  18e4				  -	      .byte	%01100000	; | XX     |
    142  18e4				  -	      .byte	%01100000	; | XX     |
    143  18e4				  -	      .byte	%01111110	; | XXXXXX |
    144  18e4				  -
    145  18e4				  -	      .byte	%00111100	; |  XXXX  |
    146  18e4				  -	      .byte	%01100110	; | XX  XX |
    147  18e4				  -	      .byte	%01100110	; | XX  XX |
    148  18e4				  -	      .byte	%01100110	; | XX  XX |
    149  18e4				  -	      .byte	%01111100	; | XXXXX  |
    150  18e4				  -	      .byte	%01100000	; | XX     |
    151  18e4				  -	      .byte	%01100010	; | XX   X |
    152  18e4				  -	      .byte	%00111100	; |  XXXX  |
    153  18e4				  -
    154  18e4				  -	      .byte	%00110000	; |  XX    |
    155  18e4				  -	      .byte	%00110000	; |  XX    |
    156  18e4				  -	      .byte	%00110000	; |  XX    |
    157  18e4				  -	      .byte	%00011000	; |   XX   |
    158  18e4				  -	      .byte	%00001100	; |	XX  |
    159  18e4				  -	      .byte	%00000110	; |	 XX |
    160  18e4				  -	      .byte	%01000010	; | X	  X |
    161  18e4				  -	      .byte	%00111110	; |  XXXXX |
    162  18e4				  -
    163  18e4				  -	      .byte	%00111100	; |  XXXX  |
    164  18e4				  -	      .byte	%01100110	; | XX  XX |
    165  18e4				  -	      .byte	%01100110	; | XX  XX |
    166  18e4				  -	      .byte	%01100110	; | XX  XX |
    167  18e4				  -	      .byte	%00111100	; |  XXXX  |
    168  18e4				  -	      .byte	%01100110	; | XX  XX |
    169  18e4				  -	      .byte	%01100110	; | XX  XX |
    170  18e4				  -	      .byte	%00111100	; |  XXXX  |
    171  18e4				  -
    172  18e4				  -	      .byte	%00111100	; |  XXXX  |
    173  18e4				  -	      .byte	%01000110	; | X	 XX |
    174  18e4				  -	      .byte	%00000110	; |	 XX |
    175  18e4				  -	      .byte	%00111110	; |  XXXXX |
    176  18e4				  -	      .byte	%01100110	; | XX  XX |
    177  18e4				  -	      .byte	%01100110	; | XX  XX |
    178  18e4				  -	      .byte	%01100110	; | XX  XX |
    179  18e4				  -	      .byte	%00111100	; |  XXXX  |
    180  18e4				  -
    181  18e4				  -
    182  18e4				  -	      ifnconst	DPC_EXTRA_DIGITS
    183  18e4				  -
    184  18e4				  -	      .byte	%00000000	; |	    |
    185  18e4				  -	      .byte	%00000000	; |	    |
    186  18e4				  -	      .byte	%00000000	; |	    |
    187  18e4				  -	      .byte	%00000000	; |	    |
    188  18e4				  -	      .byte	%00000000	; |	    |
    189  18e4				  -	      .byte	%00000000	; |	    |
    190  18e4				  -	      .byte	%00000000	; |	    |
    191  18e4				  -	      .byte	%00000000	; |	    |
    192  18e4				  -
    193  18e4				  -	      else
    194  18e4				  -	      .byte	%01100110	; | XX  XX |
    195  18e4				  -	      .byte	%01100110	; | XX  XX |
    196  18e4				  -	      .byte	%01100110	; | XX  XX |
    197  18e4				  -	      .byte	%01100110	; | XX  XX |
    198  18e4				  -	      .byte	%01111110	; | XXXXXX |
    199  18e4				  -	      .byte	%01100110	; | XX  XX |
    200  18e4				  -	      .byte	%00100100	; |  X  X  |
    201  18e4				  -	      .byte	%00011000	; |   XX   |
    202  18e4				  -
    203  18e4				  -	      .byte	%01111100	; | XXXXX  |
    204  18e4				  -	      .byte	%01100110	; | XX  XX |
    205  18e4				  -	      .byte	%01100110	; | XX  XX |
    206  18e4				  -	      .byte	%01100110	; | XX  XX |
    207  18e4				  -	      .byte	%01111100	; | XXXXX  |
    208  18e4				  -	      .byte	%01100110	; | XX  XX |
    209  18e4				  -	      .byte	%01100110	; | XX  XX |
    210  18e4				  -	      .byte	%01111100	; | XXXXX  |
    211  18e4				  -
    212  18e4				  -	      .byte	%00111100	; |  XXXX  |
    213  18e4				  -	      .byte	%01100110	; | XX  XX |
    214  18e4				  -	      .byte	%01100000	; | XX     |
    215  18e4				  -	      .byte	%01100000	; | XX     |
    216  18e4				  -	      .byte	%01100000	; | XX     |
    217  18e4				  -	      .byte	%01100000	; | XX     |
    218  18e4				  -	      .byte	%01100110	; | XX  XX |
    219  18e4				  -	      .byte	%00111100	; |  XXXX  |
    220  18e4				  -
    221  18e4				  -	      .byte	%01111000	; | XXXX   |
    222  18e4				  -	      .byte	%01101100	; | XX XX  |
    223  18e4				  -	      .byte	%01100110	; | XX  XX |
    224  18e4				  -	      .byte	%01100110	; | XX  XX |
    225  18e4				  -	      .byte	%01100110	; | XX  XX |
    226  18e4				  -	      .byte	%01100110	; | XX  XX |
    227  18e4				  -	      .byte	%01101100	; | XX XX  |
    228  18e4				  -	      .byte	%01111000	; | XXXX   |
    229  18e4				  -
    230  18e4				  -	      .byte	%01111110	; | XXXXXX |
    231  18e4				  -	      .byte	%01100000	; | XX     |
    232  18e4				  -	      .byte	%01100000	; | XX     |
    233  18e4				  -	      .byte	%01100000	; | XX     |
    234  18e4				  -	      .byte	%01111100	; | XXXXX  |
    235  18e4				  -	      .byte	%01100000	; | XX     |
    236  18e4				  -	      .byte	%01100000	; | XX     |
    237  18e4				  -	      .byte	%01111110	; | XXXXXX |
    238  18e4				  -
    239  18e4				  -	      .byte	%01100000	; | XX     |
    240  18e4				  -	      .byte	%01100000	; | XX     |
    241  18e4				  -	      .byte	%01100000	; | XX     |
    242  18e4				  -	      .byte	%01100000	; | XX     |
    243  18e4				  -	      .byte	%01111100	; | XXXXX  |
    244  18e4				  -	      .byte	%01100000	; | XX     |
    245  18e4				  -	      .byte	%01100000	; | XX     |
    246  18e4				  -	      .byte	%01111110	; | XXXXXX |
    247  18e4				  -
    248  18e4				  -	      endif
    249  18e4				  -
    250  18e4					      endif
    251  18e4
    252  18e4				  -	      ifconst	ROM2k
    253  18e4				  -	      ORG	$F7FC
    254  18e4					      else
    255  18e4					      ifconst	bankswitch
    256  18e4				  -	      if	bankswitch == 8
    257  18e4				  -	      ORG	$2FF4-bscode_length
    258  18e4				  -	      RORG	$FFF4-bscode_length
    259  18e4					      endif
    260  18e4				  -	      if	bankswitch == 16
    261  18e4				  -	      ORG	$4FF4-bscode_length
    262  18e4				  -	      RORG	$FFF4-bscode_length
    263  18e4					      endif
    264  18e4				  -	      if	bankswitch == 32
    265  18e4				  -	      ORG	$8FF4-bscode_length
    266  18e4				  -	      RORG	$FFF4-bscode_length
    267  18e4					      endif
    268  18e4				  -	      if	bankswitch == 64
    269  18e4				  -	      ORG	$10FE0-bscode_length
    270  18e4				  -	      RORG	$1FFE0-bscode_length
    271  18e4					      endif
    272  18e4				  -	      else
    273  18e4				  -	      ORG	$FFFC
    274  18e4					      endif
    275  18e4					      endif
    276  18e4							; Provided under the CC0 license. See the included LICENSE.txt for details.
    277  18e4
    278  18e4				   start
    279  18e4		       78		      sei
    280  18e5		       d8		      cld
    281  18e6		       a0 00		      ldy	#0
    282  18e8		       a5 d0		      lda	$D0
    283  18ea		       c9 2c		      cmp	#$2C	;check RAM location #1
    284  18ec		       d0 07		      bne	MachineIs2600
    285  18ee		       a5 d1		      lda	$D1
    286  18f0		       c9 a9		      cmp	#$A9	;check RAM location #2
    287  18f2		       d0 01		      bne	MachineIs2600
    288  18f4		       88		      dey
    289  18f5				   MachineIs2600
    290  18f5		       a2 00		      ldx	#0
    291  18f7		       8a		      txa
    292  18f8				   clearmem
    293  18f8		       e8		      inx
    294  18f9		       9a		      txs
    295  18fa		       48		      pha
    296  18fb		       d0 fb		      bne	clearmem
    297  18fd		       84 cb		      sty	temp1
    298  18ff		       a2 08		      ldx	#8
    299  1901		       86 ca		      stx	playfieldpos
    300  1903		       8e 58 10 	      stx	FASTFETCH
    301  1906		       a2 08		      ldx	#8
    302  1908		       a9 e0		      lda	#224
    303  190a				   inityloop
    304  190a		       95 9a		      sta	player1y,x
    305  190c		       ca		      dex
    306  190d		       10 fb		      bpl	inityloop
    307  190f
    308  190f		       a9 01		      lda	#1
    309  1911		       85 0a		      sta	CTRLPF
    310  1913		       ad 84 02 	      lda	INTIM
    311  1916		       8d 71 10 	      sta	RWRITE0
    312  1919		       a9 00		      lda	#0
    313  191b		       8d 38 10 	      STA	DF0FRACINC
    314  191e		       8d 39 10 	      STA	DF1FRACINC
    315  1921		       8d 3a 10 	      STA	DF2FRACINC
    316  1924		       8d 3b 10 	      STA	DF3FRACINC
    317  1927		       8d 3c 10 	      STA	DF4FRACINC
    318  192a		       8d 3e 10 	      STA	DF6FRACINC
    319  192d		       a9 a5		      lda	#<USERSTACK
    320  192f		       8d 57 10 	      STA	DF7LOW
    321  1932		       a9 0d		      lda	#(>USERSTACK) & $0F
    322  1934		       8d 6f 10 	      STA	DF7HI
    323  1937		       a9 ff		      lda	#255
    324  1939		       8d 5a 10 	      sta	CALLFUNCTION	; zero-fill fetcher
    325  193c
    326  193c		       a9 1f		      lda	#>(game-1)
    327  193e		       48		      pha
    328  193f		       a9 c0		      lda	#<(game-1)
    329  1941		       48		      pha
    330  1942		       48		      pha
    331  1943		       48		      pha
    332  1944		       a2 01		      ldx	#1
    333  1946		       4c ee df 	      jmp	BS_jsr
    334  1949							;This is a modified BB kernel by Omegamatrix
    335  1949							;last updated Nov 7, 2014 (Ver 10)
    336  1949							;
    337  1949							;This version has a split score, two digits on the left and four on the right. Just use the "const splitscore_2_4 = 1" to have a split score.
    338  1949							; - pfscore is gone for split score, but there are cycle left in the kernel to re-introduce it in the middle use PF2 and a reflected PF.
    339  1949							;   This would also involve modifying BB in other places (I think)
    340  1949
    341  1949
    342  1949		       00 01	   BIT_0      =	(1 << 0)
    343  1949		       00 02	   BIT_1      =	(1 << 1)
    344  1949		       00 04	   BIT_2      =	(1 << 2)
    345  1949		       00 08	   BIT_3      =	(1 << 3)
    346  1949		       00 10	   BIT_4      =	(1 << 4)
    347  1949		       00 20	   BIT_5      =	(1 << 5)
    348  1949		       00 40	   BIT_6      =	(1 << 6)
    349  1949		       00 80	   BIT_7      =	(1 << 7)
    350  1949
    351  1949							;73/74 cycle HMxx
    352  1949		       00 70	   LEFT74_15  =	$70
    353  1949		       00 60	   LEFT74_14  =	$60
    354  1949		       00 50	   LEFT74_13  =	$50
    355  1949		       00 40	   LEFT74_12  =	$40
    356  1949		       00 30	   LEFT74_11  =	$30
    357  1949		       00 20	   LEFT74_10  =	$20
    358  1949		       00 10	   LEFT74_9   =	$10
    359  1949		       00 00	   LEFT74_8   =	$00
    360  1949		       00 f0	   LEFT74_7   =	$F0
    361  1949		       00 e0	   LEFT74_6   =	$E0
    362  1949		       00 d0	   LEFT74_5   =	$D0
    363  1949		       00 c0	   LEFT74_4   =	$C0
    364  1949		       00 b0	   LEFT74_3   =	$B0
    365  1949		       00 a0	   LEFT74_2   =	$A0
    366  1949		       00 90	   LEFT74_1   =	$90
    367  1949		       00 80	   NO_MO_74   =	$80
    368  1949
    369  1949							;spit out some error messages and break the compile if the user hasn't set up the split score kernel.
    370  1949							;do this only on the second pass...
    371  1949					      IF	DASM_2ND_PASS
    372  1949				  -	      IFCONST	splitscore_2_4
    373  1949				  -	      IFNCONST	splitKernelVar
    374  1949				  -	      ECHO	"Error: Please Dim splitKernelVar = my_Var_Name to use the split score kernel"
    375  1949				  -	      err
    376  1949				  -	      ENDIF
    377  1949				  -	      IFNCONST	SPLIT_KERN_BIT
    378  1949				  -	      ECHO	"Error: Please const SPLIT_KERN_BIT = BIT_x to use the split score kernel"
    379  1949				  -	      ECHO	"	 You can use 'BIT_0' to 'BIT_7'. for the bit."
    380  1949				  -	      err
    381  1949				  -	      ENDIF
    382  1949					      ENDIF
    383  1949					      ENDIF
    384  1949		       00 01	   DASM_2ND_PASS =	1
    385  1949
    386  1949							;========================================================
    387  1949
    388  1949				  -	      IFCONST	vblank_bB_code
    389  1949				  -ORG_OFFSET_A =	0
    390  1949					      ELSE
    391  1949		       00 03	   ORG_OFFSET_A =	3
    392  1949					      ENDIF
    393  1949					      IFCONST	DPC_kernel_options
    394  1949		       00 00	   ORG_OFFSET_B =	0
    395  1949				  -	      ELSE
    396  1949				  -ORG_OFFSET_B =	7
    397  1949					      ENDIF
    398  1949				  -	      IFCONST	minikernel
    399  1949				  -ORG_OFFSET_C =	0
    400  1949					      ELSE
    401  1949		       00 0c	   ORG_OFFSET_C =	12
    402  1949					      ENDIF
    403  1949					      IFCONST	pfscore
    404  1949		       00 00	   ORG_OFFSET_D =	0
    405  1949				  -	      ELSE
    406  1949				  -ORG_OFFSET_D =	6
    407  1949					      ENDIF
    408  1949				  -	      IFCONST	noscore
    409  1949				  -ORG_OFFSET_E =	0
    410  1949					      ELSE
    411  1949		       00 01	   ORG_OFFSET_E =	1
    412  1949					      ENDIF
    413  1949				  -	      IFCONST	splitscore_2_4
    414  1949				  -ORG_OFFSET_F =	0
    415  1949					      ELSE
    416  1949		       00 09	   ORG_OFFSET_F =	9
    417  1949					      ENDIF
    418  1949
    419  1949		       00 19	   TOTAL_OFFSET =	ORG_OFFSET_A + ORG_OFFSET_B + ORG_OFFSET_C + ORG_OFFSET_D + ORG_OFFSET_E + ORG_OFFSET_F
    420  1949
    421  1949							;Stella is tripping up here when we take away the -1,
    422  1949							;It breaks in kernel3 when 'JMP JoinKernel4' is taken. The absolute address of the jump is $1BA9,
    423  1949							;and I think it is the $A9 that is causing Stella the problem...
    424  1949
    425  1949		       19 7e	   DPC_DRAWSCREEN_BASE =	$197F-1
    426  1949
    427  1949		       19 97	   DPC_DRAWSCREEN_ORIGIN =	DPC_DRAWSCREEN_BASE + TOTAL_OFFSET
    428  1949		       19 97	   DPC_DRAWSCREEN_RORIGIN =	DPC_DRAWSCREEN_BASE + TOTAL_OFFSET
    429  1949
    430  1949
    431  1949					      IF	ECHO_DPC_BANK__1
      78 bytes free between score graphics end and drawscreen start ( $1949 - $1997 ).
    432  1949					      ECHO	"    ",[(DPC_DRAWSCREEN_ORIGIN - *)]d , "bytes free between score graphics end and drawscreen start (", *, "-", DPC_DRAWSCREEN_ORIGIN, ")."
    433  1949					      ENDIF
    434  1949		       00 01	   ECHO_DPC_BANK__1 =	1
    435  1949
    436  1949
    437  1997					      ORG	DPC_DRAWSCREEN_ORIGIN
    438  1997					      RORG	DPC_DRAWSCREEN_RORIGIN
    439  1997
    440  1997				   drawscreen
    441  1997
    442  1997				   waitOverscan
    443  1997		       ad 84 02 	      lda	INTIM
    444  199a		       30 fb		      bmi	waitOverscan
    445  199c
    446  199c		       a2 a9		      ldx	#169	; Omega - this time should be made a constant
    447  199e
    448  199e		       a9 0e		      lda	#$0E	; do 3 lines of Vsync
    449  19a0				   loopVsync
    450  19a0		       85 02		      sta	WSYNC
    451  19a2							;---------------------------------------
    452  19a2		       85 00		      sta	VSYNC
    453  19a4		       4a		      lsr
    454  19a5		       8e 96 02 	      stx	TIM64T	; stores on the exact same cycle as before...
    455  19a8		       d0 f6		      bne	loopVsync
    456  19aa
    457  19aa
    458  19aa		       85 2c		      sta	CXCLR	; A=0
    459  19ac		       85 09		      sta	COLUBK	; REVENG - don't start with the lastline color
    460  19ae
    461  19ae							; run possible vblank bB code
    462  19ae				  -	      IFCONST	vblank_bB_code
    463  19ae				  -	      jsr	vblank_bB_code
    464  19ae					      ENDIF
    465  19ae							; adjust for pfpos?
    466  19ae
    467  19ae							; set zero to properly enter C code
    468  19ae		       a9 a4		      lda	#<C_function
    469  19b0		       8d 50 10 	      sta	DF0LOW
    470  19b3		       a9 01		      lda	#(>C_function) & $0F
    471  19b5		       8d 68 10 	      sta	DF0HI
    472  19b8		       a9 00		      lda	#0
    473  19ba		       8d 78 10 	      sta	DF0WRITE
    474  19bd							; REVENG - pass the number of vsprites we want...
    475  19bd					      IFNCONST	dpcspritemax
    476  19bd		       a9 09		      lda	#9
    477  19bf				  -	      ELSE
    478  19bf				  -	      lda	#dpcspritemax
    479  19bf					      ENDIF
    480  19bf		       8d 78 10 	      sta	DF0WRITE
    481  19c2
    482  19c2		       a5 80		      lda	player0x
    483  19c4		       85 8f		      sta	player0xcoll	; detect p0x colls
    484  19c6
    485  19c6							; copy RAM to fetcher for C-code
    486  19c6		       a9 e2		      lda	#<(CcodeData + RAMcopylength)
    487  19c8		       8d 50 10 	      sta	DF0LOW
    488  19cb		       a9 01		      lda	#(>(CcodeData + RAMcopylength)) & $0F
    489  19cd		       8d 68 10 	      sta	DF0HI
    490  19d0		       a2 39		      ldx	#RAMcopylength-1
    491  19d2
    492  19d2				   copy2fetcherloop
    493  19d2		       b5 85		      lda	RAMcopybegin,X
    494  19d4		       8d 60 10 	      sta	DF0PUSH
    495  19d7		       ca		      dex
    496  19d8		       10 f8		      bpl	copy2fetcherloop
    497  19da
    498  19da		       8e 5a 10 	      stx	CALLFUNCTION	; X=$FF
    499  19dd							; copy modified data back (just need first 6 bytes, which is sprite sort data)
    500  19dd		       a2 ed		      ldx	#256-19
    501  19df				   copyfromfetcherloop
    502  19df		       ad 08 10 	      lda	DF0DATA
    503  19e2		       95 98		      sta	RAMcopybegin+19,X
    504  19e4		       e8		      inx
    505  19e5		       30 f8		      bmi	copyfromfetcherloop
    506  19e7
    507  19e7		       20 4f 1d 	      jsr	kernel_setup
    508  19ea		       20 fa 1c 	      jsr	set_fetchers
    509  19ed
    510  19ed		       a2 07		      ldx	#7
    511  19ef				   setloopfrac
    512  19ef		       bd 04 1f 	      lda	dffraclow,X
    513  19f2		       9d 28 10 	      sta	DF0FRACLOW,X
    514  19f5		       bd 0c 1f 	      lda	dffrachi,X
    515  19f8		       9d 30 10 	      sta	DF0FRACHI,X
    516  19fb		       ca		      dex
    517  19fc		       10 f1		      bpl	setloopfrac
    518  19fe
    519  19fe		       8e 3d 10 	      stx	DF5FRACINC	; X=$FF
    520  1a01		       8e 3f 10 	      stx	DF7FRACINC
    521  1a04		       ad 1d 10 	      lda	DF5FRACDATA	; priming read
    522  1a07		       ad 1f 10 	      lda	DF7FRACDATA	; priming read
    523  1a0a
    524  1a0a		       a6 85		      ldx	SpriteGfxIndex
    525  1a0c		       b5 af		      lda	_NUSIZ1,X	; top NUSIZ/REFP
    526  1a0e		       85 05		      sta	NUSIZ1
    527  1a10		       85 0c		      sta	REFP1
    528  1a12							; REVENG - allow P0 to wrap at the top
    529  1a12				   startwrapfix
    530  1a12		       a9 ff		      lda	#255
    531  1a14		       85 cc		      sta	temp2
    532  1a16		       18		      clc
    533  1a17		       a5 99		      lda	player0y
    534  1a19		       65 a5		      adc	player0height
    535  1a1b		       38		      sec
    536  1a1c		       c5 a5		      cmp	player0height
    537  1a1e		       90 04		      bcc	skipwrapfix
    538  1a20		       a9 00		      lda	#0
    539  1a22		       85 cc		      sta	temp2
    540  1a24				   skipwrapfix
    541  1a24
    542  1a24		       38		      sec
    543  1a25		       a9 08		      lda	#<P0GFX
    544  1a27		       e5 99		      sbc	player0y
    545  1a29		       8d 52 10 	      sta	DF2LOW
    546  1a2c		       a9 d4		      lda	#>P0GFX
    547  1a2e		       e5 cc		      sbc	temp2	; sbc #0
    548  1a30		       8d 6a 10 	      sta	DF2HI
    549  1a33		       a9 07		      lda	#<(P0GFX-1)
    550  1a35		       8d 42 10 	      sta	DF2TOP
    551  1a38		       38		      sec
    552  1a39		       65 a5		      adc	player0height
    553  1a3b		       8d 4a 10 	      sta	DF2BOT
    554  1a3e							; REVENG - 1/2 of the COLUM0 fix. the rest is in main.c
    555  1a3e		       a9 08		      lda	#<(P0COLOR)
    556  1a40		       8d 50 10 	      sta	DF0LOW
    557  1a43		       85 cc		      sta	temp2
    558  1a45		       a9 d5		      lda	#>(P0COLOR)
    559  1a47		       8d 68 10 	      sta	DF0HI
    560  1a4a							; ball
    561  1a4a		       a9 07		      lda	#<(P1GFX-1)
    562  1a4c		       18		      clc
    563  1a4d		       65 c1		      adc	bally
    564  1a4f		       8d 43 10 	      sta	DF3TOP
    565  1a52		       38		      sec
    566  1a53		       65 c4		      adc	ballheight
    567  1a55		       8d 4b 10 	      sta	DF3BOT
    568  1a58							; missile0
    569  1a58		       a5 cc		      lda	temp2
    570  1a5a		       18		      clc
    571  1a5b		       65 bf		      adc	missile0y
    572  1a5d		       8d 40 10 	      sta	DF0TOP
    573  1a60		       38		      sec
    574  1a61		       65 c2		      adc	missile0height
    575  1a63		       8d 48 10 	      sta	DF0BOT
    576  1a66
    577  1a66				   waitVblank
    578  1a66		       ac 84 02 	      ldy	INTIM
    579  1a69		       30 fb		      bmi	waitVblank
    580  1a6b
    581  1a6b
    582  1a6b		       85 02		      sta	WSYNC
    583  1a6d							;---------------------------------------
    584  1a6d		       a0 81		      ldy	#NO_MO_74 | 1	;2  @2    $81
    585  1a6f		       84 20		      sty	HMP0	;3  @5
    586  1a71		       84 21		      sty	HMP1	;3  @8
    587  1a73		       84 22		      sty	HMM0	;3  @11
    588  1a75		       84 23		      sty	HMM1	;3  @14
    589  1a77		       84 24		      sty	HMBL	;3  @17
    590  1a79		       a9 d3		      lda	#KERNEL_LINES	;2  @19
    591  1a7b		       8d 96 02 	      sta	TIM64T	;4  @23
    592  1a7e		       84 27		      sty	VDELBL	;3  @26   delay
    593  1a80		       84 25		      sty	VDELP0	;3  @29
    594  1a82
    595  1a82		       ea		      nop		;2  @31   free bytes
    596  1a83		       ea		      nop		;2  @33
    597  1a84
    598  1a84							;missile1
    599  1a84		       a9 07		      lda	#<(P1COLOR-1)	;2  @35
    600  1a86		       18		      clc		;2  @37
    601  1a87		       65 c0		      adc	missile1y	;3  @40
    602  1a89		       8d 41 10 	      sta	DF1TOP	;4  @44
    603  1a8c		       38		      sec		;2  @46
    604  1a8d		       65 c3		      adc	missile1height	;3  @49
    605  1a8f		       8d 49 10 	      sta	DF1BOT	;4  @53
    606  1a92		       a9 00		      lda	#0	;2  @55
    607  1a94		       85 01		      sta	VBLANK	;3  @58
    608  1a96		       8d 58 10 	      sta	FASTFETCH	;4  @62   can no longer use LDA #IMM until fast fetch is turned off again...
    609  1a99
    610  1a99		       a9 12		      lda	#<DF2DATAW	;2  @64   REVENG - added so GRP0 is at TOP
    611  1a9b		       85 1b		      sta	GRP0	;3  @67
    612  1a9d		       a9 18		      lda	#<DF0FRACDATA	;2  @69
    613  1a9f				   storePf1_Loop
    614  1a9f		       85 0e		      sta	PF1	;3  @72   (PF1L)
    615  1aa1
    616  1aa1				   loop
    617  1aa1		       a9 08		      lda	#<DF0DATA	;2  @74
    618  1aa3							;---------------------------------------
    619  1aa3		       85 06		      sta	COLUP0	;3  @1
    620  1aa5
    621  1aa5		       a9 09		      lda	#<DF1DATA	;2  @3
    622  1aa7				   loop2
    623  1aa7		       85 07		      sta	COLUP1	;3  @6
    624  1aa9		       a9 0b		      lda	#<DF3DATA	;2  @8
    625  1aab		       85 1c		      sta	GRP1	;3  @11
    626  1aad		       a9 20		      lda	#<DF0FLAG	;2  @13
    627  1aaf		       85 1d		      sta	ENAM0	;3  @16
    628  1ab1		       a9 1e		      lda	#<DF6FRACDATA	;2  @18
    629  1ab3		       85 09		      sta	COLUBK	;3  @21
    630  1ab5		       a9 1c		      lda	#<DF4FRACDATA	;2  @23
    631  1ab7		       85 08		      sta	COLUPF	;3  @26
    632  1ab9		       a9 19		      lda	#<DF1FRACDATA	;2  @28
    633  1abb		       85 0f		      sta	PF2	;3  @31   (PF2L)
    634  1abd
    635  1abd				   loop3
    636  1abd		       a9 12		      lda	#<DF2DATAW	;2  @33
    637  1abf		       85 1b		      sta	GRP0	;3  @36   (VDEL)
    638  1ac1		       a9 23		      lda	#<DF3FLAG	;2  @38
    639  1ac3		       85 1f		      sta	ENABL	;3  @41   (VDEL)
    640  1ac5		       a2 70		      ldx	#$70	;2  @43   (LEFT74_15) in case we get kernel6...
    641  1ac7		       a9 1a		      lda	#<DF2FRACDATA	;2  @45
    642  1ac9		       85 0f		      sta	PF2	;3  @48
    643  1acb		       84 21		      sty	HMP1	;3  @51   Y=$81, no motion, otherwise Y = whatever is in DF4DATA
    644  1acd		       a9 1b		      lda	#<DF3FRACDATA	;2  @53
    645  1acf		       85 0e		      sta	PF1	;3  @56
    646  1ad1		       a9 0c		      lda	#<DF4DATA	;2  @58
    647  1ad3		       f0 49		      beq	repo	;2 @60/61
    648  1ad5
    649  1ad5				   norepo
    650  1ad5		       a8		      tay		;2  @62
    651  1ad6		       a9 08		      lda	#<DF0DATA	;2  @64
    652  1ad8		       ae 84 02 	      ldx	INTIM	;4  @68   timed for 192 lines
    653  1adb		       f0 5b		      beq	exitkernel	;2 @70/71
    654  1add
    655  1add		       85 2a		      sta	HMOVE	;3  @73
    656  1adf		       85 06		      sta	COLUP0	;3  @76
    657  1ae1							;---------------------------------------
    658  1ae1		       a9 09		      lda	#<DF1DATA	;2  @2
    659  1ae3		       85 07		      sta	COLUP1	;3  @5
    660  1ae5		       a9 0b		      lda	#<DF3DATA	;2  @7
    661  1ae7		       85 1c		      sta	GRP1	;3  @10
    662  1ae9		       a9 21		      lda	#<DF1FLAG	;2  @12
    663  1aeb		       85 1e		      sta	ENAM1	;3  @15
    664  1aed		       a9 18		      lda	#<DF0FRACDATA	;2  @17
    665  1aef		       85 0e		      sta	PF1	;3  @20   (PF1L)
    666  1af1		       a9 19		      lda	#<DF1FRACDATA	;2  @22
    667  1af3		       85 0f		      sta	PF2	;3  @25   (PF2L)
    668  1af5		       a9 12		      lda	#<DF2DATAW	;2  @27
    669  1af7		       85 1b		      sta	GRP0	;3  @30   (VDEL)
    670  1af9		       a9 23		      lda	#<DF3FLAG	;2  @32
    671  1afb		       85 1f		      sta	ENABL	;3  @35   (VDEL)
    672  1afd		       88		      dey		;2  @37
    673  1afe
    674  1afe		       8c 64 10 	      sty	DF4PUSH	;4  @41
    675  1b01		       a0 80		      ldy	#$80	;2  @43    no movement next line
    676  1b03		       a9 1a		      lda	#<DF2FRACDATA	;2  @45
    677  1b05		       85 0f		      sta	PF2	;3  @48
    678  1b07		       84 21		      sty	HMP1	;3  @51
    679  1b09		       a9 1b		      lda	#<DF3FRACDATA	;2  @53
    680  1b0b		       85 0e		      sta	PF1	;3  @56
    681  1b0d
    682  1b0d				  -	      IFNCONST	DPC_kernel_options
    683  1b0d				  -	      sta	PF1	;3  @59    waste 5 cycles, no illegal opcodes... DEC $2E is also an option to save 1 more byte
    684  1b0d				  -	      nop		;2  @61
    685  1b0d					      ELSE
    686  1b0d
    687  1b0d		       24 43		      bit	DPC_kernel_options	;3  @59
    688  1b0f					      IF	(DPC_kernel_options > $3F)
    689  1b0f		       30 07		      bmi	COLfound	;2 @61/62
    690  1b11				  -	      ELSE
    691  1b11				  -	      bpl	COLfound	;2 @61/62
    692  1b11					      ENDIF
    693  1b11
    694  1b11					      ENDIF
    695  1b11		       86 ce		      stx	temp4	;3  @64
    696  1b13				   getbackearly
    697  1b13		       a9 18		      lda	#<DF0FRACDATA	;2  @66
    698  1b15				   goto_StorePF1_Loop
    699  1b15		       4c 9f 5a 	      jmp	storePf1_Loop+$4000	;3  @69   Omega - store PF1 on same cycle as before, and save bytes
    700  1b18
    701  1b18					      IFCONST	DPC_kernel_options
    702  1b18				   COLfound
    703  1b18		       ad 18 10 	      lda	DF0FRACDATA	;4  @66
    704  1b1b		       4c 9f 5a 	      jmp	storePf1_Loop+$4000	;3  @69   Omega - store PF1 on same cycle as before, and save bytes
    705  1b1e					      ENDIF
    706  1b1e
    707  1b1e
    708  1b1e							;@61
    709  1b1e				   repo
    710  1b1e		       ac 1f 10 	      ldy	DF7FRACDATA	;4  @65/66
    711  1b21		       a9 18		      lda	#<DF0FRACDATA	;2  @67/68   preload PF1L for next line
    712  1b23					      IF	((>repo) > (>norepo))
    713  1b23		       85 0e		      sta	PF1	;3  @71
    714  1b25				  -	      ELSE
    715  1b25				  -	      sta.w	PF1	;4  @71      takes an extra cycle if page doesn't wrap, evens out cycles
    716  1b25				  -
    717  1b25				  -			;this echo statement should never be activated, but it is here to tell the user why the code didn't compile...
    718  1b25				  -	      ECHO	"***** THIS CODE WON'T COMPILE UNTIL 'DPC_DRAWSCREEN_ORIGIN' INSIDE DPCplus_kernel.asm GETS CHANGED TO", DPC_DRAWSCREEN_ORIGIN-1
    719  1b25				  -
    720  1b25					      ENDIF
    721  1b25
    722  1b25		       a9 08		      lda	#<DF0DATA	;2  @73
    723  1b27		       85 06		      sta	COLUP0	;3  @76
    724  1b29							;---------------------------------------
    725  1b29		       a9 09		      lda	#<DF1DATA	;2  @2
    726  1b2b		       85 07		      sta	COLUP1	;3  @5
    727  1b2d		       a9 0b		      lda	#<DF3DATA	;2  @7
    728  1b2f		       85 1c		      sta	GRP1	;3  @10
    729  1b31		       a9 21		      lda	#<DF1FLAG	;2  @12
    730  1b33		       85 1e		      sta	ENAM1	;3  @15
    731  1b35							; repos info holds HMMx
    732  1b35		       6c 0d 10 	      jmp	(DF5DATA)	;5  @20   grabs df6/df7=lo/hi
    733  1b38
    734  1b38
    735  1b38							;@71
    736  1b38				   exitkernel
    737  1b38		       20 d3 5d 	      jsr	scorekernel+$4000	;6  @1
    738  1b3b				   exit
    739  1b3b		       a2 ff		      ldx	#255
    740  1b3d		       8e 58 10 	      stx	FASTFETCH
    741  1b40
    742  1b40		       85 02		      sta	WSYNC
    743  1b42							;---------------------------------------
    744  1b42		       a9 02		      lda	#2
    745  1b44		       85 01		      sta	VBLANK
    746  1b46		       a9 a7		      lda	#OVERSCAN_LINES
    747  1b48		       8d 96 02 	      sta	TIM64T
    748  1b4b
    749  1b4b							;     sec
    750  1b4b							;     lda    #KERNEL_LINES
    751  1b4b							;     sbc    temp4
    752  1b4b							;     tax
    753  1b4b							;     lsr
    754  1b4b							;     lsr
    755  1b4b							;     sta    temp3 ; div4
    756  1b4b							;     lsr
    757  1b4b							;     lsr
    758  1b4b							;     sta    temp2 ; div16
    759  1b4b							;     lsr
    760  1b4b							;     sta    temp1 ; div32
    761  1b4b							;     clc
    762  1b4b							;     txa
    763  1b4b							;     adc    temp2
    764  1b4b							;     adc    temp1
    765  1b4b							;     sec
    766  1b4b							;     sbc    temp3
    767  1b4b							;     sta    temp4 ; approx line of first pf coll
    768  1b4b
    769  1b4b
    770  1b4b		       38		      sec		; Omega - refactored above code.
    771  1b4c		       a9 d3		      lda	#KERNEL_LINES
    772  1b4e		       e5 ce		      sbc	temp4
    773  1b50		       85 ce		      sta	temp4
    774  1b52		       4a		      lsr
    775  1b53		       4a		      lsr
    776  1b54		       85 cd		      sta	temp3	; div4
    777  1b56		       4a		      lsr
    778  1b57		       4a		      lsr
    779  1b58		       4a		      lsr
    780  1b59		       85 cc		      sta	temp2	; div32
    781  1b5b		       2a		      rol		; div16 result, and carry clear
    782  1b5c		       65 cc		      adc	temp2
    783  1b5e		       65 ce		      adc	temp4
    784  1b60		       38		      sec
    785  1b61		       e5 cd		      sbc	temp3
    786  1b63		       85 ce		      sta	temp4	; approx line of first pf coll
    787  1b65
      0  1b65					      RETURN
      1  1b65				  -	      ifnconst	bankswitch
      2  1b65				  -	      rts
      3  1b65					      else
      4  1b65		       4c e0 df 	      jmp	BS_return
      5  1b68					      endif
    789  1b68
    790  1b68							; kernels resp1 23/28/33/38/43/48/53/58/63/68/73
    791  1b68
    792  1b68				   kernel1
    793  1b68		       85 11		      sta	RESP1	;3  @23
    794  1b6a		       a9 12		      lda	#<DF2DATAW	;2  @25
    795  1b6c		       85 1b		      sta	GRP0	;3  @28   (VDEL)
    796  1b6e		       a9 23		      lda	#<DF3FLAG	;2  @30
    797  1b70		       85 1f		      sta	ENABL	;3  @33   (VDEL)
    798  1b72		       a9 19		      lda	#<DF1FRACDATA	;2  @35
    799  1b74		       85 0f		      sta	PF2	;3  @38
    800  1b76		       4c ab 1b 	      jmp	JoinKernel4	;3  @41   Omega - save bytes
    801  1b79
    802  1b79
    803  1b79				   kernel2
    804  1b79		       a9 12		      lda	#<DF2DATAW	;2  @22
    805  1b7b		       85 1b		      sta	GRP0	;3  @25   (VDEL)
    806  1b7d		       85 11		      sta	RESP1	;3  @28
    807  1b7f		       a9 23		      lda	#<DF3FLAG	;2  @30
    808  1b81		       85 1f		      sta	ENABL	;3  @33   (VDEL)
    809  1b83		       a9 19		      lda	#<DF1FRACDATA	;2  @35
    810  1b85		       85 0f		      sta	PF2	;3  @38
    811  1b87		       4c ab 1b 	      jmp	JoinKernel4	;3  @41   Omega - save bytes
    812  1b8a
    813  1b8a
    814  1b8a				   kernel3
    815  1b8a		       a9 12		      lda	#<DF2DATAW	;2  @22
    816  1b8c		       85 1b		      sta	GRP0	;3  @25   (VDEL)
    817  1b8e		       a9 23		      lda	#<DF3FLAG	;2  @27
    818  1b90		       85 1f		      sta	ENABL	;3  @30   (VDEL)
    819  1b92		       85 11		      sta	RESP1	;3  @33
    820  1b94		       a9 19		      lda	#<DF1FRACDATA	;2  @35
    821  1b96		       85 0f		      sta	PF2	;3  @38
    822  1b98		       4c ab 1b 	      jmp	JoinKernel4	;3  @41   Omega - save bytes
    823  1b9b
    824  1b9b
    825  1b9b				   kernel4
    826  1b9b		       a9 12		      lda	#<DF2DATAW	;2  @22
    827  1b9d		       85 1b		      sta	GRP0	;3  @25   (VDEL)
    828  1b9f		       a9 23		      lda	#<DF3FLAG	;2  @27
    829  1ba1		       85 1f		      sta	ENABL	;3  @30   (VDEL)
    830  1ba3		       a9 19		      lda	#<DF1FRACDATA	;2  @32
    831  1ba5		       85 0f		      sta	PF2	;3  @35
    832  1ba7		       85 11		      sta	RESP1	;3  @38
    833  1ba9
    834  1ba9		       85 0f		      sta	PF2	;3  @41   free bytes, waste 3 cycles, no illegal opcodes
    835  1bab				   JoinKernel4
    836  1bab		       ea		      nop		;2  @43   free byte, waste 2 cycles
    837  1bac
    838  1bac		       a9 1a		      lda	#<DF2FRACDATA	;2  @45
    839  1bae		       85 0f		      sta	PF2	;3  @48
    840  1bb0		       a9 1b		      lda	#<DF3FRACDATA	;2  @50
    841  1bb2		       85 0e		      sta	PF1	;3  @53
    842  1bb4		       a9 1d		      lda	#<DF5FRACDATA	;2  @55   NUSIZ/RESP info (OK here, GRP1 off)
    843  1bb6		       85 05		      sta	NUSIZ1	;3  @58
    844  1bb8		       85 0c		      sta	REFP1	;3  @61
    845  1bba		       4c 13 1b 	      jmp	getbackearly	;3  @64
    846  1bbd
    847  1bbd
    848  1bbd				   kernel5
    849  1bbd		       a9 12		      lda	#<DF2DATAW	;2  @22
    850  1bbf		       85 1b		      sta	GRP0	;3  @25   (VDEL)
    851  1bc1		       a9 23		      lda	#<DF3FLAG	;2  @27
    852  1bc3		       85 1f		      sta	ENABL	;3  @30   (VDEL)
    853  1bc5		       a9 19		      lda	#<DF1FRACDATA	;2  @32
    854  1bc7		       85 0f		      sta	PF2	;3  @35
    855  1bc9
    856  1bc9		       85 0f		      sta	PF2	;3  @38   free bytes, waste 5 cycles, no illegal opcodes
    857  1bcb		       ea		      nop		;2  @40   could also use DEC $2E to save 1 byte
    858  1bcc
    859  1bcc		       85 11		      sta	RESP1	;3  @43
    860  1bce		       a9 1a		      lda	#<DF2FRACDATA	;2  @45
    861  1bd0		       85 0f		      sta	PF2	;3  @48
    862  1bd2		       a9 1b		      lda	#<DF3FRACDATA	;2  @50
    863  1bd4		       85 0e		      sta	PF1	;3  @53
    864  1bd6		       a9 1d		      lda	#<DF5FRACDATA	;2  @55   NUSIZ/RESP info (OK here, GRP1 off)
    865  1bd8		       85 05		      sta	NUSIZ1	;3  @58
    866  1bda		       85 0c		      sta	REFP1	;3  @61
    867  1bdc		       4c 13 1b 	      jmp	getbackearly	;3  @64
    868  1bdf
    869  1bdf
    870  1bdf				   kernel6
    871  1bdf		       a9 12		      lda	#<DF2DATAW	;2  @22
    872  1be1		       85 1b		      sta	GRP0	;3  @25   (VDEL)
    873  1be3		       a9 23		      lda	#<DF3FLAG	;2  @27
    874  1be5		       85 1f		      sta	ENABL	;3  @30   (VDEL)
    875  1be7		       a9 19		      lda	#<DF1FRACDATA	;2  @32
    876  1be9		       85 0f		      sta	PF2	;3  @35
    877  1beb		       a9 1d		      lda	#<DF5FRACDATA	;2  @37   NUSIZ/RESP info (OK here, GRP1 off)
    878  1bed		       85 05		      sta	NUSIZ1	;3  @40
    879  1bef		       85 0c		      sta	REFP1	;3  @43
    880  1bf1		       a9 1a		      lda	#<DF2FRACDATA	;2  @45
    881  1bf3		       85 0f		      sta	PF2	;3  @48
    882  1bf5		       a9 1b		      lda	#<DF3FRACDATA	;2  @50
    883  1bf7		       85 11		      sta	RESP1	;3  @53
    884  1bf9		       85 0e		      sta	PF1	;3  @56
    885  1bfb
    886  1bfb		       86 21		      stx	HMP1	;3  @59   X=$70  (LEFT74_15)
    887  1bfd
    888  1bfd		       a9 19		      lda	#<DF1FRACDATA	;2  @61
    889  1bff		       85 0f		      sta	PF2	;3  @64
    890  1c01		       a9 18		      lda	#<DF0FRACDATA	;2  @66
    891  1c03		       85 0e		      sta	PF1	;3  @69   (PF1L) too early?
    892  1c05		       a9 08		      lda	#<DF0DATA	;2  @71
    893  1c07		       85 2a		      sta	HMOVE	;3  @74
    894  1c09							;---------------------------------------
    895  1c09		       85 06		      sta	COLUP0	;3  @1
    896  1c0b		       a9 09		      lda	#<DF1DATA	;2  @3
    897  1c0d		       85 07		      sta	COLUP1	;3  @6
    898  1c0f		       a9 0b		      lda	#<DF3DATA	;2  @8
    899  1c11		       85 1c		      sta	GRP1	;3  @11
    900  1c13		       a9 20		      lda	#<DF0FLAG	;2  @13
    901  1c15		       85 1d		      sta	ENAM0	;3  @16
    902  1c17		       a9 1e		      lda	#<DF6FRACDATA	;2  @18
    903  1c19		       85 09		      sta	COLUBK	;3  @21
    904  1c1b		       a9 1c		      lda	#<DF4FRACDATA	;2  @23
    905  1c1d		       85 08		      sta	COLUPF	;3  @26
    906  1c1f		       ea		      nop		;2  @28
    907  1c20				   goto_loop3
    908  1c20		       4c bd 1a 	      jmp	loop3	;3  @31
    909  1c23
    910  1c23
    911  1c23				   kernel7
    912  1c23		       a9 12		      lda	#<DF2DATAW	;2  @22
    913  1c25		       85 1b		      sta	GRP0	;3  @25   (VDEL)
    914  1c27		       a9 23		      lda	#<DF3FLAG	;2  @27
    915  1c29		       85 1f		      sta	ENABL	;3  @30   (VDEL)
    916  1c2b		       a9 19		      lda	#<DF1FRACDATA	;2  @32
    917  1c2d		       85 0f		      sta	PF2	;3  @35
    918  1c2f		       a9 1d		      lda	#<DF5FRACDATA	;2  @37   NUSIZ/RESP info (OK here, GRP1 off)
    919  1c31		       85 05		      sta	NUSIZ1	;3  @40
    920  1c33		       85 0c		      sta	REFP1	;3  @43
    921  1c35		       a9 1a		      lda	#<DF2FRACDATA	;2  @45
    922  1c37		       85 0f		      sta	PF2	;3  @48
    923  1c39		       ea		      nop		;2  @50   free byte, waste 2 cycles
    924  1c3a		       85 11		      sta	RESP1	;3  @53
    925  1c3c		       a9 1b		      lda	#<DF3FRACDATA	;2  @55
    926  1c3e		       85 0e		      sta	PF1	;3  @58
    927  1c40		       85 0e		      sta	PF1	;3  @61   free bytes, waste 3 cycles
    928  1c42		       4c 13 1b 	      jmp	getbackearly	;3  @64
    929  1c45
    930  1c45
    931  1c45				   kernel8
    932  1c45		       a9 12		      lda	#<DF2DATAW	;2  @22
    933  1c47		       85 1b		      sta	GRP0	;3  @25   (VDEL)
    934  1c49		       a9 23		      lda	#<DF3FLAG	;2  @27
    935  1c4b		       85 1f		      sta	ENABL	;3  @30   (VDEL)
    936  1c4d		       a9 19		      lda	#<DF1FRACDATA	;2  @32
    937  1c4f		       85 0f		      sta	PF2	;3  @35
    938  1c51		       a9 1d		      lda	#<DF5FRACDATA	;2  @37   NUSIZ/RESP info (OK here, GRP1 off)
    939  1c53		       85 05		      sta	NUSIZ1	;3  @40
    940  1c55		       85 0c		      sta	REFP1	;3  @43
    941  1c57		       a9 1a		      lda	#<DF2FRACDATA	;2  @45
    942  1c59		       85 0f		      sta	PF2	;3  @48
    943  1c5b		       a9 1b		      lda	#<DF3FRACDATA	;2  @50
    944  1c5d		       85 0e		      sta	PF1	;3  @53
    945  1c5f		       ea		      nop		;2  @55   free byte, waste 2 cycles
    946  1c60		       85 11		      sta	RESP1	;3  @58
    947  1c62		       85 0e		      sta	PF1	;3  @61   free bytes, waste 3 cycles, no illegal opcodes
    948  1c64		       4c 13 1b 	      jmp	getbackearly	;3  @64
    949  1c67
    950  1c67
    951  1c67				   kernel9
    952  1c67		       a9 12		      lda	#<DF2DATAW	;2  @22
    953  1c69		       85 1b		      sta	GRP0	;3  @25   (VDEL)
    954  1c6b		       a9 23		      lda	#<DF3FLAG	;2  @27
    955  1c6d		       85 1f		      sta	ENABL	;3  @30   (VDEL)
    956  1c6f		       a9 19		      lda	#<DF1FRACDATA	;2  @32
    957  1c71		       85 0f		      sta	PF2	;3  @35
    958  1c73		       a9 1d		      lda	#<DF5FRACDATA	;2  @37   NUSIZ/RESP info (OK here, GRP1 off)
    959  1c75		       85 05		      sta	NUSIZ1	;3  @40
    960  1c77		       85 0c		      sta	REFP1	;3  @43
    961  1c79		       a9 1a		      lda	#<DF2FRACDATA	;2  @45
    962  1c7b		       85 0f		      sta	PF2	;3  @48
    963  1c7d		       a9 1b		      lda	#<DF3FRACDATA	;2  @50
    964  1c7f		       85 0e		      sta	PF1	;3  @53
    965  1c81
    966  1c81		       85 0e		      sta	PF1	;3  @56   free bytes, waste 5 cycles, no illegal opcodes
    967  1c83		       ea		      nop		;2  @58   could also use DEC $2E to save 1 byte
    968  1c84
    969  1c84		       a9 18		      lda	#<DF0FRACDATA	;2  @60
    970  1c86		       85 11		      sta	RESP1	;3  @63
    971  1c88		       4c 15 1b 	      jmp	goto_StorePF1_Loop	;3  @66   Omega - store PF1 on same cycle as before, and save bytes
    972  1c8b
    973  1c8b
    974  1c8b				   kernel10
    975  1c8b		       a9 12		      lda	#<DF2DATAW	;2  @22
    976  1c8d		       85 1b		      sta	GRP0	;3  @25   (VDEL)
    977  1c8f		       a9 23		      lda	#<DF3FLAG	;2  @27
    978  1c91		       85 1f		      sta	ENABL	;3  @30   (VDEL)
    979  1c93		       a9 19		      lda	#<DF1FRACDATA	;2  @32
    980  1c95		       85 0f		      sta	PF2	;3  @35
    981  1c97		       a9 1d		      lda	#<DF5FRACDATA	;2  @37   NUSIZ/RESP info (OK here, GRP1 off)
    982  1c99		       85 05		      sta	NUSIZ1	;3  @40
    983  1c9b		       85 0c		      sta	REFP1	;3  @43
    984  1c9d		       a9 1a		      lda	#<DF2FRACDATA	;2  @45
    985  1c9f		       85 0f		      sta	PF2	;3  @48
    986  1ca1		       a9 1b		      lda	#<DF3FRACDATA	;2  @50
    987  1ca3		       85 0e		      sta	PF1	;3  @53
    988  1ca5
    989  1ca5		       ea		      nop		;2  @55   free bytes, waste 6 cycles
    990  1ca6		       ea		      nop		;2  @57
    991  1ca7		       ea		      nop		;2  @59
    992  1ca8
    993  1ca8		       a9 18		      lda	#<DF0FRACDATA	;2  @61
    994  1caa		       ae 08 10 	      ldx	DF0DATA	;4  @65
    995  1cad		       85 11		      sta	RESP1	;3  @68
    996  1caf		       85 0e		      sta	PF1	;3  @71
    997  1cb1		       a9 09		      lda	#<DF1DATA	;2  @73
    998  1cb3		       86 06		      stx	COLUP0	;3  @76
    999  1cb5							;------------------------------------------
   1000  1cb5		       4c a7 1a 	      jmp	loop2	;3  @3
   1001  1cb8
   1002  1cb8
   1003  1cb8				   kernel11
   1004  1cb8		       a9 12		      lda	#<DF2DATAW	;2  @22
   1005  1cba		       85 1b		      sta	GRP0	;3  @25   (VDEL)
   1006  1cbc		       a9 23		      lda	#<DF3FLAG	;2  @27
   1007  1cbe		       85 1f		      sta	ENABL	;3  @30   (VDEL)
   1008  1cc0		       a9 19		      lda	#<DF1FRACDATA	;2  @32
   1009  1cc2		       85 0f		      sta	PF2	;3  @35
   1010  1cc4		       a9 1d		      lda	#<DF5FRACDATA	;2  @37   NUSIZ/RESP info (OK here, GRP1 off)
   1011  1cc6		       85 05		      sta	NUSIZ1	;3  @40
   1012  1cc8		       85 0c		      sta	REFP1	;3  @43
   1013  1cca		       a9 1a		      lda	#<DF2FRACDATA	;2  @45
   1014  1ccc		       85 0f		      sta	PF2	;3  @48
   1015  1cce		       a9 1b		      lda	#<DF3FRACDATA	;2  @50
   1016  1cd0		       85 0e		      sta	PF1	;3  @53
   1017  1cd2		       85 0e		      sta	PF1	;3  @56   free bytes, waste 3 cycles, no illegal opcodes
   1018  1cd4		       a9 19		      lda	#<DF1FRACDATA	;2  @58
   1019  1cd6		       85 0f		      sta	PF2	;3  @61
   1020  1cd8		       ae 08 10 	      ldx	DF0DATA	;4  @65
   1021  1cdb		       a9 18		      lda	#<DF0FRACDATA	;2  @67
   1022  1cdd		       85 0e		      sta	PF1	;3  @70
   1023  1cdf		       85 11		      sta	RESP1	;3  @73
   1024  1ce1		       86 06		      stx	COLUP0	;3  @76
   1025  1ce3							;---------------------------------------
   1026  1ce3		       a9 09		      lda	#<DF1DATA	;2  @2
   1027  1ce5		       85 07		      sta	COLUP1	;3  @5
   1028  1ce7		       a9 0b		      lda	#<DF3DATA	;2  @7
   1029  1ce9		       85 1c		      sta	GRP1	;3  @10
   1030  1ceb		       a9 20		      lda	#<DF0FLAG	;2  @12
   1031  1ced		       85 1d		      sta	ENAM0	;3  @15
   1032  1cef		       a9 1e		      lda	#<DF6FRACDATA	;2  @17
   1033  1cf1		       85 09		      sta	COLUBK	;3  @20
   1034  1cf3		       a9 1c		      lda	#<DF4FRACDATA	;2  @22
   1035  1cf5		       85 08		      sta	COLUPF	;3  @25
   1036  1cf7		       4c 20 1c 	      jmp	goto_loop3	;3  @28
   1037  1cfa
   1038  1cfa
   1039  1cfa
   1040  1cfa
   1041  1cfa				   set_fetchers
   1042  1cfa		       ad f4 1e 	      lda	dflow
   1043  1cfd		       8d 50 10 	      sta	DF0LOW
   1044  1d00		       ad fc 1e 	      lda	dfhigh
   1045  1d03		       8d 68 10 	      sta	DF0HI
   1046  1d06
   1047  1d06		       ad f5 1e 	      lda	dflow+1
   1048  1d09		       8d 51 10 	      sta	DF1LOW
   1049  1d0c		       ad fd 1e 	      lda	dfhigh+1
   1050  1d0f		       8d 69 10 	      sta	DF1HI
   1051  1d12
   1052  1d12		       ad f6 1e 	      lda	dflow+2
   1053  1d15		       8d 52 10 	      sta	DF2LOW
   1054  1d18		       ad fe 1e 	      lda	dfhigh+2
   1055  1d1b		       8d 6a 10 	      sta	DF2HI
   1056  1d1e
   1057  1d1e				   set_fetchers36		; sets just 3-6
   1058  1d1e		       ad f7 1e 	      lda	dflow+3
   1059  1d21		       8d 53 10 	      sta	DF3LOW
   1060  1d24		       ad ff 1e 	      lda	dfhigh+3
   1061  1d27		       8d 6b 10 	      sta	DF3HI
   1062  1d2a
   1063  1d2a		       ad f8 1e 	      lda	dflow+4
   1064  1d2d		       8d 54 10 	      sta	DF4LOW
   1065  1d30		       ad 00 1f 	      lda	dfhigh+4
   1066  1d33		       8d 6c 10 	      sta	DF4HI
   1067  1d36
   1068  1d36		       ad f9 1e 	      lda	dflow+5
   1069  1d39		       8d 55 10 	      sta	DF5LOW
   1070  1d3c		       ad 01 1f 	      lda	dfhigh+5
   1071  1d3f		       8d 6d 10 	      sta	DF5HI
   1072  1d42
   1073  1d42		       ad fa 1e 	      lda	dflow+6
   1074  1d45		       8d 56 10 	      sta	DF6LOW
   1075  1d48		       ad 02 1f 	      lda	dfhigh+6
   1076  1d4b		       8d 6e 10 	      sta	DF6HI
   1077  1d4e		       60		      rts
   1078  1d4f
   1079  1d4f
   1080  1d4f				   kernel_setup
   1081  1d4f							;--position P0, top P1, M0, M1, BL
   1082  1d4f		       a2 00		      ldx	#0	; first sprite displayed
   1083  1d51		       b5 85		      lda	SpriteGfxIndex,X
   1084  1d53		       aa		      tax
   1085  1d54		       b5 90		      lda	player1x,X
   1086  1d56		       c9 a0		      cmp	#160
   1087  1d58		       90 0a		      bcc	nostorep1
   1088  1d5a		       c9 d0		      cmp	#208
   1089  1d5c		       b0 02		      bcs	ksadjustdown
   1090  1d5e							; 160-208: minus 160
   1091  1d5e							; add 160 is like minus 96
   1092  1d5e							; so minus 64
   1093  1d5e		       e9 3f		      sbc	#63	; cc
   1094  1d60				   ksadjustdown
   1095  1d60							; 209-255: add 160
   1096  1d60		       69 9f		      adc	#159	; cs
   1097  1d62		       95 90		      sta	player1x,X
   1098  1d64				   nostorep1
   1099  1d64		       85 02		      sta	WSYNC
   1100  1d66							;---------------------------------------
   1101  1d66		       a2 04		      ldx	#4
   1102  1d68		       85 81		      sta	topP1x	; cache top p1
   1103  1d6a				   HorPosLoop
   1104  1d6a		       b5 80		      lda	player0x,X
   1105  1d6c		       38		      sec
   1106  1d6d				   DivideLoop
   1107  1d6d		       e9 0f		      sbc	#15
   1108  1d6f		       b0 fc		      bcs	DivideLoop
   1109  1d71		       b4 80		      ldy	player0x,X	; Omega - preloading for when branch NOT taken
   1110  1d73		       95 10		      sta	RESP0,X
   1111  1d75		       85 02		      sta	WSYNC
   1112  1d77							;---------------------------------------
   1113  1d77		       ca		      dex		;2  @2
   1114  1d78		       10 f0		      bpl	HorPosLoop	;2 @4/5
   1115  1d7a
   1116  1d7a
   1117  1d7a		       b9 18 1f 	      lda	Hmval,Y	; Omega - Y is preloaded for looking up HMP0 value
   1118  1d7d		       85 20		      sta	HMP0
   1119  1d7f
   1120  1d7f		       a4 84		      ldy	player0x+4	; Omega - we don't have time to loop all (P1, M0, M1, BL), so configure HMBL outside of loop.
   1121  1d81		       b9 18 1f 	      lda	Hmval,Y
   1122  1d84		       85 24		      sta	HMBL
   1123  1d86
   1124  1d86		       a2 03		      ldx	#3
   1125  1d88				   loopLoadHMxx
   1126  1d88		       b4 80		      ldy	player0x,X	; Omega - do M1, M0, and then P1
   1127  1d8a		       b9 18 1f 	      lda	Hmval,Y
   1128  1d8d		       95 20		      sta	HMP0,X
   1129  1d8f		       ca		      dex
   1130  1d90		       d0 f6		      bne	loopLoadHMxx
   1131  1d92							; @73 cycles, X=0
   1132  1d92
   1133  1d92		       85 02		      sta	WSYNC
   1134  1d94							;---------------------------------------
   1135  1d94		       85 2a		      sta	HMOVE
   1136  1d96
   1137  1d96				   myrts
   1138  1d96		       60		      rts
   1139  1d97
   1140  1d97
   1141  1d97				   pfsetup
   1142  1d97		       84 cb		      sty	temp1
   1143  1d99		       85 cc		      sta	temp2
   1144  1d9b		       86 cd		      stx	temp3
   1145  1d9d		       a2 03		      ldx	#3
   1146  1d9f				   pfsetupp
   1147  1d9f		       bd 04 1f 	      lda	dffraclow,X
   1148  1da2		       9d 50 10 	      sta	DF0LOW,X
   1149  1da5		       bd 0c 1f 	      lda	dffrachi,X
   1150  1da8		       9d 68 10 	      sta	DF0HI,X
   1151  1dab		       a5 cc		      lda	temp2
   1152  1dad		       8d 59 10 	      sta	PARAMETER
   1153  1db0		       a5 cd		      lda	temp3
   1154  1db2		       8d 59 10 	      sta	PARAMETER
   1155  1db5		       8e 59 10 	      stx	PARAMETER
   1156  1db8		       8c 59 10 	      sty	PARAMETER
   1157  1dbb		       a9 01		      lda	#1
   1158  1dbd		       8d 5a 10 	      sta	CALLFUNCTION
   1159  1dc0		       18		      clc
   1160  1dc1		       a5 cc		      lda	temp2
   1161  1dc3		       65 cb		      adc	temp1
   1162  1dc5		       85 cc		      sta	temp2
   1163  1dc7		       a5 cd		      lda	temp3
   1164  1dc9		       69 00		      adc	#0
   1165  1dcb		       85 cd		      sta	temp3
   1166  1dcd		       ca		      dex
   1167  1dce		       10 cf		      bpl	pfsetupp
      0  1dd0					      RETURN
      1  1dd0				  -	      ifnconst	bankswitch
      2  1dd0				  -	      rts
      3  1dd0					      else
      4  1dd0		       4c e0 df 	      jmp	BS_return
      5  1dd3					      endif
   1169  1dd3
   1170  1dd3
   1171  1dd3				   scorekernel
   1172  1dd3				  -	      IFCONST	minikernel
   1173  1dd3				  -	      dex		; Omega - dependency of X=0 at this point, this previously was LDA #0, STA FASTFETCH
   1174  1dd3				  -	      sta	FASTFETCH	; disable fast fetch, call the minikernel, and re-enable fast fetch
   1175  1dd3				  -	      jsr	minikernel
   1176  1dd3				  -	      ldx	#0
   1177  1dd3				  -	      stx	FASTFETCH	; Omega - changed to use X
   1178  1dd3					      ENDIF
   1179  1dd3
   1180  1dd3		       86 0e		      stx	PF1	; X=0
   1181  1dd5		       86 0f		      stx	PF2
   1182  1dd7		       86 1b		      stx	GRP0
   1183  1dd9		       86 1c		      stx	GRP1
   1184  1ddb		       86 1d		      stx	ENAM0
   1185  1ddd		       86 1e		      stx	ENAM1
   1186  1ddf		       86 1f		      stx	ENABL
   1187  1de1		       86 0b		      stx	REFP0
   1188  1de3		       86 0c		      stx	REFP1
   1189  1de5		       86 2b		      stx	HMCLR
   1190  1de7
   1191  1de7					      IFCONST	pfscore
   1192  1de7		       a5 c6		      lda	pfscorecolor
   1193  1de9		       85 08		      sta	COLUPF
   1194  1deb					      ENDIF
   1195  1deb
   1196  1deb				  -	      IFCONST	noscore
   1197  1deb				  -	      rts
   1198  1deb					      ENDIF
   1199  1deb
   1200  1deb							; set up fetchers 0-5 to handle score digits
   1201  1deb		       a2 45		      ldx	#<(scoredata)
   1202  1ded		       8e 56 10 	      stx	DF6LOW
   1203  1df0		       a2 0b		      ldx	#(>(scoredata)) & $0F
   1204  1df2		       8e 6e 10 	      stx	DF6HI
   1205  1df5		       a2 4d		      ldx	#<(scoredata+8)
   1206  1df7		       8e 50 10 	      stx	DF0LOW
   1207  1dfa		       a2 0b		      ldx	#(>(scoredata+8)) & $0F
   1208  1dfc		       8e 68 10 	      stx	DF0HI
   1209  1dff		       a2 55		      ldx	#<(scoredata+16)
   1210  1e01		       8e 51 10 	      stx	DF1LOW
   1211  1e04							; cycle 0??
   1212  1e04		       a2 0b		      ldx	#(>(scoredata+16)) & $0F
   1213  1e06		       8e 69 10 	      stx	DF1HI
   1214  1e09		       a2 5d		      ldx	#<(scoredata+24)
   1215  1e0b		       8e 52 10 	      stx	DF2LOW
   1216  1e0e		       a2 0b		      ldx	#(>(scoredata+24)) & $0F
   1217  1e10		       8e 6a 10 	      stx	DF2HI
   1218  1e13
   1219  1e13
   1220  1e13
   1221  1e13				  -	      IFCONST	splitscore_2_4
   1222  1e13				  -	      lda	splitKernelVar	; Omega - new code
   1223  1e13				  -	      and	#SPLIT_KERN_BIT
   1224  1e13				  -	      cmp	#SPLIT_KERN_BIT	; carry now set/cleared for branching later
   1225  1e13				  -
   1226  1e13				  -	      ldx	#LEFT74_12
   1227  1e13				  -	      stx	HMP1
   1228  1e13				  -	      ldx	#LEFT74_11
   1229  1e13					      ELSE
   1230  1e13		       18		      clc		; default to using centered score display
   1231  1e14		       a2 f0		      ldx	#$F0	; might be able to use TSX
   1232  1e16					      ENDIF
   1233  1e16		       86 20		      stx	HMP0
   1234  1e18
   1235  1e18		       a2 03		      ldx	#3	; Omega - can't use LDA #IMM for DPC+
   1236  1e1a		       8a		      txa
   1237  1e1b		       a2 00		      ldx	#0
   1238  1e1d		       a0 07		      ldy	#7
   1239  1e1f		       84 cb		      sty	temp1
   1240  1e21
   1241  1e21
   1242  1e21							; Omega - now much more cycles
   1243  1e21
   1244  1e21		       85 02		      sta	WSYNC
   1245  1e23							;----------------------------------------
   1246  1e23		       86 1b		      stx	GRP0	;3  @3
   1247  1e25		       86 1c		      stx	GRP1	;3  @6        seems to be needed because of vdel
   1248  1e27
   1249  1e27		       a2 65		      ldx	#<(scoredata+32)	;2  @8
   1250  1e29		       8e 53 10 	      stx	DF3LOW	;4  @12
   1251  1e2c		       a2 0b		      ldx	#(>(scoredata+32)) & $0F	;2  @14
   1252  1e2e		       8e 6b 10 	      stx	DF3HI	;4  @18
   1253  1e31		       a2 6d		      ldx	#<(scoredata+40)	;2  @20
   1254  1e33		       8e 54 10 	      stx	DF4LOW	;4  @24
   1255  1e36		       a2 0b		      ldx	#(>(scoredata+40)) & $0F	;2  @26
   1256  1e38		       8e 6c 10 	      stx	DF4HI	;4  @30
   1257  1e3b		       84 25		      sty	VDELP0	;3  @33
   1258  1e3d		       85 05		      sta	NUSIZ1	;3  @36       A=3
   1259  1e3f		       85 04		      sta	NUSIZ0	;3  @39
   1260  1e41		       85 10		      sta	RESP0	;3  @42
   1261  1e43		       85 11		      sta	RESP1	;3  @45
   1262  1e45		       8d 26 00 	      sta.w	VDELP1	;4  @49
   1263  1e48		       a2 75		      ldx	#<(scoredata+48)	;2  @51
   1264  1e4a		       8e 55 10 	      stx	DF5LOW	;4  @55
   1265  1e4d		       a2 0b		      ldx	#(>(scoredata+48)) & $0F	;2  @57
   1266  1e4f		       90 50		      bcc	DrawRegularScore	;2 @59/60
   1267  1e51
   1268  1e51				   DrawSplitScore
   1269  1e51		       85 10		      sta	RESP0	;3  @62       Omega - doing RESP0 and RESP1 here shifts graphics far to the right
   1270  1e53		       85 11		      sta	RESP1	;3  @65
   1271  1e55		       8e 6d 10 	      stx	DF5HI	;4  @69
   1272  1e58		       8d 2a 00 	      sta.w	HMOVE	;3  @73
   1273  1e5b
   1274  1e5b				   loopSplitScore
   1275  1e5b		       a9 0e		      lda	#<DF6DATA	;2  @75
   1276  1e5d							;---------------------------------------
   1277  1e5d		       85 06		      sta	COLUP0	;3  @2
   1278  1e5f		       85 07		      sta	COLUP1	;3  @5
   1279  1e61		       a9 09		      lda	#<DF1DATA	;2  @7
   1280  1e63		       85 1b		      sta	GRP0	;3  @10
   1281  1e65		       a9 08		      lda	#<DF0DATA	;2  @12
   1282  1e67		       85 1c		      sta	GRP1	;3  @15
   1283  1e69		       a9 0b		      lda	#<DF3DATA	;2  @17
   1284  1e6b		       85 1b		      sta	GRP0	;3  @20
   1285  1e6d		       a2 04		      ldx	#4	;2  @22   TWO_COPIES_WIDE
   1286  1e6f		       86 04		      stx	NUSIZ0	;3  @25
   1287  1e71		       86 05		      stx	NUSIZ1	;3  @28
   1288  1e73		       ac 0d 10 	      ldy	DF5DATA	;4  @32
   1289  1e76		       a9 0c		      lda	#<DF4DATA	;2  @34
   1290  1e78		       ca		      dex		;2  @36
   1291  1e79		       ca		      dex		;2  @38
   1292  1e7a		       ca		      dex		;2  @40   X=1, TWO_COPIES_CLOSE
   1293  1e7b		       86 04		      stx	NUSIZ0	;3  @43
   1294  1e7d		       86 05		      stx	NUSIZ1	;3  @46
   1295  1e7f		       ae 0a 10 	      ldx	DF2DATA	;4  @50
   1296  1e82		       c6 cb		      dec	temp1	;5  @55
   1297  1e84		       86 1c		      stx	GRP1	;3  @58
   1298  1e86		       84 1b		      sty	GRP0	;3  @61
   1299  1e88		       85 1c		      sta	GRP1	;3  @64
   1300  1e8a		       85 1b		      sta	GRP0	;3  @67
   1301  1e8c		       a5 cb		      lda	temp1	;3  @70   free bytes, delay 3 cycles, no illegal opcodes
   1302  1e8e				   preFinishScore
   1303  1e8e		       10 cb		      bpl	loopSplitScore	;2 @72/73
   1304  1e90
   1305  1e90				   FinishScoreRoutine
   1306  1e90		       a2 00		      ldx	#0	;2  @74..75   worse case
   1307  1e92							;---------------------------------------
   1308  1e92		       86 0e		      stx	PF1	;3  @4
   1309  1e94		       86 1b		      stx	GRP0	;3  @7
   1310  1e96		       86 1c		      stx	GRP1	;3  @10
   1311  1e98		       86 25		      stx	VDELP0	;3  @13
   1312  1e9a		       86 26		      stx	VDELP1	;3  @16
   1313  1e9c		       86 04		      stx	NUSIZ0	;3  @19
   1314  1e9e		       86 05		      stx	NUSIZ1	;3  @22
   1315  1ea0		       60		      rts		;6  @28
   1316  1ea1
   1317  1ea1
   1318  1ea1
   1319  1ea1				   DrawRegularScore
   1320  1ea1		       8e 6d 10 	      stx	DF5HI	;4  @64
   1321  1ea4		       ea		      nop		;2  @66
   1322  1ea5		       ea		      nop		;2  @68
   1323  1ea6		       ea		      nop		;2  @70
   1324  1ea7		       85 2a		      sta	HMOVE	;3  @73
   1325  1ea9
   1326  1ea9				   scoreloop
   1327  1ea9		       a9 0e		      lda	#<DF6DATA	;2  @75
   1328  1eab							;---------------------------------------
   1329  1eab		       85 06		      sta	COLUP0	;3  @2
   1330  1ead		       85 07		      sta	COLUP1	;3  @5
   1331  1eaf		       a9 09		      lda	#<DF1DATA	;2  @7
   1332  1eb1		       85 1b		      sta	GRP0	;3  @10
   1333  1eb3		       a9 08		      lda	#<DF0DATA	;2  @12
   1334  1eb5		       85 1c		      sta	GRP1	;3  @15
   1335  1eb7		       a9 0b		      lda	#<DF3DATA	;2  @17
   1336  1eb9		       85 1b		      sta	GRP0	;3  @20
   1337  1ebb							; REVENG - rearranged to correct pf write timing and A register overwrite
   1338  1ebb					      IFCONST	pfscore
   1339  1ebb		       a5 c8		      lda	pfscore1	;3  @23
   1340  1ebd		       85 0e		      sta	PF1	;3  @26
   1341  1ebf				  -	      ELSE
   1342  1ebf				  -	      nop		;2  @22   free bytes, delay 6 cycles
   1343  1ebf				  -	      nop		;2  @24
   1344  1ebf				  -	      nop		;2  @26
   1345  1ebf					      ENDIF
   1346  1ebf
   1347  1ebf		       ae 0a 10 	      ldx	DF2DATA	;4  @30
   1348  1ec2		       ac 0d 10 	      ldy	DF5DATA	;4  @34
   1349  1ec5		       a9 0c		      lda	#<DF4DATA	;2  @36
   1350  1ec7		       c6 cb		      dec	temp1	;5  @41
   1351  1ec9		       86 1c		      stx	GRP1	;3  @44
   1352  1ecb		       84 1b		      sty	GRP0	;3  @47
   1353  1ecd		       85 1c		      sta	GRP1	;3  @50
   1354  1ecf		       85 1b		      sta	GRP0	;3  @53
   1355  1ed1
   1356  1ed1					      IFCONST	pfscore
   1357  1ed1		       a5 c9		      lda	pfscore2	;3  @56
   1358  1ed3		       85 0e		      sta	PF1	;3  @59
   1359  1ed5				  -	      ELSE
   1360  1ed5				  -	      nop		;2  @55   free bytes, delay 6 cycles
   1361  1ed5				  -	      nop		;2  @57
   1362  1ed5				  -	      nop		;2  @59
   1363  1ed5					      ENDIF
   1364  1ed5
   1365  1ed5		       a4 cb		      ldy	temp1	;3  @62
   1366  1ed7
   1367  1ed7		       ea		      nop		;2  @64   free bytes, delay 8 cycles
   1368  1ed8		       ea		      nop		;2  @66
   1369  1ed9		       ea		      nop		;2  @68
   1370  1eda		       30 b2		      bmi	preFinishScore	;2 @70/71
   1371  1edc		       10 cb		      bpl	scoreloop	;3  @73   always branch
   1372  1ede
   1373  1ede
   1374  1ede
   1375  1ede							;9d bad
   1376  1ede							; the below isn't quite right
   1377  1ede							;DF0DATA: COLUP0
   1378  1ede							;DF1DATA: COLUP1
   1379  1ede							;DF2DATAW: GRP0
   1380  1ede							;DF3DATA: GRP1
   1381  1ede							;DF4DATA: 2lk lines until repos/HMP1
   1382  1ede							;DF5DATA: low byte of repo kernels (xpos mod 15)
   1383  1ede							;DF6DATA: High byte of repo kernels (x pos div 15)
   1384  1ede							;DF7DATA: Programmer's stack
   1385  1ede							;DF0FRACDATA: PF1L
   1386  1ede							;DF1FRACDATA: PF2L
   1387  1ede							;DF4FRACDATA: COLUPF
   1388  1ede							;DF2FRACDATA: PF2R
   1389  1ede							;DF3FRACDATA: PF2L
   1390  1ede							;DF5FRACDATA: Sprite NUSIZ1/REFP1 (only during repos)
   1391  1ede							;DF6FRACDATA: COLUBK
   1392  1ede							;DF7FRACDATA: HMP1
   1393  1ede							;DF3FLAG: kernel exit loop ?? (use flags instead?)
   1394  1ede							;DF0FLAG: ENAM0
   1395  1ede							;DF1FLAG: ENAM1
   1396  1ede							;DF3FLAG: ENABL
   1397  1ede
   1398  1ede				   fetcher_address_table
   1399  1ede				   kernello
   1400  1ede		       68		      .byte.b	<kernel1
   1401  1edf		       79		      .byte.b	<kernel2
   1402  1ee0		       8a		      .byte.b	<kernel3
   1403  1ee1		       9b		      .byte.b	<kernel4
   1404  1ee2		       bd		      .byte.b	<kernel5
   1405  1ee3		       df		      .byte.b	<kernel6
   1406  1ee4		       23		      .byte.b	<kernel7
   1407  1ee5		       45		      .byte.b	<kernel8
   1408  1ee6		       67		      .byte.b	<kernel9
   1409  1ee7		       8b		      .byte.b	<kernel10
   1410  1ee8		       b8		      .byte.b	<kernel11
   1411  1ee9				   kernelhi
   1412  1ee9		       1b		      .byte.b	>kernel1
   1413  1eea		       1b		      .byte.b	>kernel2
   1414  1eeb		       1b		      .byte.b	>kernel3
   1415  1eec		       1b		      .byte.b	>kernel4
   1416  1eed		       1b		      .byte.b	>kernel5
   1417  1eee		       1b		      .byte.b	>kernel6
   1418  1eef		       1c		      .byte.b	>kernel7
   1419  1ef0		       1c		      .byte.b	>kernel8
   1420  1ef1		       1c		      .byte.b	>kernel9
   1421  1ef2		       1c		      .byte.b	>kernel10
   1422  1ef3		       1c		      .byte.b	>kernel11
   1423  1ef4				   dflow
   1424  1ef4		       08		      .byte.b	<P0COLOR
   1425  1ef5		       08		      .byte.b	<P1COLOR
   1426  1ef6		       08		      .byte.b	<P0GFX
   1427  1ef7		       08		      .byte.b	<P1GFX
   1428  1ef8		       2d		      .byte.b	<P1SKIP
   1429  1ef9		       08		      .byte.b	<JUMPTABLELO
   1430  1efa		       14		      .byte.b	<JUMPTABLEHI
   1431  1efb		       a5		      .byte.b	<USERSTACK
   1432  1efc				   dfhigh
   1433  1efc		       05		      .byte.b	(>P0COLOR) & $0F
   1434  1efd		       03		      .byte.b	(>P1COLOR) & $0F
   1435  1efe		       04		      .byte.b	(>P0GFX) & $0F
   1436  1eff		       02		      .byte.b	(>P1GFX) & $0F
   1437  1f00		       0b		      .byte.b	(>P1SKIP) & $0F
   1438  1f01		       0b		      .byte.b	(>JUMPTABLELO) & $0F
   1439  1f02		       0b		      .byte.b	(>JUMPTABLEHI) & $0F
   1440  1f03		       0d		      .byte.b	(>USERSTACK) & $0F
   1441  1f04				   dffraclow
   1442  1f04		       08		      .byte.b	<PF1L
   1443  1f05		       08		      .byte.b	<PF2L
   1444  1f06		       08		      .byte.b	<PF1R
   1445  1f07		       08		      .byte.b	<PF2R
   1446  1f08		       08		      .byte.b	<PFCOLS
   1447  1f09		       39		      .byte.b	<NUSIZREFP
   1448  1f0a		       a5		      .byte.b	<BKCOLS
   1449  1f0b		       20		      .byte.b	<P1HMP
   1450  1f0c				   dffrachi
   1451  1f0c		       06		      .byte.b	(>PF1L) & $0F
   1452  1f0d		       07		      .byte.b	(>PF2L) & $0F
   1453  1f0e		       08		      .byte.b	(>PF1R) & $0F
   1454  1f0f		       09		      .byte.b	(>PF2R) & $0F
   1455  1f10		       0a		      .byte.b	(>PFCOLS) & $0F
   1456  1f11		       0b		      .byte.b	(>NUSIZREFP) & $0F
   1457  1f12		       0b		      .byte.b	(>BKCOLS) & $0F
   1458  1f13		       0b		      .byte.b	(>P1HMP) & $0F
   1459  1f14				   scorepointer
   1460  1f14		       94		      .byte.b	<scoretable
   1461  1f15		       08		      .byte.b	((>scoretable) & $0f) | (((>scoretable) / 2) & $70)
   1462  1f16				   scoresetup		; pointers to digit graphics
   1463  1f16		       45		      .byte.b	<scoredata
   1464  1f17		       0b		      .byte.b	(>scoredata) & $0F
   1465  1f18				   Hmval		; 112 wuz first
   1466  1f18		       60 50 40 30*	      .byte.b	96, 80, 64, 48, 32, 16, 1, 240
   1467  1f20				   Hmval74
   1468  1f20		       e0 d0 c0 b0*	      .byte.b	224, 208, 192, 176, 160, 144, 128
   1469  1f27		       60 50 40 30*	      .byte.b	96, 80, 64, 48, 32, 16, 1, 240, 224, 208, 192, 176, 160, 144, 128, 96
   1470  1f37		       50 40 30 20*	      .byte.b	80, 64, 48, 32, 16, 1, 240, 224, 208, 192, 176, 160, 144, 128, 96, 80
   1471  1f47		       40 30 20 10*	      .byte.b	64, 48, 32, 16, 1, 240, 224, 208, 192, 176, 160, 144, 128, 96, 80, 64
   1472  1f57		       30 20 10 01*	      .byte.b	48, 32, 16, 1, 240, 224, 208, 192, 176, 160, 144, 128, 96, 80, 64, 48
   1473  1f67		       20 10 01 f0*	      .byte.b	32, 16, 1, 240, 224, 208, 192, 176, 160, 144, 128, 96, 80, 64, 48, 32
   1474  1f77		       10 01 f0 e0*	      .byte.b	16, 1, 240, 224, 208, 192, 176, 160, 144, 128, 96, 80, 64, 48, 32, 16
   1475  1f87		       01 f0 e0 d0*	      .byte.b	1, 240, 224, 208, 192, 176, 160, 144, 128, 96, 80, 64, 48, 32, 16, 1
   1476  1f97		       f0 e0 d0 c0*	      .byte.b	240, 224, 208, 192, 176, 160, 144, 128, 96, 80, 64, 48, 32, 16, 1, 240
   1477  1fa7		       e0 d0 c0 b0*	      .byte.b	224, 208, 192, 176, 160, 144, 128, 96, 80, 64, 48, 32, 16, 1, 240, 224, 208, 192
   1478  1fb9		       b0 a0 90 80*	      .byte.b	176,160,144,128,16,1,240,224
   1479  1fc1
   1480  1fc1				   game
   1481  1fc1				   .
   1482  1fc1							; 
   1483  1fc1
   1484  1fc1				   .
   1485  1fc1							; 
   1486  1fc1
   1487  1fc1				   .
   1488  1fc1							; 
   1489  1fc1
   1490  1fc1				   .L00 		;  set kernel DPC + 
   1491  1fc1
   1492  1fc1				   .L01 		;  set optimization inlinerand
   1493  1fc1
   1494  1fc1				   .L02 		;  set kernel_options collision(player1,playfield)
   1495  1fc1
   1496  1fc1		       00 43	   DPC_kernel_options =	CXP1FB+$40
   1497  1fc1				   .L03 		;  set smartbranching on
   1498  1fc1
   1499  1fc1				   .L04 		;  set tv ntsc
   1500  1fc1
   1501  1fc1				   .
   1502  1fc1							; 
   1503  1fc1
   1504  1fc1				   .
   1505  1fc1							; 
   1506  1fc1
   1507  1fc1				   .L05 		;  const font	=  retroputer
   1508  1fc1
   1509  1fc1				   .L06 		;  const _00  =  $00
   1510  1fc1
   1511  1fc1				   .L07 		;  const _02  =  $02
   1512  1fc1
   1513  1fc1				   .L08 		;  const _04  =  $04
   1514  1fc1
   1515  1fc1				   .L09 		;  const _06  =  $06
   1516  1fc1
   1517  1fc1				   .L010		;  const _08  =  $08
   1518  1fc1
   1519  1fc1				   .L011		;  const _0A  =  $0A
   1520  1fc1
   1521  1fc1				   .L012		;  const _0C  =  $0C
   1522  1fc1
   1523  1fc1				   .L013		;  const _0E  =  $0E
   1524  1fc1
   1525  1fc1				   .L014		;  const _10  =  $10
   1526  1fc1
   1527  1fc1				   .L015		;  const _12  =  $12
   1528  1fc1
   1529  1fc1				   .L016		;  const _14  =  $14
   1530  1fc1
   1531  1fc1				   .L017		;  const _16  =  $16
   1532  1fc1
   1533  1fc1				   .L018		;  const _18  =  $18
   1534  1fc1
   1535  1fc1				   .L019		;  const _1A  =  $1A
   1536  1fc1
   1537  1fc1				   .L020		;  const _1C  =  $1C
   1538  1fc1
   1539  1fc1				   .L021		;  const _1E  =  $1E
   1540  1fc1
   1541  1fc1				   .L022		;  const _20  =  $20
   1542  1fc1
   1543  1fc1				   .L023		;  const _22  =  $22
   1544  1fc1
   1545  1fc1				   .L024		;  const _24  =  $24
   1546  1fc1
   1547  1fc1				   .L025		;  const _26  =  $26
   1548  1fc1
   1549  1fc1				   .L026		;  const _28  =  $28
   1550  1fc1
   1551  1fc1				   .L027		;  const _2A  =  $2A
   1552  1fc1
   1553  1fc1				   .L028		;  const _2C  =  $2C
   1554  1fc1
   1555  1fc1				   .L029		;  const _2E  =  $2E
   1556  1fc1
   1557  1fc1				   .L030		;  const _30  =  $30
   1558  1fc1
   1559  1fc1				   .L031		;  const _32  =  $32
   1560  1fc1
   1561  1fc1				   .L032		;  const _34  =  $34
   1562  1fc1
   1563  1fc1				   .L033		;  const _36  =  $36
   1564  1fc1
   1565  1fc1				   .L034		;  const _38  =  $38
   1566  1fc1
   1567  1fc1				   .L035		;  const _3A  =  $3A
   1568  1fc1
   1569  1fc1				   .L036		;  const _3C  =  $3C
   1570  1fc1
   1571  1fc1				   .L037		;  const _3E  =  $3E
   1572  1fc1
   1573  1fc1				   .L038		;  const _40  =  $40
   1574  1fc1
   1575  1fc1				   .L039		;  const _42  =  $42
   1576  1fc1
   1577  1fc1				   .L040		;  const _44  =  $44
   1578  1fc1
   1579  1fc1				   .L041		;  const _46  =  $46
   1580  1fc1
   1581  1fc1				   .L042		;  const _48  =  $48
   1582  1fc1
   1583  1fc1				   .L043		;  const _4A  =  $4A
   1584  1fc1
   1585  1fc1				   .L044		;  const _4C  =  $4C
   1586  1fc1
   1587  1fc1				   .L045		;  const _4E  =  $4E
   1588  1fc1
   1589  1fc1				   .L046		;  const _50  =  $50
   1590  1fc1
   1591  1fc1				   .L047		;  const _52  =  $52
   1592  1fc1
   1593  1fc1				   .L048		;  const _54  =  $54
   1594  1fc1
   1595  1fc1				   .L049		;  const _56  =  $56
   1596  1fc1
   1597  1fc1				   .L050		;  const _58  =  $58
   1598  1fc1
   1599  1fc1				   .L051		;  const _5A  =  $5A
   1600  1fc1
   1601  1fc1				   .L052		;  const _5C  =  $5C
   1602  1fc1
   1603  1fc1				   .L053		;  const _5E  =  $5E
   1604  1fc1
   1605  1fc1				   .L054		;  const _60  =  $60
   1606  1fc1
   1607  1fc1				   .L055		;  const _62  =  $62
   1608  1fc1
   1609  1fc1				   .L056		;  const _64  =  $64
   1610  1fc1
   1611  1fc1				   .L057		;  const _66  =  $66
   1612  1fc1
   1613  1fc1				   .L058		;  const _68  =  $68
   1614  1fc1
   1615  1fc1				   .L059		;  const _6A  =  $6A
   1616  1fc1
   1617  1fc1				   .L060		;  const _6C  =  $6C
   1618  1fc1
   1619  1fc1				   .L061		;  const _6E  =  $6E
   1620  1fc1
   1621  1fc1				   .L062		;  const _70  =  $70
   1622  1fc1
   1623  1fc1				   .L063		;  const _72  =  $72
   1624  1fc1
   1625  1fc1				   .L064		;  const _74  =  $74
   1626  1fc1
   1627  1fc1				   .L065		;  const _76  =  $76
   1628  1fc1
   1629  1fc1				   .L066		;  const _78  =  $78
   1630  1fc1
   1631  1fc1				   .L067		;  const _7A  =  $7A
   1632  1fc1
   1633  1fc1				   .L068		;  const _7C  =  $7C
   1634  1fc1
   1635  1fc1				   .L069		;  const _7E  =  $7E
   1636  1fc1
   1637  1fc1				   .L070		;  const _80  =  $80
   1638  1fc1
   1639  1fc1				   .L071		;  const _82  =  $82
   1640  1fc1
   1641  1fc1				   .L072		;  const _84  =  $84
   1642  1fc1
   1643  1fc1				   .L073		;  const _86  =  $86
   1644  1fc1
   1645  1fc1				   .L074		;  const _88  =  $88
   1646  1fc1
   1647  1fc1				   .L075		;  const _8A  =  $8A
   1648  1fc1
   1649  1fc1				   .L076		;  const _8C  =  $8C
   1650  1fc1
   1651  1fc1				   .L077		;  const _8E  =  $8E
   1652  1fc1
   1653  1fc1				   .L078		;  const _90  =  $90
   1654  1fc1
   1655  1fc1				   .L079		;  const _92  =  $92
   1656  1fc1
   1657  1fc1				   .L080		;  const _94  =  $94
   1658  1fc1
   1659  1fc1				   .L081		;  const _96  =  $96
   1660  1fc1
   1661  1fc1				   .L082		;  const _98  =  $98
   1662  1fc1
   1663  1fc1				   .L083		;  const _9A  =  $9A
   1664  1fc1
   1665  1fc1				   .L084		;  const _9C  =  $9C
   1666  1fc1
   1667  1fc1				   .L085		;  const _9E  =  $9E
   1668  1fc1
   1669  1fc1				   .L086		;  const _A0  =  $A0
   1670  1fc1
   1671  1fc1				   .L087		;  const _A2  =  $A2
   1672  1fc1
   1673  1fc1				   .L088		;  const _A4  =  $A4
   1674  1fc1
   1675  1fc1				   .L089		;  const _A6  =  $A6
   1676  1fc1
   1677  1fc1				   .L090		;  const _A8  =  $A8
   1678  1fc1
   1679  1fc1				   .L091		;  const _AA  =  $AA
   1680  1fc1
   1681  1fc1				   .L092		;  const _AC  =  $AC
   1682  1fc1
   1683  1fc1				   .L093		;  const _AE  =  $AE
   1684  1fc1
   1685  1fc1				   .L094		;  const _B0  =  $B0
   1686  1fc1
   1687  1fc1				   .L095		;  const _B2  =  $B2
   1688  1fc1
   1689  1fc1				   .L096		;  const _B4  =  $B4
   1690  1fc1
   1691  1fc1				   .L097		;  const _B6  =  $B6
   1692  1fc1
   1693  1fc1				   .L098		;  const _B8  =  $B8
   1694  1fc1
   1695  1fc1				   .L099		;  const _BA  =  $BA
   1696  1fc1
   1697  1fc1				   .L0100		;  const _BC  =  $BC
   1698  1fc1
   1699  1fc1				   .L0101		;  const _BE  =  $BE
   1700  1fc1
   1701  1fc1				   .L0102		;  const _C0  =  $C0
   1702  1fc1
   1703  1fc1				   .L0103		;  const _C2  =  $C2
   1704  1fc1
   1705  1fc1				   .L0104		;  const _C4  =  $C4
   1706  1fc1
   1707  1fc1				   .L0105		;  const _C6  =  $C6
   1708  1fc1
   1709  1fc1				   .L0106		;  const _C8  =  $C8
   1710  1fc1
   1711  1fc1				   .L0107		;  const _CA  =  $CA
   1712  1fc1
   1713  1fc1				   .L0108		;  const _CC  =  $CC
   1714  1fc1
   1715  1fc1				   .L0109		;  const _CE  =  $CE
   1716  1fc1
   1717  1fc1				   .L0110		;  const _D0  =  $D0
   1718  1fc1
   1719  1fc1				   .L0111		;  const _D2  =  $D2
   1720  1fc1
   1721  1fc1				   .L0112		;  const _D4  =  $D4
   1722  1fc1
   1723  1fc1				   .L0113		;  const _D6  =  $D6
   1724  1fc1
   1725  1fc1				   .L0114		;  const _D8  =  $D8
   1726  1fc1
   1727  1fc1				   .L0115		;  const _DA  =  $DA
   1728  1fc1
   1729  1fc1				   .L0116		;  const _DC  =  $DC
   1730  1fc1
   1731  1fc1				   .L0117		;  const _DE  =  $DE
   1732  1fc1
   1733  1fc1				   .L0118		;  const _E0  =  $E0
   1734  1fc1
   1735  1fc1				   .L0119		;  const _E2  =  $E2
   1736  1fc1
   1737  1fc1				   .L0120		;  const _E4  =  $E4
   1738  1fc1
   1739  1fc1				   .L0121		;  const _E6  =  $E6
   1740  1fc1
   1741  1fc1				   .L0122		;  const _E8  =  $E8
   1742  1fc1
   1743  1fc1				   .L0123		;  const _EA  =  $EA
   1744  1fc1
   1745  1fc1				   .L0124		;  const _EC  =  $EC
   1746  1fc1
   1747  1fc1				   .L0125		;  const _EE  =  $EE
   1748  1fc1
   1749  1fc1				   .L0126		;  const _F0  =  $F0
   1750  1fc1
   1751  1fc1				   .L0127		;  const _F2  =  $F2
   1752  1fc1
   1753  1fc1				   .L0128		;  const _F4  =  $F4
   1754  1fc1
   1755  1fc1				   .L0129		;  const _F6  =  $F6
   1756  1fc1
   1757  1fc1				   .L0130		;  const _F8  =  $F8
   1758  1fc1
   1759  1fc1				   .L0131		;  const _FA  =  $FA
   1760  1fc1
   1761  1fc1				   .L0132		;  const _FC  =  $FC
   1762  1fc1
   1763  1fc1				   .L0133		;  const _FE  =  $FE
   1764  1fc1
   1765  1fc1				   .
   1766  1fc1							; 
   1767  1fc1
   1768  1fc1				   .L0134		;  goto __Bank_2 bank2
   1769  1fc1
   1770  1fc1		       85 81		      sta	temp7
   1771  1fc3		       a9 30		      lda	#>(.__Bank_2-1)
   1772  1fc5		       48		      pha
   1773  1fc6		       a9 ed		      lda	#<(.__Bank_2-1)
   1774  1fc8		       48		      pha
   1775  1fc9		       a5 81		      lda	temp7
   1776  1fcb		       48		      pha
   1777  1fcc		       8a		      txa
   1778  1fcd		       48		      pha
   1779  1fce		       a2 02		      ldx	#2
   1780  1fd0		       4c ee df 	      jmp	BS_jsr
   1781  1fd3				   .
   1782  1fd3							; 
   1783  1fd3
   1784  1fd3				   .L0135		;  bank 2
   1785  1fd3
   1786  1fd3					      if	ECHO1
      1 bytes of ROM space left in bank 1
   1787  1fd3					      echo	"    ",[(start_bank1 - *)]d , "bytes of ROM space left in bank 1")
   1788  1fd3					      endif
   1789  1fd3		       00 01	   ECHO1      =	1
   1790  1fd4					      ORG	$1FF4-bscode_length
   1791  1fd4					      RORG	$1FF4-bscode_length
   1792  1fd4		       a2 ff	   start_bank1 ldx	#$ff
   1793  1fd6					      ifconst	FASTFETCH	; using DPC+
   1794  1fd6		       8e 58 10 	      stx	FASTFETCH
   1795  1fd9					      endif
   1796  1fd9		       9a		      txs
   1797  1fda				  -	      if	bankswitch == 64
   1798  1fda				  -	      lda	#(((>(start-1)) & $0F) | $F0)
   1799  1fda					      else
   1800  1fda		       a9 18		      lda	#>(start-1)
   1801  1fdc					      endif
   1802  1fdc		       48		      pha
   1803  1fdd		       a9 e3		      lda	#<(start-1)
   1804  1fdf		       48		      pha
   1805  1fe0		       48		      pha
   1806  1fe1		       8a		      txa
   1807  1fe2		       48		      pha
   1808  1fe3		       ba		      tsx
   1809  1fe4					      if	bankswitch != 64
   1810  1fe4		       b5 04		      lda	4,x	; get high byte of return address
   1811  1fe6		       2a		      rol
   1812  1fe7		       2a		      rol
   1813  1fe8		       2a		      rol
   1814  1fe9		       2a		      rol
   1815  1fea		       29 07		      and	#bs_mask	;1 3 or 7 for F8/F6/F4
   1816  1fec		       aa		      tax
   1817  1fed		       e8		      inx
   1818  1fee				  -	      else
   1819  1fee				  -	      lda	4,x	; get high byte of return address
   1820  1fee				  -	      tay
   1821  1fee				  -	      ora	#$10	; change our bank nibble into a valid rom mirror
   1822  1fee				  -	      sta	4,x
   1823  1fee				  -	      tya
   1824  1fee				  -	      lsr
   1825  1fee				  -	      lsr
   1826  1fee				  -	      lsr
   1827  1fee				  -	      lsr
   1828  1fee				  -	      tax
   1829  1fee				  -	      inx
   1830  1fee					      endif
   1831  1fee		       bd f5 1f 	      lda	bankswitch_hotspot-1,x
   1832  1ff1		       68		      pla
   1833  1ff2		       aa		      tax
   1834  1ff3		       68		      pla
   1835  1ff4		       60		      rts
   1836  1ff5				  -	      if	((* & $1FFF) > ((bankswitch_hotspot & $1FFF) - 1))
   1837  1ff5				  -	      echo	"WARNING: size parameter in banksw.asm too small - the program probably will not work."
   1838  1ff5				  -	      echo	"Change to",[(*-begin_bscode+1)&$FF]d,"and try again."
   1839  1ff5					      endif
   1840  1ffc					      ORG	$1FFC
   1841  1ffc					      RORG	$1FFC
   1842  1ffc		       d4 1f		      .word.w	(start_bank1 & $ffff)
   1843  1ffe		       d4 1f		      .word.w	(start_bank1 & $ffff)
   1844  2000					      ORG	$2000
   1845  2000					      RORG	$3000
   1846  2000				   HMdiv
   1847  2000		       00 00 00 00*	      .byte.b	0, 0, 0, 0, 0, 0, 0
   1848  2007		       01 01 01 01*	      .byte.b	1, 1, 1, 1, 1, 1, 1, 1, 1, 1, 1, 1, 1, 1, 1, 2
   1849  2017		       02 02 02 02*	      .byte.b	2, 2, 2, 2, 2, 2, 2, 2, 2, 2, 2, 2, 2, 2, 3, 3
   1850  2027		       03 03 03 03*	      .byte.b	3, 3, 3, 3, 3, 3, 3, 3, 3, 3, 3, 3, 3, 4, 4, 4
   1851  2037		       04 04 04 04*	      .byte.b	4, 4, 4, 4, 4, 4, 4, 4, 4, 4, 4, 4, 5, 5, 5, 5
   1852  2047		       05 05 05 05*	      .byte.b	5, 5, 5, 5, 5, 5, 5, 5, 5, 5, 5, 6, 6, 6, 6, 6
   1853  2057		       06 06 06 06*	      .byte.b	6, 6, 6, 6, 6, 6, 6, 6, 6, 6, 7, 7, 7, 7, 7, 7
   1854  2067		       07 07 07 07*	      .byte.b	7, 7, 7, 7, 7, 7, 7, 7, 7, 8, 8, 8, 8, 8, 8, 8
   1855  2077		       08 08 08 08*	      .byte.b	8, 8, 8, 8, 8, 8, 8, 8, 9, 9, 9, 9, 9, 9, 9, 9
   1856  2087		       09 09 09 09*	      .byte.b	9, 9, 9, 9, 9, 9, 9, 10, 10, 10, 10, 10, 10, 10, 10, 10
   1857  2097		       0a 0a 0a 0a*	      .byte.b	10,10,10,10,10,10,0,0,0
   1858  20a0				   .L0136		;  temp1 = temp1
   1859  20a0
   1860  20a0		       a5 cb		      LDA	temp1
   1861  20a2		       85 cb		      STA	temp1
   1862  20a4				   .__Reset
   1863  20a4							; __Reset
   1864  20a4
   1865  20a4				   .
   1866  20a4							; 
   1867  20a4
   1868  20a4				   .
   1869  20a4							; 
   1870  20a4
   1871  20a4				   .L0137		;  a  =  0  :	b  =  0  :  c  =  0  :	d  =  0  :  e  =  0  :	f  =  0  :  g  =  0  :	h  =  0  :  i  =  0
   1872  20a4
   1873  20a4		       a9 00		      LDA	#0
   1874  20a6		       85 d1		      STA	a
   1875  20a8		       85 d2		      STA	b
   1876  20aa		       85 d3		      STA	c
   1877  20ac		       85 d4		      STA	d
   1878  20ae		       85 d5		      STA	e
   1879  20b0		       85 d6		      STA	f
   1880  20b2		       85 d7		      STA	g
   1881  20b4		       85 d8		      STA	h
   1882  20b6		       85 d9		      STA	i
   1883  20b8				   .L0138		;  j  =  0  :	k  =  0  :  l  =  0  :	m  =  0  :  n  =  0  :	o  =  0  :  p  =  0  :	q  =  0  :  r  =  0
   1884  20b8
   1885  20b8		       a9 00		      LDA	#0
   1886  20ba		       85 da		      STA	j
   1887  20bc		       85 db		      STA	k
   1888  20be		       85 dc		      STA	l
   1889  20c0		       85 dd		      STA	m
   1890  20c2		       85 de		      STA	n
   1891  20c4		       85 df		      STA	o
   1892  20c6		       85 e0		      STA	p
   1893  20c8		       85 e1		      STA	q
   1894  20ca		       85 e2		      STA	r
   1895  20cc				   .L0139		;  s  =  0  :	t  =  0  :  u  =  0  :	v  =  0  :  w  =  0  :	x  =  0  :  y  =  0  :	z  =  0  :  var0  =  0
   1896  20cc
   1897  20cc		       a9 00		      LDA	#0
   1898  20ce		       85 e3		      STA	s
   1899  20d0		       85 e4		      STA	t
   1900  20d2		       85 e5		      STA	u
   1901  20d4		       85 e6		      STA	v
   1902  20d6		       85 e7		      STA	w
   1903  20d8		       85 e8		      STA	x
   1904  20da		       85 e9		      STA	y
   1905  20dc		       85 ea		      STA	z
   1906  20de		       85 ec		      STA	var0
   1907  20e0				   .L0140		;  var1  =  0	:  var2  =  0  :  var3	=  0  :  var4  =  0  :	var5  =  0  :  var6  =	0
   1908  20e0
   1909  20e0		       a9 00		      LDA	#0
   1910  20e2		       85 ed		      STA	var1
   1911  20e4		       85 ee		      STA	var2
   1912  20e6		       85 ef		      STA	var3
   1913  20e8		       85 f0		      STA	var4
   1914  20ea		       85 f1		      STA	var5
   1915  20ec		       85 f2		      STA	var6
   1916  20ee				   .
   1917  20ee							; 
   1918  20ee
   1919  20ee				   .__Bank_2
   1920  20ee							; __Bank_2
   1921  20ee
   1922  20ee				   .
   1923  20ee							; 
   1924  20ee
   1925  20ee				   .__Variables
   1926  20ee							; __Variables
   1927  20ee
   1928  20ee				   .
   1929  20ee							; 
   1930  20ee
   1931  20ee				   .L0141		;  const _P_Edge_Top  =  9
   1932  20ee
   1933  20ee				   .L0142		;  const _P_Edge_Bottom  =  160
   1934  20ee
   1935  20ee				   .L0143		;  const _P_Edge_Left	=  0
   1936  20ee
   1937  20ee				   .L0144		;  const _P_Edge_Right  =  150
   1938  20ee
   1939  20ee				   .L0145		;  const REdge  = 100
   1940  20ee
   1941  20ee				   .L0146		;  const LEdge  =  60
   1942  20ee
   1943  20ee				   .L0147		;  const pfscore  =  1
   1944  20ee
   1945  20ee				   .L0148		;  dim EnemyHit  =  i
   1946  20ee
   1947  20ee				   .L0149		;  dim drop  =  a
   1948  20ee
   1949  20ee				   .L0150		;  dim Moverate  = b
   1950  20ee
   1951  20ee				   .L0151		;  dim EnemySpeed  =  c
   1952  20ee
   1953  20ee				   .L0152		;  dim Points	=  d
   1954  20ee
   1955  20ee				   .L0153		;  dim frame  = f
   1956  20ee
   1957  20ee				   .L0154		;  dim Bit2_EnemyMove	= z
   1958  20ee
   1959  20ee				   .L0155		;  dim level  =  l
   1960  20ee
   1961  20ee				   .L0156		;  dim Bit1_missleOn  = z
   1962  20ee
   1963  20ee				   .L0157		;  dim HealthDrop  =  n
   1964  20ee
   1965  20ee				   .L0158		;  dim delay  =  o
   1966  20ee
   1967  20ee				   .L0159		;  dim Bit3_ShootorNot  = z
   1968  20ee
   1969  20ee				   .L0160		;  dim Househit  =  q
   1970  20ee
   1971  20ee				   .L0161		;  dim Timer  = t
   1972  20ee
   1973  20ee				   .L0162		;  dim Bit4_gameover  =  z
   1974  20ee
   1975  20ee				   .L0163		;  dim Bit6_PLayer3Direction  = z
   1976  20ee
   1977  20ee				   .L0164		;  dim Bit7_PLayer3Moving  = z
   1978  20ee
   1979  20ee				   .L0165		;  dim V1  =  h
   1980  20ee
   1981  20ee				   .L0166		;  dim Ch1_Sound  =  j
   1982  20ee
   1983  20ee				   .L0167		;  dim Ch1_Duration  =  k
   1984  20ee
   1985  20ee				   .L0168		;  dim Ch1_Counter  =	p
   1986  20ee
   1987  20ee				   .L0169		;  dim V0  =  v
   1988  20ee
   1989  20ee				   .L0170		;  dim Ch0_Sound  =  w
   1990  20ee
   1991  20ee				   .L0171		;  dim Ch0_Duration  =  x
   1992  20ee
   1993  20ee				   .L0172		;  dim Ch0_Counter  =	y
   1994  20ee
   1995  20ee				   .L0173		;  dim Bit5_hit  =  z
   1996  20ee
   1997  20ee				   .L0174		;  dim Bit0_NewLevel  =  z
   1998  20ee
   1999  20ee				   .L0175		;  dim PlayerDamage  =  m
   2000  20ee
   2001  20ee				   .L0176		;  dim gamenumber = u
   2002  20ee
   2003  20ee				   .L0177		;  dim swdebounce = v
   2004  20ee
   2005  20ee				   .L0178		;  dim PlayerHealth  =  e
   2006  20ee
   2007  20ee				   .L0179		;  dim Damage	=  var1
   2008  20ee
   2009  20ee				   .
   2010  20ee							; 
   2011  20ee
   2012  20ee				   .
   2013  20ee							; 
   2014  20ee
   2015  20ee				   .L0180		;  swdebounce = 0
   2016  20ee
   2017  20ee		       a9 00		      LDA	#0
   2018  20f0		       85 e6		      STA	swdebounce
   2019  20f2				   .L0181		;  gamenumber = 1
   2020  20f2
   2021  20f2		       a9 01		      LDA	#1
   2022  20f4		       85 e5		      STA	gamenumber
   2023  20f6				   .L0182		;  level  = 1
   2024  20f6
   2025  20f6		       a9 01		      LDA	#1
   2026  20f8		       85 dc		      STA	level
   2027  20fa				   .__titlepage
   2028  20fa							; __titlepage
   2029  20fa
   2030  20fa				   .L0183		;  delay  =  delay  + 1
   2031  20fa
   2032  20fa		       e6 df		      INC	delay
   2033  20fc				   .L0184		;  gosub __Titlesceen bank6
   2034  20fc
   2035  20fc		       85 81		      sta	temp7
   2036  20fe		       a9 31		      lda	#>(ret_point1-1)
   2037  2100		       48		      pha
   2038  2101		       a9 13		      lda	#<(ret_point1-1)
   2039  2103		       48		      pha
   2040  2104		       a9 b0		      lda	#>(.__Titlesceen-1)
   2041  2106		       48		      pha
   2042  2107		       a9 84		      lda	#<(.__Titlesceen-1)
   2043  2109		       48		      pha
   2044  210a		       a5 81		      lda	temp7
   2045  210c		       48		      pha
   2046  210d		       8a		      txa
   2047  210e		       48		      pha
   2048  210f		       a2 06		      ldx	#6
   2049  2111		       4c ee df 	      jmp	BS_jsr
   2050  2114				   ret_point1
   2051  2114				   .L0185		;  if Bit0_NewLevel{0}  &&  delay  <  120 then __TitleDelay
   2052  2114
   2053  2114		       a5 ea		      LDA	Bit0_NewLevel
   2054  2116		       4a		      LSR
   2055  2117		       90 06		      BCC	.skipL0185
   2056  2119				   .condpart0
   2057  2119		       a5 df		      LDA	delay
   2058  211b		       c9 78		      CMP	#120
   2059  211d					      if	((* - .__TitleDelay) < 127) && ((* - .__TitleDelay) > -128)
   2060  211d		       90 11		      bcc	.__TitleDelay
   2061  211f				  -	      else
   2062  211f				  -	      bcs	.0skip__TitleDelay
   2063  211f				  -	      jmp	.__TitleDelay
   2064  211f				  -.0skip__TitleDelay
   2065  211f					      endif
   2066  211f				   .skipL0185
   2067  211f				   .L0186		;  if joy0fire  ||  switchreset then goto __Gamestart
   2068  211f
   2069  211f		       24 0c		      bit	INPT4
   2070  2121		       30 03		      BMI	.skipL0186
   2071  2123				   .condpart1
   2072  2123		       4c 2d 31 	      jmp	.condpart2
   2073  2126				   .skipL0186
   2074  2126		       a9 01		      lda	#1
   2075  2128		       2c 82 02 	      bit	SWCHB
   2076  212b		       d0 03		      BNE	.skip1OR
   2077  212d				   .condpart2
   2078  212d		       4c 33 31 	      jmp	.__Gamestart
   2079  2130
   2080  2130				   .skip1OR
   2081  2130				   .
   2082  2130							; 
   2083  2130
   2084  2130				   .
   2085  2130							; 
   2086  2130
   2087  2130				   .
   2088  2130							; 
   2089  2130
   2090  2130				   .__TitleDelay
   2091  2130							; __TitleDelay
   2092  2130
   2093  2130				   .L0187		;  goto __titlepage
   2094  2130
   2095  2130		       4c fa 30 	      jmp	.__titlepage
   2096  2133
   2097  2133				   .
   2098  2133							; 
   2099  2133
   2100  2133				   .__Gamestart
   2101  2133							; __Gamestart
   2102  2133
   2103  2133				   .L0188		;  Ch0_Counter = 0 :  Ch0_Duration = 0 :  Ch0_Sound = 0
   2104  2133
   2105  2133		       a9 00		      LDA	#0
   2106  2135		       85 e9		      STA	Ch0_Counter
   2107  2137		       85 e8		      STA	Ch0_Duration
   2108  2139		       85 e7		      STA	Ch0_Sound
   2109  213b				   .L0189		;  Ch1_Counter = 0 :  Ch1_Sound = 0 :	Ch1_Duration = 0
   2110  213b
   2111  213b		       a9 00		      LDA	#0
   2112  213d		       85 e0		      STA	Ch1_Counter
   2113  213f		       85 da		      STA	Ch1_Sound
   2114  2141		       85 db		      STA	Ch1_Duration
   2115  2143				   .L0190		;  swdebounce = 0
   2116  2143
   2117  2143		       a9 00		      LDA	#0
   2118  2145		       85 e6		      STA	swdebounce
   2119  2147				   .L0191		;  Bit4_gameover{4}  = 0
   2120  2147
   2121  2147		       a5 ea		      LDA	Bit4_gameover
   2122  2149		       29 ef		      AND	#239
   2123  214b		       85 ea		      STA	Bit4_gameover
   2124  214d				   .L0192		;  if Bit0_NewLevel{0} then goto __NextLevel
   2125  214d
   2126  214d		       a5 ea		      LDA	Bit0_NewLevel
   2127  214f		       4a		      LSR
   2128  2150		       90 03		      BCC	.skipL0192
   2129  2152				   .condpart3
   2130  2152		       4c a7 31 	      jmp	.__NextLevel
   2131  2155
   2132  2155				   .skipL0192
   2133  2155				   .L0193		;  for Timer  =  1 to 255
   2134  2155
   2135  2155		       a9 01		      LDA	#1
   2136  2157		       85 e4		      STA	Timer
   2137  2159				   .L0193forTimer
   2138  2159				   .L0194		;  next Timer
   2139  2159
   2140  2159		       a5 e4		      LDA	Timer
   2141  215b		       c9 ff		      CMP	#255
   2142  215d
   2143  215d		       e6 e4		      INC	Timer
   2144  215f					      if	((* - .L0193forTimer) < 127) && ((* - .L0193forTimer) > -128)
   2145  215f		       90 f8		      bcc	.L0193forTimer
   2146  2161				  -	      else
   2147  2161				  -	      bcs	.1skipL0193forTimer
   2148  2161				  -	      jmp	.L0193forTimer
   2149  2161				  -.1skipL0193forTimer
   2150  2161					      endif
   2151  2161				   .L0195		;  AUDV0  =  0  :  AUDV1  =  0
   2152  2161
   2153  2161		       a9 00		      LDA	#0
   2154  2163		       85 19		      STA	AUDV0
   2155  2165		       85 1a		      STA	AUDV1
   2156  2167				   .L0196		;  if switchrightb then level = 0  : EnemySpeed  = 3
   2157  2167
   2158  2167		       2c 82 02 	      bit	SWCHB
   2159  216a		       30 08		      BMI	.skipL0196
   2160  216c				   .condpart4
   2161  216c		       a9 00		      LDA	#0
   2162  216e		       85 dc		      STA	level
   2163  2170		       a9 03		      LDA	#3
   2164  2172		       85 d3		      STA	EnemySpeed
   2165  2174				   .skipL0196
   2166  2174				   .L0197		;  if !switchrightb then level  = 2  : EnemySpeed = 5
   2167  2174
   2168  2174		       2c 82 02 	      bit	SWCHB
   2169  2177		       10 08		      BPL	.skipL0197
   2170  2179				   .condpart5
   2171  2179		       a9 02		      LDA	#2
   2172  217b		       85 dc		      STA	level
   2173  217d		       a9 05		      LDA	#5
   2174  217f		       85 d3		      STA	EnemySpeed
   2175  2181				   .skipL0197
   2176  2181				   .L0198		;  EnemySpeed	= 3
   2177  2181
   2178  2181		       a9 03		      LDA	#3
   2179  2183		       85 d3		      STA	EnemySpeed
   2180  2185				   .L0199		;  score = 000000
   2181  2185
   2182  2185		       a9 00		      LDA	#$00
   2183  2187		       85 ba		      STA	score+2
   2184  2189		       a9 00		      LDA	#$00
   2185  218b		       85 b9		      STA	score+1
   2186  218d		       a9 00		      LDA	#$00
   2187  218f		       85 b8		      STA	score
   2188  2191				   .L0200		;  Bit4_gameover{4}  = 0
   2189  2191
   2190  2191		       a5 ea		      LDA	Bit4_gameover
   2191  2193		       29 ef		      AND	#239
   2192  2195		       85 ea		      STA	Bit4_gameover
   2193  2197				   .L0201		;  V0	= 2
   2194  2197
   2195  2197		       a9 02		      LDA	#2
   2196  2199		       85 e6		      STA	V0
   2197  219b				   .L0202		;  Ch0_Duration  =  10
   2198  219b
   2199  219b		       a9 0a		      LDA	#10
   2200  219d		       85 e8		      STA	Ch0_Duration
   2201  219f				   .L0203		;  V1	= 2
   2202  219f
   2203  219f		       a9 02		      LDA	#2
   2204  21a1		       85 d8		      STA	V1
   2205  21a3				   .L0204		;  Ch1_Duration  =  10
   2206  21a3
   2207  21a3		       a9 0a		      LDA	#10
   2208  21a5		       85 db		      STA	Ch1_Duration
   2209  21a7				   .
   2210  21a7							; 
   2211  21a7
   2212  21a7				   .__NextLevel
   2213  21a7							; __NextLevel
   2214  21a7
   2215  21a7				   .L0205		;  gamenumber = gamenumber + 1
   2216  21a7
   2217  21a7		       e6 e5		      INC	gamenumber
   2218  21a9				   .
   2219  21a9							; 
   2220  21a9
   2221  21a9				   .L0206		;  Bit0_NewLevel{0}  =  0
   2222  21a9
   2223  21a9		       a5 ea		      LDA	Bit0_NewLevel
   2224  21ab		       29 fe		      AND	#254
   2225  21ad		       85 ea		      STA	Bit0_NewLevel
   2226  21af				   .L0207		;  pfscore2  =  %11111111
   2227  21af
   2228  21af		       a9 ff		      LDA	#%11111111
   2229  21b1		       85 c9		      STA	pfscore2
   2230  21b3				   .L0208		;  pfscore1  =  %11111111
   2231  21b3
   2232  21b3		       a9 ff		      LDA	#%11111111
   2233  21b5		       85 c8		      STA	pfscore1
   2234  21b7				   .L0209		;  PlayerHealth  =  80
   2235  21b7
   2236  21b7		       a9 50		      LDA	#80
   2237  21b9		       85 d5		      STA	PlayerHealth
   2238  21bb				   .L0210		;  AUDV0  =  0  :  AUDV1  =  0
   2239  21bb
   2240  21bb		       a9 00		      LDA	#0
   2241  21bd		       85 19		      STA	AUDV0
   2242  21bf		       85 1a		      STA	AUDV1
   2243  21c1				   .L0211		;  Ch0_Counter = 0 :  Ch0_Duration = 0 :  Ch0_Sound = 0
   2244  21c1
   2245  21c1		       a9 00		      LDA	#0
   2246  21c3		       85 e9		      STA	Ch0_Counter
   2247  21c5		       85 e8		      STA	Ch0_Duration
   2248  21c7		       85 e7		      STA	Ch0_Sound
   2249  21c9				   .L0212		;  Ch1_Counter = 0 :  Ch1_Sound = 0 :	Ch1_Duration = 0
   2250  21c9
   2251  21c9		       a9 00		      LDA	#0
   2252  21cb		       85 e0		      STA	Ch1_Counter
   2253  21cd		       85 da		      STA	Ch1_Sound
   2254  21cf		       85 db		      STA	Ch1_Duration
   2255  21d1				   .L0213		;  delay  =  0
   2256  21d1
   2257  21d1		       a9 00		      LDA	#0
   2258  21d3		       85 df		      STA	delay
   2259  21d5				   .L0214		;  player5x  = 200 :  player5y  = 200
   2260  21d5
   2261  21d5		       a9 c8		      LDA	#200
   2262  21d7		       85 94		      STA	player5x
   2263  21d9		       85 9e		      STA	player5y
   2264  21db				   .L0215		;  player6x  = 200 :  player6y  = 200
   2265  21db
   2266  21db		       a9 c8		      LDA	#200
   2267  21dd		       85 95		      STA	player6x
   2268  21df		       85 9f		      STA	player6y
   2269  21e1				   .L0216		;  player7x  = 200 :  player7y  = 200
   2270  21e1
   2271  21e1		       a9 c8		      LDA	#200
   2272  21e3		       85 96		      STA	player7x
   2273  21e5		       85 a0		      STA	player7y
   2274  21e7				   .L0217		;  player1y  =  25 :  player1x  =  rand
   2275  21e7
   2276  21e7		       a9 19		      LDA	#25
   2277  21e9		       85 9a		      STA	player1y
   2278  21eb		       ad 00 10 	      lda	rand
   2279  21ee		       4a		      lsr
   2280  21ef				  -	      ifconst	rand16
   2281  21ef				  -	      rol	rand16
   2282  21ef					      endif
   2283  21ef		       90 02		      bcc	*+4
   2284  21f1		       49 b4		      eor	#$B4
   2285  21f3		       8d 00 10 	      sta	rand
   2286  21f6				  -	      ifconst	rand16
   2287  21f6				  -	      eor	rand16
   2288  21f6					      endif
   2289  21f6		       85 90		      STA	player1x
   2290  21f8				   .L0218		;  player2y  =  10 :  player2x  =  rand
   2291  21f8
   2292  21f8		       a9 0a		      LDA	#10
   2293  21fa		       85 9b		      STA	player2y
   2294  21fc		       ad 00 10 	      lda	rand
   2295  21ff		       4a		      lsr
   2296  2200				  -	      ifconst	rand16
   2297  2200				  -	      rol	rand16
   2298  2200					      endif
   2299  2200		       90 02		      bcc	*+4
   2300  2202		       49 b4		      eor	#$B4
   2301  2204		       8d 00 10 	      sta	rand
   2302  2207				  -	      ifconst	rand16
   2303  2207				  -	      eor	rand16
   2304  2207					      endif
   2305  2207		       85 91		      STA	player2x
   2306  2209				   .L0219		;  if LEdge  <=  80 then player3y  =  15 :  player3x  = 150
   2307  2209
   2308  2209		       a9 50		      LDA	#80
   2309  220b		       c9 3c		      CMP	#LEdge
   2310  220d		       90 08		      BCC	.skipL0219
   2311  220f				   .condpart6
   2312  220f		       a9 0f		      LDA	#15
   2313  2211		       85 9c		      STA	player3y
   2314  2213		       a9 96		      LDA	#150
   2315  2215		       85 92		      STA	player3x
   2316  2217				   .skipL0219
   2317  2217				   .L0220		;  if LEdge  >  80 then player3y  =  15 :  player3x  = 15
   2318  2217
   2319  2217		       a9 50		      LDA	#80
   2320  2219		       c9 3c		      CMP	#LEdge
   2321  221b		       b0 06		      BCS	.skipL0220
   2322  221d				   .condpart7
   2323  221d		       a9 0f		      LDA	#15
   2324  221f		       85 9c		      STA	player3y
   2325  2221		       85 92		      STA	player3x
   2326  2223				   .skipL0220
   2327  2223				   .L0221		;  player4y  = 200
   2328  2223
   2329  2223		       a9 c8		      LDA	#200
   2330  2225		       85 9d		      STA	player4y
   2331  2227				   .L0222		;  dec level = level + 1
   2332  2227
   2333  2227		       f8		      SED
   2334  2228		       a5 dc		      LDA	level
   2335  222a		       18		      CLC
   2336  222b		       69 01		      ADC	#1
   2337  222d		       85 dc		      STA	level
   2338  222f		       d8		      CLD
   2339  2230				   .L0223		;  Bit1_missleOn{1}  =  0
   2340  2230
   2341  2230		       a5 ea		      LDA	Bit1_missleOn
   2342  2232		       29 fd		      AND	#253
   2343  2234		       85 ea		      STA	Bit1_missleOn
   2344  2236				   .L0224		;  Househit = 1
   2345  2236
   2346  2236		       a9 01		      LDA	#1
   2347  2238		       85 e1		      STA	Househit
   2348  223a				   .L0225		;  Bit2_EnemyMove{2} = 0
   2349  223a
   2350  223a		       a5 ea		      LDA	Bit2_EnemyMove
   2351  223c		       29 fb		      AND	#251
   2352  223e		       85 ea		      STA	Bit2_EnemyMove
   2353  2240				   .L0226		;  if level  <  8 then EnemySpeed = EnemySpeed + 1
   2354  2240
   2355  2240		       a5 dc		      LDA	level
   2356  2242		       c9 08		      CMP	#8
   2357  2244		       b0 02		      BCS	.skipL0226
   2358  2246				   .condpart8
   2359  2246		       e6 d3		      INC	EnemySpeed
   2360  2248				   .skipL0226
   2361  2248				   .L0227		;  PlayerDamage = 0
   2362  2248
   2363  2248		       a9 00		      LDA	#0
   2364  224a		       85 dd		      STA	PlayerDamage
   2365  224c				   .L0228		;  frame = 0
   2366  224c
   2367  224c		       a9 00		      LDA	#0
   2368  224e		       85 d6		      STA	frame
   2369  2250				   .L0229		;  gosub __Playfield1 bank3
   2370  2250
   2371  2250		       85 81		      sta	temp7
   2372  2252		       a9 32		      lda	#>(ret_point2-1)
   2373  2254		       48		      pha
   2374  2255		       a9 67		      lda	#<(ret_point2-1)
   2375  2257		       48		      pha
   2376  2258		       a9 50		      lda	#>(.__Playfield1-1)
   2377  225a		       48		      pha
   2378  225b		       a9 84		      lda	#<(.__Playfield1-1)
   2379  225d		       48		      pha
   2380  225e		       a5 81		      lda	temp7
   2381  2260		       48		      pha
   2382  2261		       8a		      txa
   2383  2262		       48		      pha
   2384  2263		       a2 03		      ldx	#3
   2385  2265		       4c ee df 	      jmp	BS_jsr
   2386  2268				   ret_point2
   2387  2268				   .L0230		;  Bit5_hit{5}  = 0
   2388  2268
   2389  2268		       a5 ea		      LDA	Bit5_hit
   2390  226a		       29 df		      AND	#223
   2391  226c		       85 ea		      STA	Bit5_hit
   2392  226e				   .
   2393  226e							; 
   2394  226e
   2395  226e				   .
   2396  226e							; 
   2397  226e
   2398  226e				   .
   2399  226e							; 
   2400  226e
   2401  226e				   .
   2402  226e							; 
   2403  226e
   2404  226e				   .
   2405  226e							; 
   2406  226e
   2407  226e				   .
   2408  226e							; 
   2409  226e
   2410  226e				   .__GameVar
   2411  226e							; __GameVar
   2412  226e
   2413  226e				   .L0231		;  PlayerHealth  =  80
   2414  226e
   2415  226e		       a9 50		      LDA	#80
   2416  2270		       85 d5		      STA	PlayerHealth
   2417  2272				   .L0232		;  player0x  =  75
   2418  2272
   2419  2272		       a9 4b		      LDA	#75
   2420  2274		       85 80		      STA	player0x
   2421  2276				   .L0233		;  player0y  =  160
   2422  2276
   2423  2276		       a9 a0		      LDA	#160
   2424  2278		       85 99		      STA	player0y
   2425  227a				   .L0234		;  missile0x  =  200  :  missile0y  =	200
   2426  227a
   2427  227a		       a9 c8		      LDA	#200
   2428  227c		       85 82		      STA	missile0x
   2429  227e		       85 bf		      STA	missile0y
   2430  2280				   .L0235		;  missile0height  =  12
   2431  2280
   2432  2280		       a9 0c		      LDA	#12
   2433  2282		       85 c2		      STA	missile0height
   2434  2284				   .L0236		;  missile1x  =  200  :  missile1y  =	200
   2435  2284
   2436  2284		       a9 c8		      LDA	#200
   2437  2286		       85 83		      STA	missile1x
   2438  2288		       85 c0		      STA	missile1y
   2439  228a				   .L0237		;  missile1height  =  8
   2440  228a
   2441  228a		       a9 08		      LDA	#8
   2442  228c		       85 c3		      STA	missile1height
   2443  228e				   .L0238		;  Bit1_missleOn{1} = 0
   2444  228e
   2445  228e		       a5 ea		      LDA	Bit1_missleOn
   2446  2290		       29 fd		      AND	#253
   2447  2292		       85 ea		      STA	Bit1_missleOn
   2448  2294				   .L0239		;  drop  = 0
   2449  2294
   2450  2294		       a9 00		      LDA	#0
   2451  2296		       85 d1		      STA	drop
   2452  2298				   .L0240		;  dim sc1  =	score
   2453  2298
   2454  2298				   .L0241		;  CTRLPF = $21
   2455  2298
   2456  2298		       a9 21		      LDA	#$21
   2457  229a		       85 0a		      STA	CTRLPF
   2458  229c				   .L0242		;  EnemyHit  =  0
   2459  229c
   2460  229c		       a9 00		      LDA	#0
   2461  229e		       85 d9		      STA	EnemyHit
   2462  22a0				   .L0243		;  Bit6_PLayer3Direction{6} = 0
   2463  22a0
   2464  22a0		       a5 ea		      LDA	Bit6_PLayer3Direction
   2465  22a2		       29 bf		      AND	#191
   2466  22a4		       85 ea		      STA	Bit6_PLayer3Direction
   2467  22a6				   .
   2468  22a6							; 
   2469  22a6
   2470  22a6				   .__Main_Loop
   2471  22a6							; __Main_Loop
   2472  22a6
   2473  22a6				   .
   2474  22a6							; 
   2475  22a6
   2476  22a6				   .L0244		;  NUSIZ0  =  $00
   2477  22a6
   2478  22a6		       a9 00		      LDA	#$00
   2479  22a8		       85 04		      STA	NUSIZ0
   2480  22aa				   .L0245		;  delay  =  delay  + 1
   2481  22aa
   2482  22aa		       e6 df		      INC	delay
   2483  22ac				   .L0246		;  if delay  <  60 then __Resume
   2484  22ac
   2485  22ac		       a5 df		      LDA	delay
   2486  22ae		       c9 3c		      CMP	#60
   2487  22b0				  -	      if	((* - .__Resume) < 127) && ((* - .__Resume) > -128)
   2488  22b0				  -	      bcc	.__Resume
   2489  22b0					      else
   2490  22b0		       b0 03		      bcs	.2skip__Resume
   2491  22b2		       4c 42 3e 	      jmp	.__Resume
   2492  22b5				   .2skip__Resume
   2493  22b5					      endif
   2494  22b5				   .L0247		;  if delay  >  61 then delay	=  71
   2495  22b5
   2496  22b5		       a9 3d		      LDA	#61
   2497  22b7		       c5 df		      CMP	delay
   2498  22b9		       b0 04		      BCS	.skipL0247
   2499  22bb				   .condpart9
   2500  22bb		       a9 47		      LDA	#71
   2501  22bd		       85 df		      STA	delay
   2502  22bf				   .skipL0247
   2503  22bf				   .L0248		;  if switchreset goto __Reset
   2504  22bf
   2505  22bf		       a9 01		      lda	#1
   2506  22c1		       2c 82 02 	      bit	SWCHB
   2507  22c4				  -	      if	((* - .__Reset) < 127) && ((* - .__Reset) > -128)
   2508  22c4				  -	      BEQ	.__Reset
   2509  22c4					      else
   2510  22c4		       d0 03		      bne	.3skip__Reset
   2511  22c6		       4c a4 30 	      jmp	.__Reset
   2512  22c9				   .3skip__Reset
   2513  22c9					      endif
   2514  22c9				   .L0249		;  if Bit4_gameover{4} then goto __SkipMove
   2515  22c9
   2516  22c9		       a5 ea		      LDA	Bit4_gameover
   2517  22cb		       29 10		      AND	#16
   2518  22cd		       f0 03		      BEQ	.skipL0249
   2519  22cf				   .condpart10
   2520  22cf		       4c 92 3b 	      jmp	.__SkipMove
   2521  22d2
   2522  22d2				   .skipL0249
   2523  22d2				   .L0250		;  if PlayerHealth  <= 0 then Bit4_gameover{4}  = 1
   2524  22d2
   2525  22d2		       a9 00		      LDA	#0
   2526  22d4		       c5 d5		      CMP	PlayerHealth
   2527  22d6		       90 06		      BCC	.skipL0250
   2528  22d8				   .condpart11
   2529  22d8		       a5 ea		      LDA	Bit4_gameover
   2530  22da		       09 10		      ORA	#16
   2531  22dc		       85 ea		      STA	Bit4_gameover
   2532  22de				   .skipL0250
   2533  22de				   .L0251		;  if Bit4_gameover{4} then gosub __GameOver bank4
   2534  22de
   2535  22de		       a5 ea		      LDA	Bit4_gameover
   2536  22e0		       29 10		      AND	#16
   2537  22e2		       f0 18		      BEQ	.skipL0251
   2538  22e4				   .condpart12
   2539  22e4		       85 81		      sta	temp7
   2540  22e6		       a9 32		      lda	#>(ret_point3-1)
   2541  22e8		       48		      pha
   2542  22e9		       a9 fb		      lda	#<(ret_point3-1)
   2543  22eb		       48		      pha
   2544  22ec		       a9 75		      lda	#>(.__GameOver-1)
   2545  22ee		       48		      pha
   2546  22ef		       a9 a5		      lda	#<(.__GameOver-1)
   2547  22f1		       48		      pha
   2548  22f2		       a5 81		      lda	temp7
   2549  22f4		       48		      pha
   2550  22f5		       8a		      txa
   2551  22f6		       48		      pha
   2552  22f7		       a2 04		      ldx	#4
   2553  22f9		       4c ee df 	      jmp	BS_jsr
   2554  22fc				   ret_point3
   2555  22fc				   .skipL0251
   2556  22fc				   .L0252		;  if Househit = 2 then gosub __PFColors bank3
   2557  22fc
   2558  22fc		       a5 e1		      LDA	Househit
   2559  22fe		       c9 02		      CMP	#2
   2560  2300		       d0 18		      BNE	.skipL0252
   2561  2302				   .condpart13
   2562  2302		       85 81		      sta	temp7
   2563  2304		       a9 33		      lda	#>(ret_point4-1)
   2564  2306		       48		      pha
   2565  2307		       a9 19		      lda	#<(ret_point4-1)
   2566  2309		       48		      pha
   2567  230a		       a9 51		      lda	#>(.__PFColors-1)
   2568  230c		       48		      pha
   2569  230d		       a9 01		      lda	#<(.__PFColors-1)
   2570  230f		       48		      pha
   2571  2310		       a5 81		      lda	temp7
   2572  2312		       48		      pha
   2573  2313		       8a		      txa
   2574  2314		       48		      pha
   2575  2315		       a2 03		      ldx	#3
   2576  2317		       4c ee df 	      jmp	BS_jsr
   2577  231a				   ret_point4
   2578  231a				   .skipL0252
   2579  231a				   .L0253		;  if Househit = 3 then gosub __PFColors1 bank3
   2580  231a
   2581  231a		       a5 e1		      LDA	Househit
   2582  231c		       c9 03		      CMP	#3
   2583  231e		       d0 18		      BNE	.skipL0253
   2584  2320				   .condpart14
   2585  2320		       85 81		      sta	temp7
   2586  2322		       a9 33		      lda	#>(ret_point5-1)
   2587  2324		       48		      pha
   2588  2325		       a9 37		      lda	#<(ret_point5-1)
   2589  2327		       48		      pha
   2590  2328		       a9 51		      lda	#>(.__PFColors1-1)
   2591  232a		       48		      pha
   2592  232b		       a9 3c		      lda	#<(.__PFColors1-1)
   2593  232d		       48		      pha
   2594  232e		       a5 81		      lda	temp7
   2595  2330		       48		      pha
   2596  2331		       8a		      txa
   2597  2332		       48		      pha
   2598  2333		       a2 03		      ldx	#3
   2599  2335		       4c ee df 	      jmp	BS_jsr
   2600  2338				   ret_point5
   2601  2338				   .skipL0253
   2602  2338				   .L0254		;  if Househit = 4 then gosub __PFColors2 bank3
   2603  2338
   2604  2338		       a5 e1		      LDA	Househit
   2605  233a		       c9 04		      CMP	#4
   2606  233c		       d0 18		      BNE	.skipL0254
   2607  233e				   .condpart15
   2608  233e		       85 81		      sta	temp7
   2609  2340		       a9 33		      lda	#>(ret_point6-1)
   2610  2342		       48		      pha
   2611  2343		       a9 55		      lda	#<(ret_point6-1)
   2612  2345		       48		      pha
   2613  2346		       a9 51		      lda	#>(.__PFColors2-1)
   2614  2348		       48		      pha
   2615  2349		       a9 77		      lda	#<(.__PFColors2-1)
   2616  234b		       48		      pha
   2617  234c		       a5 81		      lda	temp7
   2618  234e		       48		      pha
   2619  234f		       8a		      txa
   2620  2350		       48		      pha
   2621  2351		       a2 03		      ldx	#3
   2622  2353		       4c ee df 	      jmp	BS_jsr
   2623  2356				   ret_point6
   2624  2356				   .skipL0254
   2625  2356				   .L0255		;  if Househit = 5 then gosub __PFColors3 bank3
   2626  2356
   2627  2356		       a5 e1		      LDA	Househit
   2628  2358		       c9 05		      CMP	#5
   2629  235a		       d0 18		      BNE	.skipL0255
   2630  235c				   .condpart16
   2631  235c		       85 81		      sta	temp7
   2632  235e		       a9 33		      lda	#>(ret_point7-1)
   2633  2360		       48		      pha
   2634  2361		       a9 73		      lda	#<(ret_point7-1)
   2635  2363		       48		      pha
   2636  2364		       a9 51		      lda	#>(.__PFColors3-1)
   2637  2366		       48		      pha
   2638  2367		       a9 b2		      lda	#<(.__PFColors3-1)
   2639  2369		       48		      pha
   2640  236a		       a5 81		      lda	temp7
   2641  236c		       48		      pha
   2642  236d		       8a		      txa
   2643  236e		       48		      pha
   2644  236f		       a2 03		      ldx	#3
   2645  2371		       4c ee df 	      jmp	BS_jsr
   2646  2374				   ret_point7
   2647  2374				   .skipL0255
   2648  2374				   .L0256		;  if Househit = 6 then gosub __PFColors4 bank3
   2649  2374
   2650  2374		       a5 e1		      LDA	Househit
   2651  2376		       c9 06		      CMP	#6
   2652  2378		       d0 18		      BNE	.skipL0256
   2653  237a				   .condpart17
   2654  237a		       85 81		      sta	temp7
   2655  237c		       a9 33		      lda	#>(ret_point8-1)
   2656  237e		       48		      pha
   2657  237f		       a9 91		      lda	#<(ret_point8-1)
   2658  2381		       48		      pha
   2659  2382		       a9 51		      lda	#>(.__PFColors4-1)
   2660  2384		       48		      pha
   2661  2385		       a9 f1		      lda	#<(.__PFColors4-1)
   2662  2387		       48		      pha
   2663  2388		       a5 81		      lda	temp7
   2664  238a		       48		      pha
   2665  238b		       8a		      txa
   2666  238c		       48		      pha
   2667  238d		       a2 03		      ldx	#3
   2668  238f		       4c ee df 	      jmp	BS_jsr
   2669  2392				   ret_point8
   2670  2392				   .skipL0256
   2671  2392				   .L0257		;  if Househit = 7 then gosub __PFColors5 bank3
   2672  2392
   2673  2392		       a5 e1		      LDA	Househit
   2674  2394		       c9 07		      CMP	#7
   2675  2396		       d0 18		      BNE	.skipL0257
   2676  2398				   .condpart18
   2677  2398		       85 81		      sta	temp7
   2678  239a		       a9 33		      lda	#>(ret_point9-1)
   2679  239c		       48		      pha
   2680  239d		       a9 af		      lda	#<(ret_point9-1)
   2681  239f		       48		      pha
   2682  23a0		       a9 52		      lda	#>(.__PFColors5-1)
   2683  23a2		       48		      pha
   2684  23a3		       a9 2c		      lda	#<(.__PFColors5-1)
   2685  23a5		       48		      pha
   2686  23a6		       a5 81		      lda	temp7
   2687  23a8		       48		      pha
   2688  23a9		       8a		      txa
   2689  23aa		       48		      pha
   2690  23ab		       a2 03		      ldx	#3
   2691  23ad		       4c ee df 	      jmp	BS_jsr
   2692  23b0				   ret_point9
   2693  23b0				   .skipL0257
   2694  23b0				   .L0258		;  if Househit = 8 then gosub __PFColors6 bank3
   2695  23b0
   2696  23b0		       a5 e1		      LDA	Househit
   2697  23b2		       c9 08		      CMP	#8
   2698  23b4		       d0 18		      BNE	.skipL0258
   2699  23b6				   .condpart19
   2700  23b6		       85 81		      sta	temp7
   2701  23b8		       a9 33		      lda	#>(ret_point10-1)
   2702  23ba		       48		      pha
   2703  23bb		       a9 cd		      lda	#<(ret_point10-1)
   2704  23bd		       48		      pha
   2705  23be		       a9 52		      lda	#>(.__PFColors6-1)
   2706  23c0		       48		      pha
   2707  23c1		       a9 5c		      lda	#<(.__PFColors6-1)
   2708  23c3		       48		      pha
   2709  23c4		       a5 81		      lda	temp7
   2710  23c6		       48		      pha
   2711  23c7		       8a		      txa
   2712  23c8		       48		      pha
   2713  23c9		       a2 03		      ldx	#3
   2714  23cb		       4c ee df 	      jmp	BS_jsr
   2715  23ce				   ret_point10
   2716  23ce				   .skipL0258
   2717  23ce				   .L0259		;  if Househit = 9 then gosub __PFColors7 bank3
   2718  23ce
   2719  23ce		       a5 e1		      LDA	Househit
   2720  23d0		       c9 09		      CMP	#9
   2721  23d2		       d0 18		      BNE	.skipL0259
   2722  23d4				   .condpart20
   2723  23d4		       85 81		      sta	temp7
   2724  23d6		       a9 33		      lda	#>(ret_point11-1)
   2725  23d8		       48		      pha
   2726  23d9		       a9 eb		      lda	#<(ret_point11-1)
   2727  23db		       48		      pha
   2728  23dc		       a9 52		      lda	#>(.__PFColors7-1)
   2729  23de		       48		      pha
   2730  23df		       a9 9b		      lda	#<(.__PFColors7-1)
   2731  23e1		       48		      pha
   2732  23e2		       a5 81		      lda	temp7
   2733  23e4		       48		      pha
   2734  23e5		       8a		      txa
   2735  23e6		       48		      pha
   2736  23e7		       a2 03		      ldx	#3
   2737  23e9		       4c ee df 	      jmp	BS_jsr
   2738  23ec				   ret_point11
   2739  23ec				   .skipL0259
   2740  23ec				   .L0260		;  if Househit = 10 then gosub __PFColors8 bank3
   2741  23ec
   2742  23ec		       a5 e1		      LDA	Househit
   2743  23ee		       c9 0a		      CMP	#10
   2744  23f0		       d0 18		      BNE	.skipL0260
   2745  23f2				   .condpart21
   2746  23f2		       85 81		      sta	temp7
   2747  23f4		       a9 34		      lda	#>(ret_point12-1)
   2748  23f6		       48		      pha
   2749  23f7		       a9 09		      lda	#<(ret_point12-1)
   2750  23f9		       48		      pha
   2751  23fa		       a9 52		      lda	#>(.__PFColors8-1)
   2752  23fc		       48		      pha
   2753  23fd		       a9 cb		      lda	#<(.__PFColors8-1)
   2754  23ff		       48		      pha
   2755  2400		       a5 81		      lda	temp7
   2756  2402		       48		      pha
   2757  2403		       8a		      txa
   2758  2404		       48		      pha
   2759  2405		       a2 03		      ldx	#3
   2760  2407		       4c ee df 	      jmp	BS_jsr
   2761  240a				   ret_point12
   2762  240a				   .skipL0260
   2763  240a				   .L0261		;  if Househit = 11 then gosub __PFColors9 bank3
   2764  240a
   2765  240a		       a5 e1		      LDA	Househit
   2766  240c		       c9 0b		      CMP	#11
   2767  240e		       d0 18		      BNE	.skipL0261
   2768  2410				   .condpart22
   2769  2410		       85 81		      sta	temp7
   2770  2412		       a9 34		      lda	#>(ret_point13-1)
   2771  2414		       48		      pha
   2772  2415		       a9 27		      lda	#<(ret_point13-1)
   2773  2417		       48		      pha
   2774  2418		       a9 52		      lda	#>(.__PFColors9-1)
   2775  241a		       48		      pha
   2776  241b		       a9 fb		      lda	#<(.__PFColors9-1)
   2777  241d		       48		      pha
   2778  241e		       a5 81		      lda	temp7
   2779  2420		       48		      pha
   2780  2421		       8a		      txa
   2781  2422		       48		      pha
   2782  2423		       a2 03		      ldx	#3
   2783  2425		       4c ee df 	      jmp	BS_jsr
   2784  2428				   ret_point13
   2785  2428				   .skipL0261
   2786  2428				   .L0262		;  if Househit = 12 then gosub __PFColors10 bank3
   2787  2428
   2788  2428		       a5 e1		      LDA	Househit
   2789  242a		       c9 0c		      CMP	#12
   2790  242c		       d0 18		      BNE	.skipL0262
   2791  242e				   .condpart23
   2792  242e		       85 81		      sta	temp7
   2793  2430		       a9 34		      lda	#>(ret_point14-1)
   2794  2432		       48		      pha
   2795  2433		       a9 45		      lda	#<(ret_point14-1)
   2796  2435		       48		      pha
   2797  2436		       a9 53		      lda	#>(.__PFColors10-1)
   2798  2438		       48		      pha
   2799  2439		       a9 2b		      lda	#<(.__PFColors10-1)
   2800  243b		       48		      pha
   2801  243c		       a5 81		      lda	temp7
   2802  243e		       48		      pha
   2803  243f		       8a		      txa
   2804  2440		       48		      pha
   2805  2441		       a2 03		      ldx	#3
   2806  2443		       4c ee df 	      jmp	BS_jsr
   2807  2446				   ret_point14
   2808  2446				   .skipL0262
   2809  2446				   .L0263		;  if Househit > 12 then gosub __GameOver bank4
   2810  2446
   2811  2446		       a9 0c		      LDA	#12
   2812  2448		       c5 e1		      CMP	Househit
   2813  244a		       b0 18		      BCS	.skipL0263
   2814  244c				   .condpart24
   2815  244c		       85 81		      sta	temp7
   2816  244e		       a9 34		      lda	#>(ret_point15-1)
   2817  2450		       48		      pha
   2818  2451		       a9 63		      lda	#<(ret_point15-1)
   2819  2453		       48		      pha
   2820  2454		       a9 75		      lda	#>(.__GameOver-1)
   2821  2456		       48		      pha
   2822  2457		       a9 a5		      lda	#<(.__GameOver-1)
   2823  2459		       48		      pha
   2824  245a		       a5 81		      lda	temp7
   2825  245c		       48		      pha
   2826  245d		       8a		      txa
   2827  245e		       48		      pha
   2828  245f		       a2 04		      ldx	#4
   2829  2461		       4c ee df 	      jmp	BS_jsr
   2830  2464				   ret_point15
   2831  2464				   .skipL0263
   2832  2464				   .L0264		;  if EnemyHit  >  0 then Bit1_missleOn{1}  =	0 :  missile0y = 200
   2833  2464
   2834  2464		       a9 00		      LDA	#0
   2835  2466		       c5 d9		      CMP	EnemyHit
   2836  2468		       b0 0a		      BCS	.skipL0264
   2837  246a				   .condpart25
   2838  246a		       a5 ea		      LDA	Bit1_missleOn
   2839  246c		       29 fd		      AND	#253
   2840  246e		       85 ea		      STA	Bit1_missleOn
   2841  2470		       a9 c8		      LDA	#200
   2842  2472		       85 bf		      STA	missile0y
   2843  2474				   .skipL0264
   2844  2474				   .L0265		;  if PlayerHealth >  0 then pfscore2	= %00000001
   2845  2474
   2846  2474		       a9 00		      LDA	#0
   2847  2476		       c5 d5		      CMP	PlayerHealth
   2848  2478		       b0 04		      BCS	.skipL0265
   2849  247a				   .condpart26
   2850  247a		       a9 01		      LDA	#%00000001
   2851  247c		       85 c9		      STA	pfscore2
   2852  247e				   .skipL0265
   2853  247e				   .L0266		;  if PlayerHealth >  10 then pfscore2  = %00000011
   2854  247e
   2855  247e		       a9 0a		      LDA	#10
   2856  2480		       c5 d5		      CMP	PlayerHealth
   2857  2482		       b0 04		      BCS	.skipL0266
   2858  2484				   .condpart27
   2859  2484		       a9 03		      LDA	#%00000011
   2860  2486		       85 c9		      STA	pfscore2
   2861  2488				   .skipL0266
   2862  2488				   .L0267		;  if PlayerHealth >  20 then pfscore2  = %00000111
   2863  2488
   2864  2488		       a9 14		      LDA	#20
   2865  248a		       c5 d5		      CMP	PlayerHealth
   2866  248c		       b0 04		      BCS	.skipL0267
   2867  248e				   .condpart28
   2868  248e		       a9 07		      LDA	#%00000111
   2869  2490		       85 c9		      STA	pfscore2
   2870  2492				   .skipL0267
   2871  2492				   .L0268		;  if PlayerHealth >  30 then pfscore2  = %00001111
   2872  2492
   2873  2492		       a9 1e		      LDA	#30
   2874  2494		       c5 d5		      CMP	PlayerHealth
   2875  2496		       b0 04		      BCS	.skipL0268
   2876  2498				   .condpart29
   2877  2498		       a9 0f		      LDA	#%00001111
   2878  249a		       85 c9		      STA	pfscore2
   2879  249c				   .skipL0268
   2880  249c				   .L0269		;  if PlayerHealth >  40 then pfscore2  = %00011111
   2881  249c
   2882  249c		       a9 28		      LDA	#40
   2883  249e		       c5 d5		      CMP	PlayerHealth
   2884  24a0		       b0 04		      BCS	.skipL0269
   2885  24a2				   .condpart30
   2886  24a2		       a9 1f		      LDA	#%00011111
   2887  24a4		       85 c9		      STA	pfscore2
   2888  24a6				   .skipL0269
   2889  24a6				   .L0270		;  if PlayerHealth >  50 then pfscore2  = %00111111
   2890  24a6
   2891  24a6		       a9 32		      LDA	#50
   2892  24a8		       c5 d5		      CMP	PlayerHealth
   2893  24aa		       b0 04		      BCS	.skipL0270
   2894  24ac				   .condpart31
   2895  24ac		       a9 3f		      LDA	#%00111111
   2896  24ae		       85 c9		      STA	pfscore2
   2897  24b0				   .skipL0270
   2898  24b0				   .L0271		;  if PlayerHealth >  60 then pfscore2  = %01111111
   2899  24b0
   2900  24b0		       a9 3c		      LDA	#60
   2901  24b2		       c5 d5		      CMP	PlayerHealth
   2902  24b4		       b0 04		      BCS	.skipL0271
   2903  24b6				   .condpart32
   2904  24b6		       a9 7f		      LDA	#%01111111
   2905  24b8		       85 c9		      STA	pfscore2
   2906  24ba				   .skipL0271
   2907  24ba				   .L0272		;  if PlayerHealth >  70 then pfscore2  =  %11111111
   2908  24ba
   2909  24ba		       a9 46		      LDA	#70
   2910  24bc		       c5 d5		      CMP	PlayerHealth
   2911  24be		       b0 04		      BCS	.skipL0272
   2912  24c0				   .condpart33
   2913  24c0		       a9 ff		      LDA	#%11111111
   2914  24c2		       85 c9		      STA	pfscore2
   2915  24c4				   .skipL0272
   2916  24c4				   .
   2917  24c4							; 
   2918  24c4
   2919  24c4				   .L0273		;  if drop  >=  45 then pfscore1  =  %00000001
   2920  24c4
   2921  24c4		       a5 d1		      LDA	drop
   2922  24c6		       c9 2d		      CMP	#45
   2923  24c8		       90 04		      BCC	.skipL0273
   2924  24ca				   .condpart34
   2925  24ca		       a9 01		      LDA	#%00000001
   2926  24cc		       85 c8		      STA	pfscore1
   2927  24ce				   .skipL0273
   2928  24ce				   .L0274		;  if drop  <=  45 then pfscore1  =  %00000011
   2929  24ce
   2930  24ce		       a9 2d		      LDA	#45
   2931  24d0		       c5 d1		      CMP	drop
   2932  24d2		       90 04		      BCC	.skipL0274
   2933  24d4				   .condpart35
   2934  24d4		       a9 03		      LDA	#%00000011
   2935  24d6		       85 c8		      STA	pfscore1
   2936  24d8				   .skipL0274
   2937  24d8				   .L0275		;  if drop  <=  40 then pfscore1  =  %00000111
   2938  24d8
   2939  24d8		       a9 28		      LDA	#40
   2940  24da		       c5 d1		      CMP	drop
   2941  24dc		       90 04		      BCC	.skipL0275
   2942  24de				   .condpart36
   2943  24de		       a9 07		      LDA	#%00000111
   2944  24e0		       85 c8		      STA	pfscore1
   2945  24e2				   .skipL0275
   2946  24e2				   .L0276		;  if drop  <=  35 then pfscore1  =  %00001111
   2947  24e2
   2948  24e2		       a9 23		      LDA	#35
   2949  24e4		       c5 d1		      CMP	drop
   2950  24e6		       90 04		      BCC	.skipL0276
   2951  24e8				   .condpart37
   2952  24e8		       a9 0f		      LDA	#%00001111
   2953  24ea		       85 c8		      STA	pfscore1
   2954  24ec				   .skipL0276
   2955  24ec				   .L0277		;  if drop  <=  30 then pfscore1  =  %00011111
   2956  24ec
   2957  24ec		       a9 1e		      LDA	#30
   2958  24ee		       c5 d1		      CMP	drop
   2959  24f0		       90 04		      BCC	.skipL0277
   2960  24f2				   .condpart38
   2961  24f2		       a9 1f		      LDA	#%00011111
   2962  24f4		       85 c8		      STA	pfscore1
   2963  24f6				   .skipL0277
   2964  24f6				   .L0278		;  if drop  <=  20 then pfscore1  =  %00111111
   2965  24f6
   2966  24f6		       a9 14		      LDA	#20
   2967  24f8		       c5 d1		      CMP	drop
   2968  24fa		       90 04		      BCC	.skipL0278
   2969  24fc				   .condpart39
   2970  24fc		       a9 3f		      LDA	#%00111111
   2971  24fe		       85 c8		      STA	pfscore1
   2972  2500				   .skipL0278
   2973  2500				   .L0279		;  if drop  <=  10 then pfscore1  =  %01111111
   2974  2500
   2975  2500		       a9 0a		      LDA	#10
   2976  2502		       c5 d1		      CMP	drop
   2977  2504		       90 04		      BCC	.skipL0279
   2978  2506				   .condpart40
   2979  2506		       a9 7f		      LDA	#%01111111
   2980  2508		       85 c8		      STA	pfscore1
   2981  250a				   .skipL0279
   2982  250a				   .L0280		;  if drop  <	10 then pfscore1  =  %11111111
   2983  250a
   2984  250a		       a5 d1		      LDA	drop
   2985  250c		       c9 0a		      CMP	#10
   2986  250e		       b0 04		      BCS	.skipL0280
   2987  2510				   .condpart41
   2988  2510		       a9 ff		      LDA	#%11111111
   2989  2512		       85 c8		      STA	pfscore1
   2990  2514				   .skipL0280
   2991  2514				   .L0281		;  if PlayerHealth  <	20 then pfscorecolor  =  $32
   2992  2514
   2993  2514		       a5 d5		      LDA	PlayerHealth
   2994  2516		       c9 14		      CMP	#20
   2995  2518		       b0 04		      BCS	.skipL0281
   2996  251a				   .condpart42
   2997  251a		       a9 32		      LDA	#$32
   2998  251c		       85 c6		      STA	pfscorecolor
   2999  251e				   .skipL0281
   3000  251e				   .L0282		;  if PlayerHealth  >	20 then pfscorecolor  = $00
   3001  251e
   3002  251e		       a9 14		      LDA	#20
   3003  2520		       c5 d5		      CMP	PlayerHealth
   3004  2522		       b0 04		      BCS	.skipL0282
   3005  2524				   .condpart43
   3006  2524		       a9 00		      LDA	#$00
   3007  2526		       85 c6		      STA	pfscorecolor
   3008  2528				   .skipL0282
   3009  2528				   .
   3010  2528							; 
   3011  2528
   3012  2528				   .
   3013  2528							; 
   3014  2528
   3015  2528				   .L0283		;  if drop  >=  50 then AUDV0	=  0  :  AUDV1	=  0
   3016  2528
   3017  2528		       a5 d1		      LDA	drop
   3018  252a		       c9 32		      CMP	#50
   3019  252c		       90 06		      BCC	.skipL0283
   3020  252e				   .condpart44
   3021  252e		       a9 00		      LDA	#0
   3022  2530		       85 19		      STA	AUDV0
   3023  2532		       85 1a		      STA	AUDV1
   3024  2534				   .skipL0283
   3025  2534				   .L0284		;  if drop  >=  50 then Bit0_NewLevel{0} = 1 :  delay	=  0 :	goto __titlepage
   3026  2534
   3027  2534		       a5 d1		      LDA	drop
   3028  2536		       c9 32		      CMP	#50
   3029  2538		       90 0d		      BCC	.skipL0284
   3030  253a				   .condpart45
   3031  253a		       a5 ea		      LDA	Bit0_NewLevel
   3032  253c		       09 01		      ORA	#1
   3033  253e		       85 ea		      STA	Bit0_NewLevel
   3034  2540		       a9 00		      LDA	#0
   3035  2542		       85 df		      STA	delay
   3036  2544		       4c fa 30 	      jmp	.__titlepage
   3037  2547
   3038  2547				   .skipL0284
   3039  2547				   .L0285		;  frame = frame + 1
   3040  2547
   3041  2547		       e6 d6		      INC	frame
   3042  2549				   .L0286		;  gosub __FrameAnimation bank4
   3043  2549
   3044  2549		       85 81		      sta	temp7
   3045  254b		       a9 35		      lda	#>(ret_point16-1)
   3046  254d		       48		      pha
   3047  254e		       a9 60		      lda	#<(ret_point16-1)
   3048  2550		       48		      pha
   3049  2551		       a9 70		      lda	#>(.__FrameAnimation-1)
   3050  2553		       48		      pha
   3051  2554		       a9 84		      lda	#<(.__FrameAnimation-1)
   3052  2556		       48		      pha
   3053  2557		       a5 81		      lda	temp7
   3054  2559		       48		      pha
   3055  255a		       8a		      txa
   3056  255b		       48		      pha
   3057  255c		       a2 04		      ldx	#4
   3058  255e		       4c ee df 	      jmp	BS_jsr
   3059  2561				   ret_point16
   3060  2561				   .
   3061  2561							; 
   3062  2561
   3063  2561				   .__Movement
   3064  2561							; __Movement
   3065  2561
   3066  2561				   .L0287		;  Moverate = Moverate  + 1
   3067  2561
   3068  2561		       e6 d2		      INC	Moverate
   3069  2563				   .
   3070  2563							; 
   3071  2563
   3072  2563				   .__HealthDrop
   3073  2563							; __HealthDrop
   3074  2563
   3075  2563				   .L0288		;  if HealthDrop  >  4  &&  !Bit2_EnemyMove{2} then if player4y  >  190 then player4y	=  5 : player4x  =   ( rand + 44 )  / 2  +  player1x / 2  :  Bit2_EnemyMove{2} = 1
   3076  2563
   3077  2563		       a9 04		      LDA	#4
   3078  2565		       c5 de		      CMP	HealthDrop
   3079  2567		       b0 31		      BCS	.skipL0288
   3080  2569				   .condpart46
   3081  2569		       a5 ea		      LDA	Bit2_EnemyMove
   3082  256b		       29 04		      AND	#4
   3083  256d		       d0 2b		      BNE	.skip46then
   3084  256f				   .condpart47
   3085  256f		       a9 be		      LDA	#190
   3086  2571		       c5 9d		      CMP	player4y
   3087  2573		       b0 25		      BCS	.skip47then
   3088  2575				   .condpart48
   3089  2575		       a9 05		      LDA	#5
   3090  2577		       85 9d		      STA	player4y
   3091  2579							; complex statement detected
   3092  2579		       ad 00 10 	      lda	rand
   3093  257c		       4a		      lsr
   3094  257d				  -	      ifconst	rand16
   3095  257d				  -	      rol	rand16
   3096  257d					      endif
   3097  257d		       90 02		      bcc	*+4
   3098  257f		       49 b4		      eor	#$B4
   3099  2581		       8d 00 10 	      sta	rand
   3100  2584				  -	      ifconst	rand16
   3101  2584				  -	      eor	rand16
   3102  2584					      endif
   3103  2584		       18		      CLC
   3104  2585		       69 2c		      ADC	#44
   3105  2587		       4a		      lsr
   3106  2588		       48		      PHA
   3107  2589		       a5 90		      LDA	player1x
   3108  258b		       4a		      lsr
   3109  258c		       ba		      TSX
   3110  258d		       e8		      INX
   3111  258e		       9a		      TXS
   3112  258f		       18		      CLC
   3113  2590		       75 00		      ADC	$00,x
   3114  2592		       85 93		      STA	player4x
   3115  2594		       a5 ea		      LDA	Bit2_EnemyMove
   3116  2596		       09 04		      ORA	#4
   3117  2598		       85 ea		      STA	Bit2_EnemyMove
   3118  259a				   .skip47then
   3119  259a				   .skip46then
   3120  259a				   .skipL0288
   3121  259a				   .L0289		;  if HealthDrop  >  4  &&  player4y  > 190 then Bit2_EnemyMove{2} = 0
   3122  259a
   3123  259a		       a9 04		      LDA	#4
   3124  259c		       c5 de		      CMP	HealthDrop
   3125  259e		       b0 0c		      BCS	.skipL0289
   3126  25a0				   .condpart49
   3127  25a0		       a9 be		      LDA	#190
   3128  25a2		       c5 9d		      CMP	player4y
   3129  25a4		       b0 06		      BCS	.skip49then
   3130  25a6				   .condpart50
   3131  25a6		       a5 ea		      LDA	Bit2_EnemyMove
   3132  25a8		       29 fb		      AND	#251
   3133  25aa		       85 ea		      STA	Bit2_EnemyMove
   3134  25ac				   .skip49then
   3135  25ac				   .skipL0289
   3136  25ac				   .L0290		;  if Bit2_EnemyMove{2}  &&  player4y > 170 then HealthDrop = 0 :  Bit2_EnemyMove{2} = 0  :  player4y	=  200 : 
   3137  25ac
   3138  25ac		       a5 ea		      LDA	Bit2_EnemyMove
   3139  25ae		       29 04		      AND	#4
   3140  25b0		       f0 14		      BEQ	.skipL0290
   3141  25b2				   .condpart51
   3142  25b2		       a9 aa		      LDA	#170
   3143  25b4		       c5 9d		      CMP	player4y
   3144  25b6		       b0 0e		      BCS	.skip51then
   3145  25b8				   .condpart52
   3146  25b8		       a9 00		      LDA	#0
   3147  25ba		       85 de		      STA	HealthDrop
   3148  25bc		       a5 ea		      LDA	Bit2_EnemyMove
   3149  25be		       29 fb		      AND	#251
   3150  25c0		       85 ea		      STA	Bit2_EnemyMove
   3151  25c2		       a9 c8		      LDA	#200
   3152  25c4		       85 9d		      STA	player4y
   3153  25c6				   .skip51then
   3154  25c6				   .skipL0290
   3155  25c6				   .L0291		;  if player4x  <  10 then player4x = 10
   3156  25c6
   3157  25c6		       a5 93		      LDA	player4x
   3158  25c8		       c9 0a		      CMP	#10
   3159  25ca		       b0 04		      BCS	.skipL0291
   3160  25cc				   .condpart53
   3161  25cc		       a9 0a		      LDA	#10
   3162  25ce		       85 93		      STA	player4x
   3163  25d0				   .skipL0291
   3164  25d0				   .L0292		;  if player4x  >  148 then player4x  = 148
   3165  25d0
   3166  25d0		       a9 94		      LDA	#148
   3167  25d2		       c5 93		      CMP	player4x
   3168  25d4		       b0 04		      BCS	.skipL0292
   3169  25d6				   .condpart54
   3170  25d6		       a9 94		      LDA	#148
   3171  25d8		       85 93		      STA	player4x
   3172  25da				   .skipL0292
   3173  25da				   .L0293		;  if Moverate  <  7 then goto __Player1Move
   3174  25da
   3175  25da		       a5 d2		      LDA	Moverate
   3176  25dc		       c9 07		      CMP	#7
   3177  25de		       b0 03		      BCS	.skipL0293
   3178  25e0				   .condpart55
   3179  25e0		       4c f6 35 	      jmp	.__Player1Move
   3180  25e3
   3181  25e3				   .skipL0293
   3182  25e3				   .L0294		;  scorecolor = scorecolor + 1
   3183  25e3
   3184  25e3		       e6 eb		      INC	scorecolor
   3185  25e5				   .L0295		;  if Bit2_EnemyMove{2} then player4y	=  player4y  + 2  :  HealthDrop  =  0
   3186  25e5
   3187  25e5		       a5 ea		      LDA	Bit2_EnemyMove
   3188  25e7		       29 04		      AND	#4
   3189  25e9		       f0 0b		      BEQ	.skipL0295
   3190  25eb				   .condpart56
   3191  25eb		       a5 9d		      LDA	player4y
   3192  25ed		       18		      CLC
   3193  25ee		       69 02		      ADC	#2
   3194  25f0		       85 9d		      STA	player4y
   3195  25f2		       a9 00		      LDA	#0
   3196  25f4		       85 de		      STA	HealthDrop
   3197  25f6				   .skipL0295
   3198  25f6				   .
   3199  25f6							; 
   3200  25f6
   3201  25f6				   .__Player1Move
   3202  25f6							; __Player1Move
   3203  25f6
   3204  25f6				   .L0296		;  if drop  >=  48  &&  player1y  =  200 then goto __Player2Move
   3205  25f6
   3206  25f6		       a5 d1		      LDA	drop
   3207  25f8		       c9 30		      CMP	#48
   3208  25fa		       90 09		      BCC	.skipL0296
   3209  25fc				   .condpart57
   3210  25fc		       a5 9a		      LDA	player1y
   3211  25fe		       c9 c8		      CMP	#200
   3212  2600		       d0 03		      BNE	.skip57then
   3213  2602				   .condpart58
   3214  2602		       4c b8 36 	      jmp	.__Player2Move
   3215  2605
   3216  2605				   .skip57then
   3217  2605				   .skipL0296
   3218  2605				   .L0297		;  if player1y  > 190	&&  EnemyHit  <>  1 then player1y  =   ( rand & 5 )  + 5 :  player1x  =   ( rand + 20 )  / 2 :	HealthDrop = HealthDrop  + 1  :  drop  =  drop	+ 1
   3219  2605
   3220  2605		       a9 be		      LDA	#190
   3221  2607		       c5 9a		      CMP	player1y
   3222  2609		       b0 2d		      BCS	.skipL0297
   3223  260b				   .condpart59
   3224  260b		       a5 d9		      LDA	EnemyHit
   3225  260d		       c9 01		      CMP	#1
   3226  260f		       f0 27		      BEQ	.skip59then
   3227  2611				   .condpart60
   3228  2611							; complex statement detected
   3229  2611		       ad 00 10 	      lda	rand
   3230  2614		       4a		      lsr
   3231  2615				  -	      ifconst	rand16
   3232  2615				  -	      rol	rand16
   3233  2615					      endif
   3234  2615		       90 02		      bcc	*+4
   3235  2617		       49 b4		      eor	#$B4
   3236  2619		       8d 00 10 	      sta	rand
   3237  261c				  -	      ifconst	rand16
   3238  261c				  -	      eor	rand16
   3239  261c					      endif
   3240  261c		       29 05		      AND	#5
   3241  261e		       18		      CLC
   3242  261f		       69 05		      ADC	#5
   3243  2621		       85 9a		      STA	player1y
   3244  2623							; complex statement detected
   3245  2623		       ad 00 10 	      lda	rand
   3246  2626		       4a		      lsr
   3247  2627				  -	      ifconst	rand16
   3248  2627				  -	      rol	rand16
   3249  2627					      endif
   3250  2627		       90 02		      bcc	*+4
   3251  2629		       49 b4		      eor	#$B4
   3252  262b		       8d 00 10 	      sta	rand
   3253  262e				  -	      ifconst	rand16
   3254  262e				  -	      eor	rand16
   3255  262e					      endif
   3256  262e		       18		      CLC
   3257  262f		       69 14		      ADC	#20
   3258  2631		       4a		      lsr
   3259  2632		       85 90		      STA	player1x
   3260  2634		       e6 de		      INC	HealthDrop
   3261  2636		       e6 d1		      INC	drop
   3262  2638				   .skip59then
   3263  2638				   .skipL0297
   3264  2638				   .L0298		;  if player1y  >=  164 then goto __Player1SideMove
   3265  2638
   3266  2638		       a5 9a		      LDA	player1y
   3267  263a		       c9 a4		      CMP	#164
   3268  263c		       90 03		      BCC	.skipL0298
   3269  263e				   .condpart61
   3270  263e		       4c 71 36 	      jmp	.__Player1SideMove
   3271  2641
   3272  2641				   .skipL0298
   3273  2641				   .L0299		;  if player1x  <  10 then player1x  = 10
   3274  2641
   3275  2641		       a5 90		      LDA	player1x
   3276  2643		       c9 0a		      CMP	#10
   3277  2645		       b0 04		      BCS	.skipL0299
   3278  2647				   .condpart62
   3279  2647		       a9 0a		      LDA	#10
   3280  2649		       85 90		      STA	player1x
   3281  264b				   .skipL0299
   3282  264b				   .L0300		;  if player1x  >  148 then player1x  = 148
   3283  264b
   3284  264b		       a9 94		      LDA	#148
   3285  264d		       c5 90		      CMP	player1x
   3286  264f		       b0 04		      BCS	.skipL0300
   3287  2651				   .condpart63
   3288  2651		       a9 94		      LDA	#148
   3289  2653		       85 90		      STA	player1x
   3290  2655				   .skipL0300
   3291  2655				   .
   3292  2655							; 
   3293  2655
   3294  2655				   .
   3295  2655							; 
   3296  2655
   3297  2655				   .L0301		;  if Moverate  <  8 then goto __CheckCollision
   3298  2655
   3299  2655		       a5 d2		      LDA	Moverate
   3300  2657		       c9 08		      CMP	#8
   3301  2659		       b0 03		      BCS	.skipL0301
   3302  265b				   .condpart64
   3303  265b		       4c 0a 39 	      jmp	.__CheckCollision
   3304  265e
   3305  265e				   .skipL0301
   3306  265e				   .L0302		;  if EnemyHit  =  1 then goto __Player2Move
   3307  265e
   3308  265e		       a5 d9		      LDA	EnemyHit
   3309  2660		       c9 01		      CMP	#1
   3310  2662		       d0 03		      BNE	.skipL0302
   3311  2664				   .condpart65
   3312  2664		       4c b8 36 	      jmp	.__Player2Move
   3313  2667
   3314  2667				   .skipL0302
   3315  2667				   .L0303		;  player1y  =  player1y  +  EnemySpeed
   3316  2667
   3317  2667		       a5 9a		      LDA	player1y
   3318  2669		       18		      CLC
   3319  266a		       65 d3		      ADC	EnemySpeed
   3320  266c		       85 9a		      STA	player1y
   3321  266e				   .L0304		;  goto __Player2Move
   3322  266e
   3323  266e		       4c b8 36 	      jmp	.__Player2Move
   3324  2671
   3325  2671				   .
   3326  2671							; 
   3327  2671
   3328  2671				   .__Player1SideMove
   3329  2671							; __Player1SideMove
   3330  2671
   3331  2671				   .L0305		;  player1y  = 165
   3332  2671
   3333  2671		       a9 a5		      LDA	#165
   3334  2673		       85 9a		      STA	player1y
   3335  2675				   .L0306		;  if player1x  <  REdge  &&  player1x  >  LEdge then Househit = Househit + 1 :  player1y = 200  :  goto __Player2Move : Moverate = Moverate - 1
   3336  2675
   3337  2675		       a5 90		      LDA	player1x
   3338  2677		       c9 64		      CMP	#REdge
   3339  2679		       b0 11		      BCS	.skipL0306
   3340  267b				   .condpart66
   3341  267b		       a9 3c		      LDA	#LEdge
   3342  267d		       c5 90		      CMP	player1x
   3343  267f		       b0 0b		      BCS	.skip66then
   3344  2681				   .condpart67
   3345  2681		       e6 e1		      INC	Househit
   3346  2683		       a9 c8		      LDA	#200
   3347  2685		       85 9a		      STA	player1y
   3348  2687		       4c b8 36 	      jmp	.__Player2Move
   3349  268a		       c6 d2		      DEC	Moverate
   3350  268c				   .skip66then
   3351  268c				   .skipL0306
   3352  268c				   .L0307		;  if Moverate  <  8 then goto __CheckCollision
   3353  268c
   3354  268c		       a5 d2		      LDA	Moverate
   3355  268e		       c9 08		      CMP	#8
   3356  2690		       b0 03		      BCS	.skipL0307
   3357  2692				   .condpart68
   3358  2692		       4c 0a 39 	      jmp	.__CheckCollision
   3359  2695
   3360  2695				   .skipL0307
   3361  2695				   .L0308		;  if EnemyHit  =  1 then goto __Player2Move
   3362  2695
   3363  2695		       a5 d9		      LDA	EnemyHit
   3364  2697		       c9 01		      CMP	#1
   3365  2699		       d0 03		      BNE	.skipL0308
   3366  269b				   .condpart69
   3367  269b		       4c b8 36 	      jmp	.__Player2Move
   3368  269e
   3369  269e				   .skipL0308
   3370  269e				   .L0309		;  if player1x  >  REdge then player1x  =  player1x  -  EnemySpeed
   3371  269e
   3372  269e		       a9 64		      LDA	#REdge
   3373  26a0		       c5 90		      CMP	player1x
   3374  26a2		       b0 07		      BCS	.skipL0309
   3375  26a4				   .condpart70
   3376  26a4		       a5 90		      LDA	player1x
   3377  26a6		       38		      SEC
   3378  26a7		       e5 d3		      SBC	EnemySpeed
   3379  26a9		       85 90		      STA	player1x
   3380  26ab				   .skipL0309
   3381  26ab				   .L0310		;  if player1x  <  LEdge then player1x  =  player1x  +  EnemySpeed
   3382  26ab
   3383  26ab		       a5 90		      LDA	player1x
   3384  26ad		       c9 3c		      CMP	#LEdge
   3385  26af		       b0 07		      BCS	.skipL0310
   3386  26b1				   .condpart71
   3387  26b1		       a5 90		      LDA	player1x
   3388  26b3		       18		      CLC
   3389  26b4		       65 d3		      ADC	EnemySpeed
   3390  26b6		       85 90		      STA	player1x
   3391  26b8				   .skipL0310
   3392  26b8				   .
   3393  26b8							; 
   3394  26b8
   3395  26b8				   .__Player2Move
   3396  26b8							; __Player2Move
   3397  26b8
   3398  26b8				   .L0311		;  if drop  >=  48  &&  player2y  =  200 then goto __Player3Move
   3399  26b8
   3400  26b8		       a5 d1		      LDA	drop
   3401  26ba		       c9 30		      CMP	#48
   3402  26bc		       90 09		      BCC	.skipL0311
   3403  26be				   .condpart72
   3404  26be		       a5 9b		      LDA	player2y
   3405  26c0		       c9 c8		      CMP	#200
   3406  26c2		       d0 03		      BNE	.skip72then
   3407  26c4				   .condpart73
   3408  26c4		       4c 9c 37 	      jmp	.__Player3Move
   3409  26c7
   3410  26c7				   .skip72then
   3411  26c7				   .skipL0311
   3412  26c7				   .L0312		;  if player2y  > 165	&&  EnemyHit  <>  2 then player2y  =   ( rand & 5 )  :	player2x  =   ( rand + 20 )  / 2  +  player1x / 2 :  drop  =  drop  + 1
   3413  26c7
   3414  26c7		       a9 a5		      LDA	#165
   3415  26c9		       c5 9b		      CMP	player2y
   3416  26cb		       b0 32		      BCS	.skipL0312
   3417  26cd				   .condpart74
   3418  26cd		       a5 d9		      LDA	EnemyHit
   3419  26cf		       c9 02		      CMP	#2
   3420  26d1		       f0 2c		      BEQ	.skip74then
   3421  26d3				   .condpart75
   3422  26d3							; complex statement detected
   3423  26d3		       ad 00 10 	      lda	rand
   3424  26d6		       4a		      lsr
   3425  26d7				  -	      ifconst	rand16
   3426  26d7				  -	      rol	rand16
   3427  26d7					      endif
   3428  26d7		       90 02		      bcc	*+4
   3429  26d9		       49 b4		      eor	#$B4
   3430  26db		       8d 00 10 	      sta	rand
   3431  26de				  -	      ifconst	rand16
   3432  26de				  -	      eor	rand16
   3433  26de					      endif
   3434  26de		       29 05		      AND	#5
   3435  26e0		       85 9b		      STA	player2y
   3436  26e2							; complex statement detected
   3437  26e2		       ad 00 10 	      lda	rand
   3438  26e5		       4a		      lsr
   3439  26e6				  -	      ifconst	rand16
   3440  26e6				  -	      rol	rand16
   3441  26e6					      endif
   3442  26e6		       90 02		      bcc	*+4
   3443  26e8		       49 b4		      eor	#$B4
   3444  26ea		       8d 00 10 	      sta	rand
   3445  26ed				  -	      ifconst	rand16
   3446  26ed				  -	      eor	rand16
   3447  26ed					      endif
   3448  26ed		       18		      CLC
   3449  26ee		       69 14		      ADC	#20
   3450  26f0		       4a		      lsr
   3451  26f1		       48		      PHA
   3452  26f2		       a5 90		      LDA	player1x
   3453  26f4		       4a		      lsr
   3454  26f5		       ba		      TSX
   3455  26f6		       e8		      INX
   3456  26f7		       9a		      TXS
   3457  26f8		       18		      CLC
   3458  26f9		       75 00		      ADC	$00,x
   3459  26fb		       85 91		      STA	player2x
   3460  26fd		       e6 d1		      INC	drop
   3461  26ff				   .skip74then
   3462  26ff				   .skipL0312
   3463  26ff				   .L0313		;  if player2x  <  15 then player2x  =  15
   3464  26ff
   3465  26ff		       a5 91		      LDA	player2x
   3466  2701		       c9 0f		      CMP	#15
   3467  2703		       b0 04		      BCS	.skipL0313
   3468  2705				   .condpart76
   3469  2705		       a9 0f		      LDA	#15
   3470  2707		       85 91		      STA	player2x
   3471  2709				   .skipL0313
   3472  2709				   .L0314		;  if player2x  >  148 then player2x  =  148
   3473  2709
   3474  2709		       a9 94		      LDA	#148
   3475  270b		       c5 91		      CMP	player2x
   3476  270d		       b0 04		      BCS	.skipL0314
   3477  270f				   .condpart77
   3478  270f		       a9 94		      LDA	#148
   3479  2711		       85 91		      STA	player2x
   3480  2713				   .skipL0314
   3481  2713				   .L0315		;  if player2y  <  50	&&  player2y  >=  player4y  - 30  &&  player2y	<=  player4y + 30 then goto __Player3Move
   3482  2713
   3483  2713		       a5 9b		      LDA	player2y
   3484  2715		       c9 32		      CMP	#50
   3485  2717		       b0 1a		      BCS	.skipL0315
   3486  2719				   .condpart78
   3487  2719							; complex condition detected
   3488  2719		       a5 9d		      LDA	player4y
   3489  271b		       38		      SEC
   3490  271c		       e9 1e		      SBC	#30
   3491  271e		       48		      PHA
   3492  271f		       ba		      TSX
   3493  2720		       68		      PLA
   3494  2721		       a5 9b		      LDA	player2y
   3495  2723		       d5 01		      CMP	1,x
   3496  2725		       90 0c		      BCC	.skip78then
   3497  2727				   .condpart79
   3498  2727							; complex condition detected
   3499  2727		       a5 9d		      LDA	player4y
   3500  2729		       18		      CLC
   3501  272a		       69 1e		      ADC	#30
   3502  272c		       c5 9b		      CMP	player2y
   3503  272e		       90 03		      BCC	.skip79then
   3504  2730				   .condpart80
   3505  2730		       4c 9c 37 	      jmp	.__Player3Move
   3506  2733
   3507  2733				   .skip79then
   3508  2733				   .skip78then
   3509  2733				   .skipL0315
   3510  2733				   .L0316		;  if player2y  <  50	&&  player2y  >=  player1y  - 30  &&  player2y	<=  player1y + 30 then goto __Player3Move
   3511  2733
   3512  2733		       a5 9b		      LDA	player2y
   3513  2735		       c9 32		      CMP	#50
   3514  2737		       b0 1a		      BCS	.skipL0316
   3515  2739				   .condpart81
   3516  2739							; complex condition detected
   3517  2739		       a5 9a		      LDA	player1y
   3518  273b		       38		      SEC
   3519  273c		       e9 1e		      SBC	#30
   3520  273e		       48		      PHA
   3521  273f		       ba		      TSX
   3522  2740		       68		      PLA
   3523  2741		       a5 9b		      LDA	player2y
   3524  2743		       d5 01		      CMP	1,x
   3525  2745		       90 0c		      BCC	.skip81then
   3526  2747				   .condpart82
   3527  2747							; complex condition detected
   3528  2747		       a5 9a		      LDA	player1y
   3529  2749		       18		      CLC
   3530  274a		       69 1e		      ADC	#30
   3531  274c		       c5 9b		      CMP	player2y
   3532  274e		       90 03		      BCC	.skip82then
   3533  2750				   .condpart83
   3534  2750		       4c 9c 37 	      jmp	.__Player3Move
   3535  2753
   3536  2753				   .skip82then
   3537  2753				   .skip81then
   3538  2753				   .skipL0316
   3539  2753				   .
   3540  2753							; 
   3541  2753
   3542  2753				   .__SkipP2drop
   3543  2753							; __SkipP2drop
   3544  2753
   3545  2753				   .L0317		;  if EnemyHit  =  2 then goto __Player3Move
   3546  2753
   3547  2753		       a5 d9		      LDA	EnemyHit
   3548  2755		       c9 02		      CMP	#2
   3549  2757		       d0 03		      BNE	.skipL0317
   3550  2759				   .condpart84
   3551  2759		       4c 9c 37 	      jmp	.__Player3Move
   3552  275c
   3553  275c				   .skipL0317
   3554  275c				   .L0318		;  if Moverate  <  8 then goto __CheckCollision
   3555  275c
   3556  275c		       a5 d2		      LDA	Moverate
   3557  275e		       c9 08		      CMP	#8
   3558  2760		       b0 03		      BCS	.skipL0318
   3559  2762				   .condpart85
   3560  2762		       4c 0a 39 	      jmp	.__CheckCollision
   3561  2765
   3562  2765				   .skipL0318
   3563  2765				   .L0319		;  if level  >  2  &&	player2y  >  130 then goto __PlayerSideSweep
   3564  2765
   3565  2765		       a9 02		      LDA	#2
   3566  2767		       c5 dc		      CMP	level
   3567  2769		       b0 09		      BCS	.skipL0319
   3568  276b				   .condpart86
   3569  276b		       a9 82		      LDA	#130
   3570  276d		       c5 9b		      CMP	player2y
   3571  276f		       b0 03		      BCS	.skip86then
   3572  2771				   .condpart87
   3573  2771		       4c 7e 37 	      jmp	.__PlayerSideSweep
   3574  2774
   3575  2774				   .skip86then
   3576  2774				   .skipL0319
   3577  2774				   .L0320		;  player2y  =  player2y  +  EnemySpeed
   3578  2774
   3579  2774		       a5 9b		      LDA	player2y
   3580  2776		       18		      CLC
   3581  2777		       65 d3		      ADC	EnemySpeed
   3582  2779		       85 9b		      STA	player2y
   3583  277b				   .L0321		;  goto __Player3Move
   3584  277b
   3585  277b		       4c 9c 37 	      jmp	.__Player3Move
   3586  277e
   3587  277e				   .
   3588  277e							; 
   3589  277e
   3590  277e				   .__PlayerSideSweep
   3591  277e							; __PlayerSideSweep
   3592  277e
   3593  277e				   .L0322		;  player2y  = 130
   3594  277e
   3595  277e		       a9 82		      LDA	#130
   3596  2780		       85 9b		      STA	player2y
   3597  2782				   .L0323		;  if player2x  >  REdge then player2x  =  player2x  -  EnemySpeed
   3598  2782
   3599  2782		       a9 64		      LDA	#REdge
   3600  2784		       c5 91		      CMP	player2x
   3601  2786		       b0 07		      BCS	.skipL0323
   3602  2788				   .condpart88
   3603  2788		       a5 91		      LDA	player2x
   3604  278a		       38		      SEC
   3605  278b		       e5 d3		      SBC	EnemySpeed
   3606  278d		       85 91		      STA	player2x
   3607  278f				   .skipL0323
   3608  278f				   .L0324		;  if player2x  <  LEdge then player2x  =  player2x  +  EnemySpeed
   3609  278f
   3610  278f		       a5 91		      LDA	player2x
   3611  2791		       c9 3c		      CMP	#LEdge
   3612  2793		       b0 07		      BCS	.skipL0324
   3613  2795				   .condpart89
   3614  2795		       a5 91		      LDA	player2x
   3615  2797		       18		      CLC
   3616  2798		       65 d3		      ADC	EnemySpeed
   3617  279a		       85 91		      STA	player2x
   3618  279c				   .skipL0324
   3619  279c				   .
   3620  279c							; 
   3621  279c
   3622  279c				   .__Player3Move
   3623  279c							; __Player3Move
   3624  279c
   3625  279c				   .
   3626  279c							; 
   3627  279c
   3628  279c				   .__SkipP3drop
   3629  279c							; __SkipP3drop
   3630  279c
   3631  279c				   .L0325		;  if Moverate  <  5 then goto __CheckCollision
   3632  279c
   3633  279c		       a5 d2		      LDA	Moverate
   3634  279e		       c9 05		      CMP	#5
   3635  27a0		       b0 03		      BCS	.skipL0325
   3636  27a2				   .condpart90
   3637  27a2		       4c 0a 39 	      jmp	.__CheckCollision
   3638  27a5
   3639  27a5				   .skipL0325
   3640  27a5				   .L0326		;  if player3y  >  120 then __Player3Xset
   3641  27a5
   3642  27a5		       a9 78		      LDA	#120
   3643  27a7		       c5 9c		      CMP	player3y
   3644  27a9					      if	((* - .__Player3Xset) < 127) && ((* - .__Player3Xset) > -128)
   3645  27a9		       90 2c		      bcc	.__Player3Xset
   3646  27ab				  -	      else
   3647  27ab				  -	      bcs	.4skip__Player3Xset
   3648  27ab				  -	      jmp	.__Player3Xset
   3649  27ab				  -.4skip__Player3Xset
   3650  27ab					      endif
   3651  27ab				   .L0327		;  if level  >  1  &&	player3x  >  LEdge  &&	player3x  <  REdge then player3y  =  player3y  +  3 :  goto __SkipHMove
   3652  27ab
   3653  27ab		       a9 01		      LDA	#1
   3654  27ad		       c5 dc		      CMP	level
   3655  27af		       b0 16		      BCS	.skipL0327
   3656  27b1				   .condpart91
   3657  27b1		       a9 3c		      LDA	#LEdge
   3658  27b3		       c5 92		      CMP	player3x
   3659  27b5		       b0 10		      BCS	.skip91then
   3660  27b7				   .condpart92
   3661  27b7		       a5 92		      LDA	player3x
   3662  27b9		       c9 64		      CMP	#REdge
   3663  27bb		       b0 0a		      BCS	.skip92then
   3664  27bd				   .condpart93
   3665  27bd		       a5 9c		      LDA	player3y
   3666  27bf		       18		      CLC
   3667  27c0		       69 03		      ADC	#3
   3668  27c2		       85 9c		      STA	player3y
   3669  27c4		       4c 06 39 	      jmp	.__SkipHMove
   3670  27c7
   3671  27c7				   .skip92then
   3672  27c7				   .skip91then
   3673  27c7				   .skipL0327
   3674  27c7				   .L0328		;  if EnemyHit  =  3 then goto __SkipHMove
   3675  27c7
   3676  27c7		       a5 d9		      LDA	EnemyHit
   3677  27c9		       c9 03		      CMP	#3
   3678  27cb		       d0 03		      BNE	.skipL0328
   3679  27cd				   .condpart94
   3680  27cd		       4c 06 39 	      jmp	.__SkipHMove
   3681  27d0
   3682  27d0				   .skipL0328
   3683  27d0				   .L0329		;  if Bit6_PLayer3Direction{6} then goto __Player3xMove
   3684  27d0
   3685  27d0		       24 ea		      BIT	Bit6_PLayer3Direction
   3686  27d2		       50 03		      BVC	.skipL0329
   3687  27d4				   .condpart95
   3688  27d4		       4c 43 38 	      jmp	.__Player3xMove
   3689  27d7
   3690  27d7				   .skipL0329
   3691  27d7				   .
   3692  27d7							; 
   3693  27d7
   3694  27d7				   .__Player3Xset
   3695  27d7							; __Player3Xset
   3696  27d7
   3697  27d7				   .L0330		;  if	( rand & 1 )   > 0 then Bit7_PLayer3Moving{7}  = 1 else Bit7_PLayer3Moving{7}  = 0
   3698  27d7
   3699  27d7							; complex condition detected
   3700  27d7							; complex statement detected
   3701  27d7		       ad 00 10 	      lda	rand
   3702  27da		       4a		      lsr
   3703  27db				  -	      ifconst	rand16
   3704  27db				  -	      rol	rand16
   3705  27db					      endif
   3706  27db		       90 02		      bcc	*+4
   3707  27dd		       49 b4		      eor	#$B4
   3708  27df		       8d 00 10 	      sta	rand
   3709  27e2				  -	      ifconst	rand16
   3710  27e2				  -	      eor	rand16
   3711  27e2					      endif
   3712  27e2		       29 01		      AND	#1
   3713  27e4		       48		      PHA
   3714  27e5		       ba		      TSX
   3715  27e6		       68		      PLA
   3716  27e7		       a9 00		      LDA	#0
   3717  27e9		       d5 01		      CMP	1,x
   3718  27eb		       b0 09		      BCS	.skipL0330
   3719  27ed				   .condpart96
   3720  27ed		       a5 ea		      LDA	Bit7_PLayer3Moving
   3721  27ef		       09 80		      ORA	#128
   3722  27f1		       85 ea		      STA	Bit7_PLayer3Moving
   3723  27f3		       4c fc 37 	      jmp	.skipelse0
   3724  27f6				   .skipL0330
   3725  27f6		       a5 ea		      LDA	Bit7_PLayer3Moving
   3726  27f8		       29 7f		      AND	#127
   3727  27fa		       85 ea		      STA	Bit7_PLayer3Moving
   3728  27fc				   .skipelse0
   3729  27fc				   .L0331		;  if drop  >	49 then goto __Player3Reset
   3730  27fc
   3731  27fc		       a9 31		      LDA	#49
   3732  27fe		       c5 d1		      CMP	drop
   3733  2800		       b0 03		      BCS	.skipL0331
   3734  2802				   .condpart97
   3735  2802		       4c e2 38 	      jmp	.__Player3Reset
   3736  2805
   3737  2805				   .skipL0331
   3738  2805				   .L0332		;  if Bit7_PLayer3Moving{7} then player3y  =  ( rand & 40 )  + 30 : player3x  =  150  :  drop	=  drop  + 1
   3739  2805
   3740  2805		       24 ea		      BIT	Bit7_PLayer3Moving
   3741  2807		       10 18		      BPL	.skipL0332
   3742  2809				   .condpart98
   3743  2809							; complex statement detected
   3744  2809		       ad 00 10 	      lda	rand
   3745  280c		       4a		      lsr
   3746  280d				  -	      ifconst	rand16
   3747  280d				  -	      rol	rand16
   3748  280d					      endif
   3749  280d		       90 02		      bcc	*+4
   3750  280f		       49 b4		      eor	#$B4
   3751  2811		       8d 00 10 	      sta	rand
   3752  2814				  -	      ifconst	rand16
   3753  2814				  -	      eor	rand16
   3754  2814					      endif
   3755  2814		       29 28		      AND	#40
   3756  2816		       18		      CLC
   3757  2817		       69 1e		      ADC	#30
   3758  2819		       85 9c		      STA	player3y
   3759  281b		       a9 96		      LDA	#150
   3760  281d		       85 92		      STA	player3x
   3761  281f		       e6 d1		      INC	drop
   3762  2821				   .skipL0332
   3763  2821				   .L0333		;  if !Bit7_PLayer3Moving{7} then player3y  =	( rand & 40 )  + 30 : player3x	=  7  :  drop  =  drop	+ 1
   3764  2821
   3765  2821		       24 ea		      BIT	Bit7_PLayer3Moving
   3766  2823		       30 18		      BMI	.skipL0333
   3767  2825				   .condpart99
   3768  2825							; complex statement detected
   3769  2825		       ad 00 10 	      lda	rand
   3770  2828		       4a		      lsr
   3771  2829				  -	      ifconst	rand16
   3772  2829				  -	      rol	rand16
   3773  2829					      endif
   3774  2829		       90 02		      bcc	*+4
   3775  282b		       49 b4		      eor	#$B4
   3776  282d		       8d 00 10 	      sta	rand
   3777  2830				  -	      ifconst	rand16
   3778  2830				  -	      eor	rand16
   3779  2830					      endif
   3780  2830		       29 28		      AND	#40
   3781  2832		       18		      CLC
   3782  2833		       69 1e		      ADC	#30
   3783  2835		       85 9c		      STA	player3y
   3784  2837		       a9 07		      LDA	#7
   3785  2839		       85 92		      STA	player3x
   3786  283b		       e6 d1		      INC	drop
   3787  283d				   .skipL0333
   3788  283d				   .L0334		;  Bit6_PLayer3Direction{6}  = 1
   3789  283d
   3790  283d		       a5 ea		      LDA	Bit6_PLayer3Direction
   3791  283f		       09 40		      ORA	#64
   3792  2841		       85 ea		      STA	Bit6_PLayer3Direction
   3793  2843				   .
   3794  2843							; 
   3795  2843
   3796  2843				   .__Player3xMove
   3797  2843							; __Player3xMove
   3798  2843
   3799  2843				   .L0335		;  if player3y  >=  player1y  - 10  &&  player3y  <=  player1y + 10  &&  player3x  >=	player1x  - 20	&&  player3x  <=  player1x + 20 then goto __Player3Reset
   3800  2843
   3801  2843							; complex condition detected
   3802  2843		       a5 9a		      LDA	player1y
   3803  2845		       38		      SEC
   3804  2846		       e9 0a		      SBC	#10
   3805  2848		       48		      PHA
   3806  2849		       ba		      TSX
   3807  284a		       68		      PLA
   3808  284b		       a5 9c		      LDA	player3y
   3809  284d		       d5 01		      CMP	1,x
   3810  284f		       90 23		      BCC	.skipL0335
   3811  2851				   .condpart100
   3812  2851							; complex condition detected
   3813  2851		       a5 9a		      LDA	player1y
   3814  2853		       18		      CLC
   3815  2854		       69 0a		      ADC	#10
   3816  2856							; todo: this LDA is spurious and should be prevented ->	LDA  1,x
   3817  2856		       c5 9c		      CMP	player3y
   3818  2858		       90 1a		      BCC	.skip100then
   3819  285a				   .condpart101
   3820  285a							; complex condition detected
   3821  285a		       a5 90		      LDA	player1x
   3822  285c		       38		      SEC
   3823  285d		       e9 14		      SBC	#20
   3824  285f		       48		      PHA
   3825  2860		       ba		      TSX
   3826  2861		       68		      PLA
   3827  2862		       a5 92		      LDA	player3x
   3828  2864		       d5 01		      CMP	1,x
   3829  2866		       90 0c		      BCC	.skip101then
   3830  2868				   .condpart102
   3831  2868							; complex condition detected
   3832  2868		       a5 90		      LDA	player1x
   3833  286a		       18		      CLC
   3834  286b		       69 14		      ADC	#20
   3835  286d		       c5 92		      CMP	player3x
   3836  286f		       90 03		      BCC	.skip102then
   3837  2871				   .condpart103
   3838  2871		       4c e2 38 	      jmp	.__Player3Reset
   3839  2874
   3840  2874				   .skip102then
   3841  2874				   .skip101then
   3842  2874				   .skip100then
   3843  2874				   .skipL0335
   3844  2874				   .L0336		;  if player3y  >=  player2y  - 10  &&  player3y  <=  player2y + 10  &&  player3x  >=	player2x  - 20	&&  player3x  <=  player2x + 20 then goto __Player3Reset
   3845  2874
   3846  2874							; complex condition detected
   3847  2874		       a5 9b		      LDA	player2y
   3848  2876		       38		      SEC
   3849  2877		       e9 0a		      SBC	#10
   3850  2879		       48		      PHA
   3851  287a		       ba		      TSX
   3852  287b		       68		      PLA
   3853  287c		       a5 9c		      LDA	player3y
   3854  287e		       d5 01		      CMP	1,x
   3855  2880		       90 23		      BCC	.skipL0336
   3856  2882				   .condpart104
   3857  2882							; complex condition detected
   3858  2882		       a5 9b		      LDA	player2y
   3859  2884		       18		      CLC
   3860  2885		       69 0a		      ADC	#10
   3861  2887							; todo: this LDA is spurious and should be prevented ->	LDA  1,x
   3862  2887		       c5 9c		      CMP	player3y
   3863  2889		       90 1a		      BCC	.skip104then
   3864  288b				   .condpart105
   3865  288b							; complex condition detected
   3866  288b		       a5 91		      LDA	player2x
   3867  288d		       38		      SEC
   3868  288e		       e9 14		      SBC	#20
   3869  2890		       48		      PHA
   3870  2891		       ba		      TSX
   3871  2892		       68		      PLA
   3872  2893		       a5 92		      LDA	player3x
   3873  2895		       d5 01		      CMP	1,x
   3874  2897		       90 0c		      BCC	.skip105then
   3875  2899				   .condpart106
   3876  2899							; complex condition detected
   3877  2899		       a5 91		      LDA	player2x
   3878  289b		       18		      CLC
   3879  289c		       69 14		      ADC	#20
   3880  289e		       c5 92		      CMP	player3x
   3881  28a0		       90 03		      BCC	.skip106then
   3882  28a2				   .condpart107
   3883  28a2		       4c e2 38 	      jmp	.__Player3Reset
   3884  28a5
   3885  28a5				   .skip106then
   3886  28a5				   .skip105then
   3887  28a5				   .skip104then
   3888  28a5				   .skipL0336
   3889  28a5				   .L0337		;  if player3y  >=  player4y  - 5  &&	player3y  <=  player4y + 5  &&	player3x  >=  player4x	&&  player3x  <=  player4x then player4x = 200
   3890  28a5
   3891  28a5							; complex condition detected
   3892  28a5		       a5 9d		      LDA	player4y
   3893  28a7		       38		      SEC
   3894  28a8		       e9 05		      SBC	#5
   3895  28aa		       48		      PHA
   3896  28ab		       ba		      TSX
   3897  28ac		       68		      PLA
   3898  28ad		       a5 9c		      LDA	player3y
   3899  28af		       d5 01		      CMP	1,x
   3900  28b1		       90 19		      BCC	.skipL0337
   3901  28b3				   .condpart108
   3902  28b3							; complex condition detected
   3903  28b3		       a5 9d		      LDA	player4y
   3904  28b5		       18		      CLC
   3905  28b6		       69 05		      ADC	#5
   3906  28b8							; todo: this LDA is spurious and should be prevented ->	LDA  1,x
   3907  28b8		       c5 9c		      CMP	player3y
   3908  28ba		       90 10		      BCC	.skip108then
   3909  28bc				   .condpart109
   3910  28bc		       a5 92		      LDA	player3x
   3911  28be		       c5 93		      CMP	player4x
   3912  28c0		       90 0a		      BCC	.skip109then
   3913  28c2				   .condpart110
   3914  28c2		       a5 93		      LDA	player4x
   3915  28c4		       c5 92		      CMP	player3x
   3916  28c6		       90 04		      BCC	.skip110then
   3917  28c8				   .condpart111
   3918  28c8		       a9 c8		      LDA	#200
   3919  28ca		       85 93		      STA	player4x
   3920  28cc				   .skip110then
   3921  28cc				   .skip109then
   3922  28cc				   .skip108then
   3923  28cc				   .skipL0337
   3924  28cc				   .L0338		;  if !Bit7_PLayer3Moving{7} then player3x  =	player3x  +  EnemySpeed
   3925  28cc
   3926  28cc		       24 ea		      BIT	Bit7_PLayer3Moving
   3927  28ce		       30 07		      BMI	.skipL0338
   3928  28d0				   .condpart112
   3929  28d0		       a5 92		      LDA	player3x
   3930  28d2		       18		      CLC
   3931  28d3		       65 d3		      ADC	EnemySpeed
   3932  28d5		       85 92		      STA	player3x
   3933  28d7				   .skipL0338
   3934  28d7				   .L0339		;  if Bit7_PLayer3Moving{7} then player3x  =  player3x  -  EnemySpeed
   3935  28d7
   3936  28d7		       24 ea		      BIT	Bit7_PLayer3Moving
   3937  28d9		       10 07		      BPL	.skipL0339
   3938  28db				   .condpart113
   3939  28db		       a5 92		      LDA	player3x
   3940  28dd		       38		      SEC
   3941  28de		       e5 d3		      SBC	EnemySpeed
   3942  28e0		       85 92		      STA	player3x
   3943  28e2				   .skipL0339
   3944  28e2				   .
   3945  28e2							; 
   3946  28e2
   3947  28e2				   .__Player3Reset
   3948  28e2							; __Player3Reset
   3949  28e2
   3950  28e2				   .L0340		;  if player3x  >  150  ||  player3x  <  5 then drop  = drop  + 1
   3951  28e2
   3952  28e2		       a9 96		      LDA	#150
   3953  28e4		       c5 92		      CMP	player3x
   3954  28e6		       b0 03		      BCS	.skipL0340
   3955  28e8				   .condpart114
   3956  28e8		       4c f1 38 	      jmp	.condpart115
   3957  28eb				   .skipL0340
   3958  28eb		       a5 92		      LDA	player3x
   3959  28ed		       c9 05		      CMP	#5
   3960  28ef		       b0 02		      BCS	.skip26OR
   3961  28f1				   .condpart115
   3962  28f1		       e6 d1		      INC	drop
   3963  28f3				   .skip26OR
   3964  28f3				   .L0341		;  if player3x  >  150  ||  player3x  <  5 then player3y  = 200 :  Bit6_PLayer3Direction ( 6 )   =  0
   3965  28f3
   3966  28f3		       a9 96		      LDA	#150
   3967  28f5		       c5 92		      CMP	player3x
   3968  28f7		       b0 03		      BCS	.skipL0341
   3969  28f9				   .condpart116
   3970  28f9		       4c 02 39 	      jmp	.condpart117
   3971  28fc				   .skipL0341
   3972  28fc		       a5 92		      LDA	player3x
   3973  28fe		       c9 05		      CMP	#5
   3974  2900		       b0 04		      BCS	.skip27OR
   3975  2902				   .condpart117
   3976  2902		       a9 c8		      LDA	#200
   3977  2904		       85 9c		      STA	player3y
   3978  2906				   .skip27OR
   3979  2906				   .
   3980  2906							; 
   3981  2906
   3982  2906				   .
   3983  2906							; 
   3984  2906
   3985  2906				   .__SkipHMove
   3986  2906							; __SkipHMove
   3987  2906
   3988  2906				   .L0342		;  Moverate = 0
   3989  2906
   3990  2906		       a9 00		      LDA	#0
   3991  2908		       85 d2		      STA	Moverate
   3992  290a				   .
   3993  290a							; 
   3994  290a
   3995  290a				   .__EnemyMove
   3996  290a							; __EnemyMove
   3997  290a
   3998  290a				   .
   3999  290a							; 
   4000  290a
   4001  290a				   .__CheckCollision
   4002  290a							; __CheckCollision
   4003  290a
   4004  290a				   .L0343		;  if EnemyHit  > 0 then __EnemyCollision
   4005  290a
   4006  290a		       a9 00		      LDA	#0
   4007  290c		       c5 d9		      CMP	EnemyHit
   4008  290e				  -	      if	((* - .__EnemyCollision) < 127) && ((* - .__EnemyCollision) > -128)
   4009  290e				  -	      bcc	.__EnemyCollision
   4010  290e					      else
   4011  290e		       b0 03		      bcs	.5skip__EnemyCollision
   4012  2910		       4c 92 39 	      jmp	.__EnemyCollision
   4013  2913				   .5skip__EnemyCollision
   4014  2913					      endif
   4015  2913				   .L0344		;  if !collision(player1,playfield) then goto __EnemyCollision
   4016  2913
   4017  2913		       24 03		      bit	CXP1FB
   4018  2915		       30 03		      BMI	.skipL0344
   4019  2917				   .condpart118
   4020  2917		       4c 92 39 	      jmp	.__EnemyCollision
   4021  291a
   4022  291a				   .skipL0344
   4023  291a				   .L0345		;  if	( temp4  +  5 )   >=  player1y	&&  temp4  <=	( player1y  +  5 )  then player1y = 200  :  Househit = Househit + 1  :	Bit5_hit{5}  = 1  :  goto __Explosion
   4024  291a
   4025  291a							; complex condition detected
   4026  291a							; complex statement detected
   4027  291a		       a5 ce		      LDA	temp4
   4028  291c		       18		      CLC
   4029  291d		       69 05		      ADC	#5
   4030  291f							; todo: this LDA is spurious and should be prevented ->	LDA  1,x
   4031  291f		       c5 9a		      CMP	player1y
   4032  2921		       90 18		      BCC	.skipL0345
   4033  2923				   .condpart119
   4034  2923							; complex condition detected
   4035  2923							; complex statement detected
   4036  2923		       a5 9a		      LDA	player1y
   4037  2925		       18		      CLC
   4038  2926		       69 05		      ADC	#5
   4039  2928		       c5 ce		      CMP	temp4
   4040  292a		       90 0f		      BCC	.skip119then
   4041  292c				   .condpart120
   4042  292c		       a9 c8		      LDA	#200
   4043  292e		       85 9a		      STA	player1y
   4044  2930		       e6 e1		      INC	Househit
   4045  2932		       a5 ea		      LDA	Bit5_hit
   4046  2934		       09 20		      ORA	#32
   4047  2936		       85 ea		      STA	Bit5_hit
   4048  2938		       4c 62 3c 	      jmp	.__Explosion
   4049  293b
   4050  293b				   .skip119then
   4051  293b				   .skipL0345
   4052  293b				   .L0346		;  if	( temp4  +  5 )   >=  player2y	&&  temp4  <=	( player2y  +  5 )  then player2y = 200  :  Househit = Househit + 1  :	Bit5_hit{5}  = 1  :  goto __Explosion
   4053  293b
   4054  293b							; complex condition detected
   4055  293b							; complex statement detected
   4056  293b		       a5 ce		      LDA	temp4
   4057  293d		       18		      CLC
   4058  293e		       69 05		      ADC	#5
   4059  2940							; todo: this LDA is spurious and should be prevented ->	LDA  1,x
   4060  2940		       c5 9b		      CMP	player2y
   4061  2942		       90 18		      BCC	.skipL0346
   4062  2944				   .condpart121
   4063  2944							; complex condition detected
   4064  2944							; complex statement detected
   4065  2944		       a5 9b		      LDA	player2y
   4066  2946		       18		      CLC
   4067  2947		       69 05		      ADC	#5
   4068  2949		       c5 ce		      CMP	temp4
   4069  294b		       90 0f		      BCC	.skip121then
   4070  294d				   .condpart122
   4071  294d		       a9 c8		      LDA	#200
   4072  294f		       85 9b		      STA	player2y
   4073  2951		       e6 e1		      INC	Househit
   4074  2953		       a5 ea		      LDA	Bit5_hit
   4075  2955		       09 20		      ORA	#32
   4076  2957		       85 ea		      STA	Bit5_hit
   4077  2959		       4c 62 3c 	      jmp	.__Explosion
   4078  295c
   4079  295c				   .skip121then
   4080  295c				   .skipL0346
   4081  295c				   .L0347		;  if	( temp4  +  5 )   >=  player3y	&&  temp4  <=	( player3y  +  5 )  then player3y = 200  :  Bit6_PLayer3Direction ( 6 )   =  0	:  Househit = Househit + 1  :  Bit5_hit{5}  = 1  :  goto __Explosion
   4082  295c
   4083  295c							; complex condition detected
   4084  295c							; complex statement detected
   4085  295c		       a5 ce		      LDA	temp4
   4086  295e		       18		      CLC
   4087  295f		       69 05		      ADC	#5
   4088  2961							; todo: this LDA is spurious and should be prevented ->	LDA  1,x
   4089  2961		       c5 9c		      CMP	player3y
   4090  2963		       90 0d		      BCC	.skipL0347
   4091  2965				   .condpart123
   4092  2965							; complex condition detected
   4093  2965							; complex statement detected
   4094  2965		       a5 9c		      LDA	player3y
   4095  2967		       18		      CLC
   4096  2968		       69 05		      ADC	#5
   4097  296a		       c5 ce		      CMP	temp4
   4098  296c		       90 04		      BCC	.skip123then
   4099  296e				   .condpart124
   4100  296e		       a9 c8		      LDA	#200
   4101  2970		       85 9c		      STA	player3y
   4102  2972				   .skip123then
   4103  2972				   .skipL0347
   4104  2972				   .L0348		;  if	( temp4  +  5 )   >=  player4y	&&  temp4  <=	( player4y  +  5 )  then player4y = 200  :  HealthDrop = 0 :  Bit2_EnemyMove{2} = 0
   4105  2972
   4106  2972							; complex condition detected
   4107  2972							; complex statement detected
   4108  2972		       a5 ce		      LDA	temp4
   4109  2974		       18		      CLC
   4110  2975		       69 05		      ADC	#5
   4111  2977							; todo: this LDA is spurious and should be prevented ->	LDA  1,x
   4112  2977		       c5 9d		      CMP	player4y
   4113  2979		       90 17		      BCC	.skipL0348
   4114  297b				   .condpart125
   4115  297b							; complex condition detected
   4116  297b							; complex statement detected
   4117  297b		       a5 9d		      LDA	player4y
   4118  297d		       18		      CLC
   4119  297e		       69 05		      ADC	#5
   4120  2980		       c5 ce		      CMP	temp4
   4121  2982		       90 0e		      BCC	.skip125then
   4122  2984				   .condpart126
   4123  2984		       a9 c8		      LDA	#200
   4124  2986		       85 9d		      STA	player4y
   4125  2988		       a9 00		      LDA	#0
   4126  298a		       85 de		      STA	HealthDrop
   4127  298c		       a5 ea		      LDA	Bit2_EnemyMove
   4128  298e		       29 fb		      AND	#251
   4129  2990		       85 ea		      STA	Bit2_EnemyMove
   4130  2992				   .skip125then
   4131  2992				   .skipL0348
   4132  2992				   .
   4133  2992							; 
   4134  2992
   4135  2992				   .__EnemyCollision
   4136  2992							; __EnemyCollision
   4137  2992
   4138  2992				   .L0349		;  if !collision(player0,player1) then goto __Skip_p0_Collision
   4139  2992
   4140  2992		       24 07		      bit	CXPPMM
   4141  2994		       30 03		      BMI	.skipL0349
   4142  2996				   .condpart127
   4143  2996		       4c a8 3a 	      jmp	.__Skip_p0_Collision
   4144  2999
   4145  2999				   .skipL0349
   4146  2999				   .L0350		;  temp5  =  16
   4147  2999
   4148  2999		       a9 10		      LDA	#16
   4149  299b		       85 cf		      STA	temp5
   4150  299d				   .L0351		;  if EnemyHit  <>  1 then if	( player0y  +  10 )   >=  player1y  &&	player0y  <=   ( player1y  +  10 )   &&   ( player0x  +  temp5 )   >=  player1x  &&  player0x  <=   ( player1x	+  7 )	then EnemyHit  =  1  :	Damage	= 20 :	goto __EnemyBlock
   4151  299d
   4152  299d		       a5 d9		      LDA	EnemyHit
   4153  299f		       c9 01		      CMP	#1
   4154  29a1		       f0 2f		      BEQ	.skipL0351
   4155  29a3				   .condpart128
   4156  29a3							; complex condition detected
   4157  29a3							; complex statement detected
   4158  29a3		       a5 99		      LDA	player0y
   4159  29a5		       18		      CLC
   4160  29a6		       69 0a		      ADC	#10
   4161  29a8							; todo: this LDA is spurious and should be prevented ->	LDA  1,x
   4162  29a8		       c5 9a		      CMP	player1y
   4163  29aa		       90 26		      BCC	.skip128then
   4164  29ac				   .condpart129
   4165  29ac							; complex condition detected
   4166  29ac							; complex statement detected
   4167  29ac		       a5 9a		      LDA	player1y
   4168  29ae		       18		      CLC
   4169  29af		       69 0a		      ADC	#10
   4170  29b1							; todo: this LDA is spurious and should be prevented ->	LDA  1,x
   4171  29b1		       c5 99		      CMP	player0y
   4172  29b3		       90 1d		      BCC	.skip129then
   4173  29b5				   .condpart130
   4174  29b5							; complex condition detected
   4175  29b5							; complex statement detected
   4176  29b5		       a5 80		      LDA	player0x
   4177  29b7		       18		      CLC
   4178  29b8		       65 cf		      ADC	temp5
   4179  29ba							; todo: this LDA is spurious and should be prevented ->	LDA  1,x
   4180  29ba		       c5 90		      CMP	player1x
   4181  29bc		       90 14		      BCC	.skip130then
   4182  29be				   .condpart131
   4183  29be							; complex condition detected
   4184  29be							; complex statement detected
   4185  29be		       a5 90		      LDA	player1x
   4186  29c0		       18		      CLC
   4187  29c1		       69 07		      ADC	#7
   4188  29c3		       c5 80		      CMP	player0x
   4189  29c5		       90 0b		      BCC	.skip131then
   4190  29c7				   .condpart132
   4191  29c7		       a9 01		      LDA	#1
   4192  29c9		       85 d9		      STA	EnemyHit
   4193  29cb		       a9 14		      LDA	#20
   4194  29cd		       85 ed		      STA	Damage
   4195  29cf		       4c da 3d 	      jmp	.__EnemyBlock
   4196  29d2
   4197  29d2				   .skip131then
   4198  29d2				   .skip130then
   4199  29d2				   .skip129then
   4200  29d2				   .skip128then
   4201  29d2				   .skipL0351
   4202  29d2				   .L0352		;  if EnemyHit  <>  2 then if	( player0y  +  10 )   >=  player2y  &&	player0y  <=   ( player2y  +  10 )   &&   ( player0x  +  temp5 )   >=  player2x  &&  player0x  <=   ( player2x	+  7 )	then EnemyHit  =  2 :  Damage  = 10  :	goto __EnemyBlock
   4203  29d2
   4204  29d2		       a5 d9		      LDA	EnemyHit
   4205  29d4		       c9 02		      CMP	#2
   4206  29d6		       f0 2f		      BEQ	.skipL0352
   4207  29d8				   .condpart133
   4208  29d8							; complex condition detected
   4209  29d8							; complex statement detected
   4210  29d8		       a5 99		      LDA	player0y
   4211  29da		       18		      CLC
   4212  29db		       69 0a		      ADC	#10
   4213  29dd							; todo: this LDA is spurious and should be prevented ->	LDA  1,x
   4214  29dd		       c5 9b		      CMP	player2y
   4215  29df		       90 26		      BCC	.skip133then
   4216  29e1				   .condpart134
   4217  29e1							; complex condition detected
   4218  29e1							; complex statement detected
   4219  29e1		       a5 9b		      LDA	player2y
   4220  29e3		       18		      CLC
   4221  29e4		       69 0a		      ADC	#10
   4222  29e6							; todo: this LDA is spurious and should be prevented ->	LDA  1,x
   4223  29e6		       c5 99		      CMP	player0y
   4224  29e8		       90 1d		      BCC	.skip134then
   4225  29ea				   .condpart135
   4226  29ea							; complex condition detected
   4227  29ea							; complex statement detected
   4228  29ea		       a5 80		      LDA	player0x
   4229  29ec		       18		      CLC
   4230  29ed		       65 cf		      ADC	temp5
   4231  29ef							; todo: this LDA is spurious and should be prevented ->	LDA  1,x
   4232  29ef		       c5 91		      CMP	player2x
   4233  29f1		       90 14		      BCC	.skip135then
   4234  29f3				   .condpart136
   4235  29f3							; complex condition detected
   4236  29f3							; complex statement detected
   4237  29f3		       a5 91		      LDA	player2x
   4238  29f5		       18		      CLC
   4239  29f6		       69 07		      ADC	#7
   4240  29f8		       c5 80		      CMP	player0x
   4241  29fa		       90 0b		      BCC	.skip136then
   4242  29fc				   .condpart137
   4243  29fc		       a9 02		      LDA	#2
   4244  29fe		       85 d9		      STA	EnemyHit
   4245  2a00		       a9 0a		      LDA	#10
   4246  2a02		       85 ed		      STA	Damage
   4247  2a04		       4c da 3d 	      jmp	.__EnemyBlock
   4248  2a07
   4249  2a07				   .skip136then
   4250  2a07				   .skip135then
   4251  2a07				   .skip134then
   4252  2a07				   .skip133then
   4253  2a07				   .skipL0352
   4254  2a07				   .L0353		;  if EnemyHit  <>  3 then if	( player0y  +  10 )   >=  player3y  &&	player0y  <=   ( player3y  +  10 )   &&   ( player0x  +  temp5 )   >=  player3x  &&  player0x  <=   ( player3x	+  7 )	then EnemyHit  =  3  :	Damage	= 10  :  goto __EnemyBlock
   4255  2a07
   4256  2a07		       a5 d9		      LDA	EnemyHit
   4257  2a09		       c9 03		      CMP	#3
   4258  2a0b		       f0 2f		      BEQ	.skipL0353
   4259  2a0d				   .condpart138
   4260  2a0d							; complex condition detected
   4261  2a0d							; complex statement detected
   4262  2a0d		       a5 99		      LDA	player0y
   4263  2a0f		       18		      CLC
   4264  2a10		       69 0a		      ADC	#10
   4265  2a12							; todo: this LDA is spurious and should be prevented ->	LDA  1,x
   4266  2a12		       c5 9c		      CMP	player3y
   4267  2a14		       90 26		      BCC	.skip138then
   4268  2a16				   .condpart139
   4269  2a16							; complex condition detected
   4270  2a16							; complex statement detected
   4271  2a16		       a5 9c		      LDA	player3y
   4272  2a18		       18		      CLC
   4273  2a19		       69 0a		      ADC	#10
   4274  2a1b							; todo: this LDA is spurious and should be prevented ->	LDA  1,x
   4275  2a1b		       c5 99		      CMP	player0y
   4276  2a1d		       90 1d		      BCC	.skip139then
   4277  2a1f				   .condpart140
   4278  2a1f							; complex condition detected
   4279  2a1f							; complex statement detected
   4280  2a1f		       a5 80		      LDA	player0x
   4281  2a21		       18		      CLC
   4282  2a22		       65 cf		      ADC	temp5
   4283  2a24							; todo: this LDA is spurious and should be prevented ->	LDA  1,x
   4284  2a24		       c5 92		      CMP	player3x
   4285  2a26		       90 14		      BCC	.skip140then
   4286  2a28				   .condpart141
   4287  2a28							; complex condition detected
   4288  2a28							; complex statement detected
   4289  2a28		       a5 92		      LDA	player3x
   4290  2a2a		       18		      CLC
   4291  2a2b		       69 07		      ADC	#7
   4292  2a2d		       c5 80		      CMP	player0x
   4293  2a2f		       90 0b		      BCC	.skip141then
   4294  2a31				   .condpart142
   4295  2a31		       a9 03		      LDA	#3
   4296  2a33		       85 d9		      STA	EnemyHit
   4297  2a35		       a9 0a		      LDA	#10
   4298  2a37		       85 ed		      STA	Damage
   4299  2a39		       4c da 3d 	      jmp	.__EnemyBlock
   4300  2a3c
   4301  2a3c				   .skip141then
   4302  2a3c				   .skip140then
   4303  2a3c				   .skip139then
   4304  2a3c				   .skip138then
   4305  2a3c				   .skipL0353
   4306  2a3c				   .L0354		;  if	( player0y  +  10 )   >=  player4y  &&	player0y  <=   ( player4y  +  10 )   &&   ( player0x  +  temp5 )   >=  player4x  &&  player0x  <=   ( player4x	+  7 )	then gosub __Health bank3
   4307  2a3c
   4308  2a3c							; complex condition detected
   4309  2a3c							; complex statement detected
   4310  2a3c		       a5 99		      LDA	player0y
   4311  2a3e		       18		      CLC
   4312  2a3f		       69 0a		      ADC	#10
   4313  2a41							; todo: this LDA is spurious and should be prevented ->	LDA  1,x
   4314  2a41		       c5 9d		      CMP	player4y
   4315  2a43		       90 33		      BCC	.skipL0354
   4316  2a45				   .condpart143
   4317  2a45							; complex condition detected
   4318  2a45							; complex statement detected
   4319  2a45		       a5 9d		      LDA	player4y
   4320  2a47		       18		      CLC
   4321  2a48		       69 0a		      ADC	#10
   4322  2a4a							; todo: this LDA is spurious and should be prevented ->	LDA  1,x
   4323  2a4a		       c5 99		      CMP	player0y
   4324  2a4c		       90 2a		      BCC	.skip143then
   4325  2a4e				   .condpart144
   4326  2a4e							; complex condition detected
   4327  2a4e							; complex statement detected
   4328  2a4e		       a5 80		      LDA	player0x
   4329  2a50		       18		      CLC
   4330  2a51		       65 cf		      ADC	temp5
   4331  2a53							; todo: this LDA is spurious and should be prevented ->	LDA  1,x
   4332  2a53		       c5 93		      CMP	player4x
   4333  2a55		       90 21		      BCC	.skip144then
   4334  2a57				   .condpart145
   4335  2a57							; complex condition detected
   4336  2a57							; complex statement detected
   4337  2a57		       a5 93		      LDA	player4x
   4338  2a59		       18		      CLC
   4339  2a5a		       69 07		      ADC	#7
   4340  2a5c		       c5 80		      CMP	player0x
   4341  2a5e		       90 18		      BCC	.skip145then
   4342  2a60				   .condpart146
   4343  2a60		       85 81		      sta	temp7
   4344  2a62		       a9 3a		      lda	#>(ret_point17-1)
   4345  2a64		       48		      pha
   4346  2a65		       a9 77		      lda	#<(ret_point17-1)
   4347  2a67		       48		      pha
   4348  2a68		       a9 53		      lda	#>(.__Health-1)
   4349  2a6a		       48		      pha
   4350  2a6b		       a9 5b		      lda	#<(.__Health-1)
   4351  2a6d		       48		      pha
   4352  2a6e		       a5 81		      lda	temp7
   4353  2a70		       48		      pha
   4354  2a71		       8a		      txa
   4355  2a72		       48		      pha
   4356  2a73		       a2 03		      ldx	#3
   4357  2a75		       4c ee df 	      jmp	BS_jsr
   4358  2a78				   ret_point17
   4359  2a78				   .skip145then
   4360  2a78				   .skip144then
   4361  2a78				   .skip143then
   4362  2a78				   .skipL0354
   4363  2a78				   .L0355		;  if	( player0y  +  10 )   >=  player5y  &&	player0y  <=   ( player5y  +  10 )   &&   ( player0x  +  temp5 )   >=  player5x  &&  player0x  <=   ( player5x	+  7 )	then goto __JoystickControls
   4364  2a78
   4365  2a78							; complex condition detected
   4366  2a78							; complex statement detected
   4367  2a78		       a5 99		      LDA	player0y
   4368  2a7a		       18		      CLC
   4369  2a7b		       69 0a		      ADC	#10
   4370  2a7d							; todo: this LDA is spurious and should be prevented ->	LDA  1,x
   4371  2a7d		       c5 9e		      CMP	player5y
   4372  2a7f		       90 1e		      BCC	.skipL0355
   4373  2a81				   .condpart147
   4374  2a81							; complex condition detected
   4375  2a81							; complex statement detected
   4376  2a81		       a5 9e		      LDA	player5y
   4377  2a83		       18		      CLC
   4378  2a84		       69 0a		      ADC	#10
   4379  2a86							; todo: this LDA is spurious and should be prevented ->	LDA  1,x
   4380  2a86		       c5 99		      CMP	player0y
   4381  2a88		       90 15		      BCC	.skip147then
   4382  2a8a				   .condpart148
   4383  2a8a							; complex condition detected
   4384  2a8a							; complex statement detected
   4385  2a8a		       a5 80		      LDA	player0x
   4386  2a8c		       18		      CLC
   4387  2a8d		       65 cf		      ADC	temp5
   4388  2a8f							; todo: this LDA is spurious and should be prevented ->	LDA  1,x
   4389  2a8f		       c5 94		      CMP	player5x
   4390  2a91		       90 0c		      BCC	.skip148then
   4391  2a93				   .condpart149
   4392  2a93							; complex condition detected
   4393  2a93							; complex statement detected
   4394  2a93		       a5 94		      LDA	player5x
   4395  2a95		       18		      CLC
   4396  2a96		       69 07		      ADC	#7
   4397  2a98		       c5 80		      CMP	player0x
   4398  2a9a		       90 03		      BCC	.skip149then
   4399  2a9c				   .condpart150
   4400  2a9c		       4c b0 3b 	      jmp	.__JoystickControls
   4401  2a9f
   4402  2a9f				   .skip149then
   4403  2a9f				   .skip148then
   4404  2a9f				   .skip147then
   4405  2a9f				   .skipL0355
   4406  2a9f				   .L0356		;  if EnemyHit  <  1 then goto __EnemyScore
   4407  2a9f
   4408  2a9f		       a5 d9		      LDA	EnemyHit
   4409  2aa1		       c9 01		      CMP	#1
   4410  2aa3		       b0 03		      BCS	.skipL0356
   4411  2aa5				   .condpart151
   4412  2aa5		       4c 0f 3e 	      jmp	.__EnemyScore
   4413  2aa8
   4414  2aa8				   .skipL0356
   4415  2aa8				   .
   4416  2aa8							; 
   4417  2aa8
   4418  2aa8				   .__Skip_p0_Collision
   4419  2aa8							; __Skip_p0_Collision
   4420  2aa8
   4421  2aa8				   .L0357		;  if !collision(missile0,player1) then goto __Skip_PF_Collision
   4422  2aa8
   4423  2aa8		       24 00		      bit	CXM0P
   4424  2aaa		       30 03		      BMI	.skipL0357
   4425  2aac				   .condpart152
   4426  2aac		       4c 92 3b 	      jmp	.__Skip_PF_Collision
   4427  2aaf
   4428  2aaf				   .skipL0357
   4429  2aaf				   .L0358		;  temp5  =  missile0height[8]
   4430  2aaf
   4431  2aaf		       a2 08		      LDX	#8
   4432  2ab1		       b5 c2		      LDA	missile0height,x
   4433  2ab3		       85 cf		      STA	temp5
   4434  2ab5				   .L0359		;  if EnemyHit  <  1 then if  ( missile0y  +  missile0height )   >=  player1y	&&  missile0y  <=   ( player1y	+  10 )   &&   ( missile0x  +  temp5 )	 >=  player1x  &&  missile0x  <=   ( player1x  +  15 )	then EnemyHit  =  1 :  Points = $10  :	goto __Score
   4435  2ab5
   4436  2ab5		       a5 d9		      LDA	EnemyHit
   4437  2ab7		       c9 01		      CMP	#1
   4438  2ab9		       b0 2f		      BCS	.skipL0359
   4439  2abb				   .condpart153
   4440  2abb							; complex condition detected
   4441  2abb							; complex statement detected
   4442  2abb		       a5 bf		      LDA	missile0y
   4443  2abd		       18		      CLC
   4444  2abe		       65 c2		      ADC	missile0height
   4445  2ac0							; todo: this LDA is spurious and should be prevented ->	LDA  1,x
   4446  2ac0		       c5 9a		      CMP	player1y
   4447  2ac2		       90 26		      BCC	.skip153then
   4448  2ac4				   .condpart154
   4449  2ac4							; complex condition detected
   4450  2ac4							; complex statement detected
   4451  2ac4		       a5 9a		      LDA	player1y
   4452  2ac6		       18		      CLC
   4453  2ac7		       69 0a		      ADC	#10
   4454  2ac9							; todo: this LDA is spurious and should be prevented ->	LDA  1,x
   4455  2ac9		       c5 bf		      CMP	missile0y
   4456  2acb		       90 1d		      BCC	.skip154then
   4457  2acd				   .condpart155
   4458  2acd							; complex condition detected
   4459  2acd							; complex statement detected
   4460  2acd		       a5 82		      LDA	missile0x
   4461  2acf		       18		      CLC
   4462  2ad0		       65 cf		      ADC	temp5
   4463  2ad2							; todo: this LDA is spurious and should be prevented ->	LDA  1,x
   4464  2ad2		       c5 90		      CMP	player1x
   4465  2ad4		       90 14		      BCC	.skip155then
   4466  2ad6				   .condpart156
   4467  2ad6							; complex condition detected
   4468  2ad6							; complex statement detected
   4469  2ad6		       a5 90		      LDA	player1x
   4470  2ad8		       18		      CLC
   4471  2ad9		       69 0f		      ADC	#15
   4472  2adb		       c5 82		      CMP	missile0x
   4473  2add		       90 0b		      BCC	.skip156then
   4474  2adf				   .condpart157
   4475  2adf		       a9 01		      LDA	#1
   4476  2ae1		       85 d9		      STA	EnemyHit
   4477  2ae3		       a9 10		      LDA	#$10
   4478  2ae5		       85 d4		      STA	Points
   4479  2ae7		       4c f5 3c 	      jmp	.__Score
   4480  2aea
   4481  2aea				   .skip156then
   4482  2aea				   .skip155then
   4483  2aea				   .skip154then
   4484  2aea				   .skip153then
   4485  2aea				   .skipL0359
   4486  2aea				   .L0360		;  if EnemyHit  <  2 then if  ( missile0y  +  missile0height )   >=  player2y	&&  missile0y  <=   ( player2y	+  10 )   &&   ( missile0x  +  temp5 )	 >=  player2x  &&  missile0x  <=   ( player2x  +  15 )	then EnemyHit  =  2  :	Points = $05  :  goto __Score
   4487  2aea
   4488  2aea		       a5 d9		      LDA	EnemyHit
   4489  2aec		       c9 02		      CMP	#2
   4490  2aee		       b0 2f		      BCS	.skipL0360
   4491  2af0				   .condpart158
   4492  2af0							; complex condition detected
   4493  2af0							; complex statement detected
   4494  2af0		       a5 bf		      LDA	missile0y
   4495  2af2		       18		      CLC
   4496  2af3		       65 c2		      ADC	missile0height
   4497  2af5							; todo: this LDA is spurious and should be prevented ->	LDA  1,x
   4498  2af5		       c5 9b		      CMP	player2y
   4499  2af7		       90 26		      BCC	.skip158then
   4500  2af9				   .condpart159
   4501  2af9							; complex condition detected
   4502  2af9							; complex statement detected
   4503  2af9		       a5 9b		      LDA	player2y
   4504  2afb		       18		      CLC
   4505  2afc		       69 0a		      ADC	#10
   4506  2afe							; todo: this LDA is spurious and should be prevented ->	LDA  1,x
   4507  2afe		       c5 bf		      CMP	missile0y
   4508  2b00		       90 1d		      BCC	.skip159then
   4509  2b02				   .condpart160
   4510  2b02							; complex condition detected
   4511  2b02							; complex statement detected
   4512  2b02		       a5 82		      LDA	missile0x
   4513  2b04		       18		      CLC
   4514  2b05		       65 cf		      ADC	temp5
   4515  2b07							; todo: this LDA is spurious and should be prevented ->	LDA  1,x
   4516  2b07		       c5 91		      CMP	player2x
   4517  2b09		       90 14		      BCC	.skip160then
   4518  2b0b				   .condpart161
   4519  2b0b							; complex condition detected
   4520  2b0b							; complex statement detected
   4521  2b0b		       a5 91		      LDA	player2x
   4522  2b0d		       18		      CLC
   4523  2b0e		       69 0f		      ADC	#15
   4524  2b10		       c5 82		      CMP	missile0x
   4525  2b12		       90 0b		      BCC	.skip161then
   4526  2b14				   .condpart162
   4527  2b14		       a9 02		      LDA	#2
   4528  2b16		       85 d9		      STA	EnemyHit
   4529  2b18		       a9 05		      LDA	#$05
   4530  2b1a		       85 d4		      STA	Points
   4531  2b1c		       4c f5 3c 	      jmp	.__Score
   4532  2b1f
   4533  2b1f				   .skip161then
   4534  2b1f				   .skip160then
   4535  2b1f				   .skip159then
   4536  2b1f				   .skip158then
   4537  2b1f				   .skipL0360
   4538  2b1f				   .L0361		;  if EnemyHit  <  3 then if  ( missile0y  +  missile0height )   >=  player3y	&&  missile0y  <=   ( player3y	+  10 )   &&   ( missile0x  +  temp5 )	 >=  player3x  &&  missile0x  <=   ( player3x  +  15 )	then EnemyHit  =  3  :	Bit6_PLayer3Direction{6}  = 0  :  goto __Score : 
   4539  2b1f
   4540  2b1f		       a5 d9		      LDA	EnemyHit
   4541  2b21		       c9 03		      CMP	#3
   4542  2b23		       b0 31		      BCS	.skipL0361
   4543  2b25				   .condpart163
   4544  2b25							; complex condition detected
   4545  2b25							; complex statement detected
   4546  2b25		       a5 bf		      LDA	missile0y
   4547  2b27		       18		      CLC
   4548  2b28		       65 c2		      ADC	missile0height
   4549  2b2a							; todo: this LDA is spurious and should be prevented ->	LDA  1,x
   4550  2b2a		       c5 9c		      CMP	player3y
   4551  2b2c		       90 28		      BCC	.skip163then
   4552  2b2e				   .condpart164
   4553  2b2e							; complex condition detected
   4554  2b2e							; complex statement detected
   4555  2b2e		       a5 9c		      LDA	player3y
   4556  2b30		       18		      CLC
   4557  2b31		       69 0a		      ADC	#10
   4558  2b33							; todo: this LDA is spurious and should be prevented ->	LDA  1,x
   4559  2b33		       c5 bf		      CMP	missile0y
   4560  2b35		       90 1f		      BCC	.skip164then
   4561  2b37				   .condpart165
   4562  2b37							; complex condition detected
   4563  2b37							; complex statement detected
   4564  2b37		       a5 82		      LDA	missile0x
   4565  2b39		       18		      CLC
   4566  2b3a		       65 cf		      ADC	temp5
   4567  2b3c							; todo: this LDA is spurious and should be prevented ->	LDA  1,x
   4568  2b3c		       c5 92		      CMP	player3x
   4569  2b3e		       90 16		      BCC	.skip165then
   4570  2b40				   .condpart166
   4571  2b40							; complex condition detected
   4572  2b40							; complex statement detected
   4573  2b40		       a5 92		      LDA	player3x
   4574  2b42		       18		      CLC
   4575  2b43		       69 0f		      ADC	#15
   4576  2b45		       c5 82		      CMP	missile0x
   4577  2b47		       90 0d		      BCC	.skip166then
   4578  2b49				   .condpart167
   4579  2b49		       a9 03		      LDA	#3
   4580  2b4b		       85 d9		      STA	EnemyHit
   4581  2b4d		       a5 ea		      LDA	Bit6_PLayer3Direction
   4582  2b4f		       29 bf		      AND	#191
   4583  2b51		       85 ea		      STA	Bit6_PLayer3Direction
   4584  2b53		       4c f5 3c 	      jmp	.__Score
   4585  2b56				   .skip166then
   4586  2b56				   .skip165then
   4587  2b56				   .skip164then
   4588  2b56				   .skip163then
   4589  2b56				   .skipL0361
   4590  2b56				   .L0362		;  if	( missile0y  +	missile0height )   >=  player4y  &&  missile0y	<=   ( player4y  +  10 )   &&	( missile0x  +	temp5 )   >=  player4x	&&  missile0x  <=   ( player4x	+  15 )  then gosub __Health bank3
   4591  2b56
   4592  2b56							; complex condition detected
   4593  2b56							; complex statement detected
   4594  2b56		       a5 bf		      LDA	missile0y
   4595  2b58		       18		      CLC
   4596  2b59		       65 c2		      ADC	missile0height
   4597  2b5b							; todo: this LDA is spurious and should be prevented ->	LDA  1,x
   4598  2b5b		       c5 9d		      CMP	player4y
   4599  2b5d		       90 33		      BCC	.skipL0362
   4600  2b5f				   .condpart168
   4601  2b5f							; complex condition detected
   4602  2b5f							; complex statement detected
   4603  2b5f		       a5 9d		      LDA	player4y
   4604  2b61		       18		      CLC
   4605  2b62		       69 0a		      ADC	#10
   4606  2b64							; todo: this LDA is spurious and should be prevented ->	LDA  1,x
   4607  2b64		       c5 bf		      CMP	missile0y
   4608  2b66		       90 2a		      BCC	.skip168then
   4609  2b68				   .condpart169
   4610  2b68							; complex condition detected
   4611  2b68							; complex statement detected
   4612  2b68		       a5 82		      LDA	missile0x
   4613  2b6a		       18		      CLC
   4614  2b6b		       65 cf		      ADC	temp5
   4615  2b6d							; todo: this LDA is spurious and should be prevented ->	LDA  1,x
   4616  2b6d		       c5 93		      CMP	player4x
   4617  2b6f		       90 21		      BCC	.skip169then
   4618  2b71				   .condpart170
   4619  2b71							; complex condition detected
   4620  2b71							; complex statement detected
   4621  2b71		       a5 93		      LDA	player4x
   4622  2b73		       18		      CLC
   4623  2b74		       69 0f		      ADC	#15
   4624  2b76		       c5 82		      CMP	missile0x
   4625  2b78		       90 18		      BCC	.skip170then
   4626  2b7a				   .condpart171
   4627  2b7a		       85 81		      sta	temp7
   4628  2b7c		       a9 3b		      lda	#>(ret_point18-1)
   4629  2b7e		       48		      pha
   4630  2b7f		       a9 91		      lda	#<(ret_point18-1)
   4631  2b81		       48		      pha
   4632  2b82		       a9 53		      lda	#>(.__Health-1)
   4633  2b84		       48		      pha
   4634  2b85		       a9 5b		      lda	#<(.__Health-1)
   4635  2b87		       48		      pha
   4636  2b88		       a5 81		      lda	temp7
   4637  2b8a		       48		      pha
   4638  2b8b		       8a		      txa
   4639  2b8c		       48		      pha
   4640  2b8d		       a2 03		      ldx	#3
   4641  2b8f		       4c ee df 	      jmp	BS_jsr
   4642  2b92				   ret_point18
   4643  2b92				   .skip170then
   4644  2b92				   .skip169then
   4645  2b92				   .skip168then
   4646  2b92				   .skipL0362
   4647  2b92				   .
   4648  2b92							; 
   4649  2b92
   4650  2b92				   .__Skip_PF_Collision
   4651  2b92							; __Skip_PF_Collision
   4652  2b92
   4653  2b92				   .
   4654  2b92							; 
   4655  2b92
   4656  2b92				   .__SkipMove
   4657  2b92							; __SkipMove
   4658  2b92
   4659  2b92				   .
   4660  2b92							; 
   4661  2b92
   4662  2b92				   .L0363		;  DF6FRACINC	=  255
   4663  2b92
   4664  2b92		       a9 ff		      LDA	#255
   4665  2b94		       8d 3e 10 	      STA	DF6FRACINC
   4666  2b97				   .L0364		;  DF4FRACINC	=  255
   4667  2b97
   4668  2b97		       a9 ff		      LDA	#255
   4669  2b99		       8d 3c 10 	      STA	DF4FRACINC
   4670  2b9c				   .L0365		;  DF0FRACINC	=  128
   4671  2b9c
   4672  2b9c		       a9 80		      LDA	#128
   4673  2b9e		       8d 38 10 	      STA	DF0FRACINC
   4674  2ba1				   .L0366		;  DF1FRACINC	=  128
   4675  2ba1
   4676  2ba1		       a9 80		      LDA	#128
   4677  2ba3		       8d 39 10 	      STA	DF1FRACINC
   4678  2ba6				   .L0367		;  DF2FRACINC	=  128
   4679  2ba6
   4680  2ba6		       a9 80		      LDA	#128
   4681  2ba8		       8d 3a 10 	      STA	DF2FRACINC
   4682  2bab				   .L0368		;  DF3FRACINC	=  128
   4683  2bab
   4684  2bab		       a9 80		      LDA	#128
   4685  2bad		       8d 3b 10 	      STA	DF3FRACINC
   4686  2bb0				   .
   4687  2bb0							; 
   4688  2bb0
   4689  2bb0				   .__JoystickControls
   4690  2bb0							; __JoystickControls
   4691  2bb0
   4692  2bb0				   .L0369		;  if joy0left  &&  player0x  >  _P_Edge_Left then player0x  =  player0x  -  1
   4693  2bb0
   4694  2bb0		       2c 80 02 	      bit	SWCHA
   4695  2bb3		       70 08		      BVS	.skipL0369
   4696  2bb5				   .condpart172
   4697  2bb5		       a9 00		      LDA	#_P_Edge_Left
   4698  2bb7		       c5 80		      CMP	player0x
   4699  2bb9		       b0 02		      BCS	.skip172then
   4700  2bbb				   .condpart173
   4701  2bbb		       c6 80		      DEC	player0x
   4702  2bbd				   .skip172then
   4703  2bbd				   .skipL0369
   4704  2bbd				   .L0370		;  if joy0right  &&  player0x	<  _P_Edge_Right then player0x	=  player0x  +	1
   4705  2bbd
   4706  2bbd		       2c 80 02 	      bit	SWCHA
   4707  2bc0		       30 08		      BMI	.skipL0370
   4708  2bc2				   .condpart174
   4709  2bc2		       a5 80		      LDA	player0x
   4710  2bc4		       c9 96		      CMP	#_P_Edge_Right
   4711  2bc6		       b0 02		      BCS	.skip174then
   4712  2bc8				   .condpart175
   4713  2bc8		       e6 80		      INC	player0x
   4714  2bca				   .skip174then
   4715  2bca				   .skipL0370
   4716  2bca				   .
   4717  2bca							; 
   4718  2bca
   4719  2bca				   .__FireSound
   4720  2bca							; __FireSound
   4721  2bca
   4722  2bca				   .L0371		;  if joy0fire  &&  !Bit4_gameover{4} then if !Ch0_Sound  &&  !Bit1_missleOn{1} then Ch0_Sound  =  1  :  Ch0_Duration	=  15
   4723  2bca
   4724  2bca		       24 0c		      bit	INPT4
   4725  2bcc		       30 18		      BMI	.skipL0371
   4726  2bce				   .condpart176
   4727  2bce		       a5 ea		      LDA	Bit4_gameover
   4728  2bd0		       29 10		      AND	#16
   4729  2bd2		       d0 12		      BNE	.skip176then
   4730  2bd4				   .condpart177
   4731  2bd4		       a5 e7		      LDA	Ch0_Sound
   4732  2bd6		       d0 0e		      BNE	.skip177then
   4733  2bd8				   .condpart178
   4734  2bd8		       a5 ea		      LDA	Bit1_missleOn
   4735  2bda		       29 02		      AND	#2
   4736  2bdc		       d0 08		      BNE	.skip178then
   4737  2bde				   .condpart179
   4738  2bde		       a9 01		      LDA	#1
   4739  2be0		       85 e7		      STA	Ch0_Sound
   4740  2be2		       a9 0f		      LDA	#15
   4741  2be4		       85 e8		      STA	Ch0_Duration
   4742  2be6				   .skip178then
   4743  2be6				   .skip177then
   4744  2be6				   .skip176then
   4745  2be6				   .skipL0371
   4746  2be6				   .L0372		;  if !Ch0_Sound then goto __Skip_Ch_0
   4747  2be6
   4748  2be6		       a5 e7		      LDA	Ch0_Sound
   4749  2be8		       d0 03		      BNE	.skipL0372
   4750  2bea				   .condpart180
   4751  2bea		       4c 3b 3c 	      jmp	.__Skip_Ch_0
   4752  2bed
   4753  2bed				   .skipL0372
   4754  2bed				   .L0373		;  Ch0_Duration  =  Ch0_Duration  -  1
   4755  2bed
   4756  2bed		       c6 e8		      DEC	Ch0_Duration
   4757  2bef				   .L0374		;  if !Ch0_Duration then goto __Clear_Ch_0
   4758  2bef
   4759  2bef		       a5 e8		      LDA	Ch0_Duration
   4760  2bf1		       d0 03		      BNE	.skipL0374
   4761  2bf3				   .condpart181
   4762  2bf3		       4c 35 3c 	      jmp	.__Clear_Ch_0
   4763  2bf6
   4764  2bf6				   .skipL0374
   4765  2bf6				   .L0375		;  if Ch0_Sound  <>  1 then goto __Skip_Ch0_Sound_001
   4766  2bf6
   4767  2bf6		       a5 e7		      LDA	Ch0_Sound
   4768  2bf8		       c9 01		      CMP	#1
   4769  2bfa		       f0 03		      BEQ	.skipL0375
   4770  2bfc				   .condpart182
   4771  2bfc		       4c 32 3c 	      jmp	.__Skip_Ch0_Sound_001
   4772  2bff
   4773  2bff				   .skipL0375
   4774  2bff				   .L0376		;  AUDC0  =  8  :  AUDV0  =  2  :  AUDF0  =  4
   4775  2bff
   4776  2bff		       a9 08		      LDA	#8
   4777  2c01		       85 15		      STA	AUDC0
   4778  2c03		       a9 02		      LDA	#2
   4779  2c05		       85 19		      STA	AUDV0
   4780  2c07		       a9 04		      LDA	#4
   4781  2c09		       85 17		      STA	AUDF0
   4782  2c0b				   .L0377		;  if Ch0_Duration  <	10 then AUDC0  =  6  :	AUDV0  =  2  :	AUDF0  =  12
   4783  2c0b
   4784  2c0b		       a5 e8		      LDA	Ch0_Duration
   4785  2c0d		       c9 0a		      CMP	#10
   4786  2c0f		       b0 0c		      BCS	.skipL0377
   4787  2c11				   .condpart183
   4788  2c11		       a9 06		      LDA	#6
   4789  2c13		       85 15		      STA	AUDC0
   4790  2c15		       a9 02		      LDA	#2
   4791  2c17		       85 19		      STA	AUDV0
   4792  2c19		       a9 0c		      LDA	#12
   4793  2c1b		       85 17		      STA	AUDF0
   4794  2c1d				   .skipL0377
   4795  2c1d				   .L0378		;  if Ch0_Duration  <	5 then AUDC0  =  6  :  AUDV0  =  1  :  AUDF0  =  14
   4796  2c1d
   4797  2c1d		       a5 e8		      LDA	Ch0_Duration
   4798  2c1f		       c9 05		      CMP	#5
   4799  2c21		       b0 0c		      BCS	.skipL0378
   4800  2c23				   .condpart184
   4801  2c23		       a9 06		      LDA	#6
   4802  2c25		       85 15		      STA	AUDC0
   4803  2c27		       a9 01		      LDA	#1
   4804  2c29		       85 19		      STA	AUDV0
   4805  2c2b		       a9 0e		      LDA	#14
   4806  2c2d		       85 17		      STA	AUDF0
   4807  2c2f				   .skipL0378
   4808  2c2f				   .L0379		;  goto __Skip_Ch_0
   4809  2c2f
   4810  2c2f		       4c 3b 3c 	      jmp	.__Skip_Ch_0
   4811  2c32
   4812  2c32				   .__Skip_Ch0_Sound_001
   4813  2c32							; __Skip_Ch0_Sound_001
   4814  2c32
   4815  2c32				   .L0380		;  goto __Skip_Ch_0
   4816  2c32
   4817  2c32		       4c 3b 3c 	      jmp	.__Skip_Ch_0
   4818  2c35
   4819  2c35				   .__Clear_Ch_0
   4820  2c35							; __Clear_Ch_0
   4821  2c35
   4822  2c35				   .L0381		;  Ch0_Sound  =  0  :	AUDV0  =  0
   4823  2c35
   4824  2c35		       a9 00		      LDA	#0
   4825  2c37		       85 e7		      STA	Ch0_Sound
   4826  2c39		       85 19		      STA	AUDV0
   4827  2c3b				   .__Skip_Ch_0
   4828  2c3b							; __Skip_Ch_0
   4829  2c3b
   4830  2c3b				   .L0382		;  if !Bit4_gameover{4} then if joy0fire  &&  !Bit1_missleOn{1} then if EnemyHit  <  1 then Bit1_missleOn{1}  =  1  :	missile0x  =  player0x	+  5 :	missile0y  =  player0y
   4831  2c3b
   4832  2c3b		       a5 ea		      LDA	Bit4_gameover
   4833  2c3d		       29 10		      AND	#16
   4834  2c3f		       d0 21		      BNE	.skipL0382
   4835  2c41				   .condpart185
   4836  2c41		       24 0c		      bit	INPT4
   4837  2c43		       30 1d		      BMI	.skip185then
   4838  2c45				   .condpart186
   4839  2c45		       a5 ea		      LDA	Bit1_missleOn
   4840  2c47		       29 02		      AND	#2
   4841  2c49		       d0 17		      BNE	.skip186then
   4842  2c4b				   .condpart187
   4843  2c4b		       a5 d9		      LDA	EnemyHit
   4844  2c4d		       c9 01		      CMP	#1
   4845  2c4f		       b0 11		      BCS	.skip187then
   4846  2c51				   .condpart188
   4847  2c51		       a5 ea		      LDA	Bit1_missleOn
   4848  2c53		       09 02		      ORA	#2
   4849  2c55		       85 ea		      STA	Bit1_missleOn
   4850  2c57		       a5 80		      LDA	player0x
   4851  2c59		       18		      CLC
   4852  2c5a		       69 05		      ADC	#5
   4853  2c5c		       85 82		      STA	missile0x
   4854  2c5e		       a5 99		      LDA	player0y
   4855  2c60		       85 bf		      STA	missile0y
   4856  2c62				   .skip187then
   4857  2c62				   .skip186then
   4858  2c62				   .skip185then
   4859  2c62				   .skipL0382
   4860  2c62				   .
   4861  2c62							; 
   4862  2c62
   4863  2c62				   .__Explosion
   4864  2c62							; __Explosion
   4865  2c62
   4866  2c62				   .L0383		;  if Bit5_hit{5}  &&	!Ch1_Sound then Ch1_Sound  =  1  :  Ch1_Duration  =  30
   4867  2c62
   4868  2c62		       a5 ea		      LDA	Bit5_hit
   4869  2c64		       29 20		      AND	#32
   4870  2c66		       f0 0c		      BEQ	.skipL0383
   4871  2c68				   .condpart189
   4872  2c68		       a5 da		      LDA	Ch1_Sound
   4873  2c6a		       d0 08		      BNE	.skip189then
   4874  2c6c				   .condpart190
   4875  2c6c		       a9 01		      LDA	#1
   4876  2c6e		       85 da		      STA	Ch1_Sound
   4877  2c70		       a9 1e		      LDA	#30
   4878  2c72		       85 db		      STA	Ch1_Duration
   4879  2c74				   .skip189then
   4880  2c74				   .skipL0383
   4881  2c74				   .L0384		;  if !Ch1_Sound then goto __Skip_Fire
   4882  2c74
   4883  2c74		       a5 da		      LDA	Ch1_Sound
   4884  2c76		       d0 03		      BNE	.skipL0384
   4885  2c78				   .condpart191
   4886  2c78		       4c d3 3c 	      jmp	.__Skip_Fire
   4887  2c7b
   4888  2c7b				   .skipL0384
   4889  2c7b				   .L0385		;  Ch1_Duration  =  Ch1_Duration  -  1
   4890  2c7b
   4891  2c7b		       c6 db		      DEC	Ch1_Duration
   4892  2c7d				   .L0386		;  if !Ch1_Duration then goto __Exp_Clear_Ch_1
   4893  2c7d
   4894  2c7d		       a5 db		      LDA	Ch1_Duration
   4895  2c7f		       d0 03		      BNE	.skipL0386
   4896  2c81				   .condpart192
   4897  2c81		       4c c3 3c 	      jmp	.__Exp_Clear_Ch_1
   4898  2c84
   4899  2c84				   .skipL0386
   4900  2c84				   .L0387		;  if Ch1_Sound  <>  1 then goto __Exp_Skip_Ch0_Sound_001
   4901  2c84
   4902  2c84		       a5 da		      LDA	Ch1_Sound
   4903  2c86		       c9 01		      CMP	#1
   4904  2c88		       f0 03		      BEQ	.skipL0387
   4905  2c8a				   .condpart193
   4906  2c8a		       4c c0 3c 	      jmp	.__Exp_Skip_Ch0_Sound_001
   4907  2c8d
   4908  2c8d				   .skipL0387
   4909  2c8d				   .L0388		;  AUDC1  =  8  :  AUDV1  =  4  :  AUDF1  =  16
   4910  2c8d
   4911  2c8d		       a9 08		      LDA	#8
   4912  2c8f		       85 16		      STA	AUDC1
   4913  2c91		       a9 04		      LDA	#4
   4914  2c93		       85 1a		      STA	AUDV1
   4915  2c95		       a9 10		      LDA	#16
   4916  2c97		       85 18		      STA	AUDF1
   4917  2c99				   .L0389		;  if Ch1_Duration  <	20 then AUDC1  =  8  :	AUDV1  =  2  :	AUDF1  =  24
   4918  2c99
   4919  2c99		       a5 db		      LDA	Ch1_Duration
   4920  2c9b		       c9 14		      CMP	#20
   4921  2c9d		       b0 0c		      BCS	.skipL0389
   4922  2c9f				   .condpart194
   4923  2c9f		       a9 08		      LDA	#8
   4924  2ca1		       85 16		      STA	AUDC1
   4925  2ca3		       a9 02		      LDA	#2
   4926  2ca5		       85 1a		      STA	AUDV1
   4927  2ca7		       a9 18		      LDA	#24
   4928  2ca9		       85 18		      STA	AUDF1
   4929  2cab				   .skipL0389
   4930  2cab				   .L0390		;  if Ch1_Duration  <	10 then AUDC1  =  8  :	AUDV1  =  2  :	AUDF1  =  16
   4931  2cab
   4932  2cab		       a5 db		      LDA	Ch1_Duration
   4933  2cad		       c9 0a		      CMP	#10
   4934  2caf		       b0 0c		      BCS	.skipL0390
   4935  2cb1				   .condpart195
   4936  2cb1		       a9 08		      LDA	#8
   4937  2cb3		       85 16		      STA	AUDC1
   4938  2cb5		       a9 02		      LDA	#2
   4939  2cb7		       85 1a		      STA	AUDV1
   4940  2cb9		       a9 10		      LDA	#16
   4941  2cbb		       85 18		      STA	AUDF1
   4942  2cbd				   .skipL0390
   4943  2cbd				   .L0391		;  goto __Skip_Fire
   4944  2cbd
   4945  2cbd		       4c d3 3c 	      jmp	.__Skip_Fire
   4946  2cc0
   4947  2cc0				   .__Exp_Skip_Ch0_Sound_001
   4948  2cc0							; __Exp_Skip_Ch0_Sound_001
   4949  2cc0
   4950  2cc0				   .L0392		;  goto __Skip_Fire
   4951  2cc0
   4952  2cc0		       4c d3 3c 	      jmp	.__Skip_Fire
   4953  2cc3
   4954  2cc3				   .__Exp_Clear_Ch_1
   4955  2cc3							; __Exp_Clear_Ch_1
   4956  2cc3
   4957  2cc3				   .L0393		;  Ch1_Sound  =  0  :	AUDV1  =  0 :  AUDC1  =  0 :  AUDF1  =	0 :  Bit5_hit{5}  = 0
   4958  2cc3
   4959  2cc3		       a9 00		      LDA	#0
   4960  2cc5		       85 da		      STA	Ch1_Sound
   4961  2cc7		       85 1a		      STA	AUDV1
   4962  2cc9		       85 16		      STA	AUDC1
   4963  2ccb		       85 18		      STA	AUDF1
   4964  2ccd		       a5 ea		      LDA	Bit5_hit
   4965  2ccf		       29 df		      AND	#223
   4966  2cd1		       85 ea		      STA	Bit5_hit
   4967  2cd3				   .
   4968  2cd3							; 
   4969  2cd3
   4970  2cd3				   .__Skip_Fire
   4971  2cd3							; __Skip_Fire
   4972  2cd3
   4973  2cd3				   .L0394		;  if Bit1_missleOn{1} then missile0y	=  missile0y  -  5
   4974  2cd3
   4975  2cd3		       a5 ea		      LDA	Bit1_missleOn
   4976  2cd5		       29 02		      AND	#2
   4977  2cd7		       f0 07		      BEQ	.skipL0394
   4978  2cd9				   .condpart196
   4979  2cd9		       a5 bf		      LDA	missile0y
   4980  2cdb		       38		      SEC
   4981  2cdc		       e9 05		      SBC	#5
   4982  2cde		       85 bf		      STA	missile0y
   4983  2ce0				   .skipL0394
   4984  2ce0				   .L0395		;  if missile0y  <  1 then Bit1_missleOn{1}  =  0 :  missile0x  = 200 :  missile0y  =	200
   4985  2ce0
   4986  2ce0		       a5 bf		      LDA	missile0y
   4987  2ce2		       c9 01		      CMP	#1
   4988  2ce4		       b0 0c		      BCS	.skipL0395
   4989  2ce6				   .condpart197
   4990  2ce6		       a5 ea		      LDA	Bit1_missleOn
   4991  2ce8		       29 fd		      AND	#253
   4992  2cea		       85 ea		      STA	Bit1_missleOn
   4993  2cec		       a9 c8		      LDA	#200
   4994  2cee		       85 82		      STA	missile0x
   4995  2cf0		       85 bf		      STA	missile0y
   4996  2cf2				   .skipL0395
   4997  2cf2				   .L0396		;  goto __EnemyFire
   4998  2cf2
   4999  2cf2		       4c 42 3d 	      jmp	.__EnemyFire
   5000  2cf5
   5001  2cf5				   .
   5002  2cf5							; 
   5003  2cf5
   5004  2cf5				   .__Score
   5005  2cf5							; __Score
   5006  2cf5
   5007  2cf5				   .L0397		;  Bit5_hit{5}  =  1
   5008  2cf5
   5009  2cf5		       a5 ea		      LDA	Bit5_hit
   5010  2cf7		       09 20		      ORA	#32
   5011  2cf9		       85 ea		      STA	Bit5_hit
   5012  2cfb				   .L0398		;  if !Bit6_PLayer3Direction{6} then Points  = $35
   5013  2cfb
   5014  2cfb		       24 ea		      BIT	Bit6_PLayer3Direction
   5015  2cfd		       70 04		      BVS	.skipL0398
   5016  2cff				   .condpart198
   5017  2cff		       a9 35		      LDA	#$35
   5018  2d01		       85 d4		      STA	Points
   5019  2d03				   .skipL0398
   5020  2d03				   .L0399		;  frame  =  0
   5021  2d03
   5022  2d03		       a9 00		      LDA	#0
   5023  2d05		       85 d6		      STA	frame
   5024  2d07				   .L0400		;  score  = score  +  Points
   5025  2d07
   5026  2d07		       f8		      SED
   5027  2d08		       18		      CLC
   5028  2d09		       a5 ba		      LDA	score+2
   5029  2d0b		       65 d4		      ADC	Points
   5030  2d0d
   5031  2d0d		       85 ba		      STA	score+2
   5032  2d0f		       a5 b9		      LDA	score+1
   5033  2d11		       69 00		      ADC	#0
   5034  2d13		       85 b9		      STA	score+1
   5035  2d15		       a5 b8		      LDA	score
   5036  2d17		       69 00		      ADC	#0
   5037  2d19		       85 b8		      STA	score
   5038  2d1b		       d8		      CLD
   5039  2d1c				   .L0401		;  missile0x  =  200  :  missile0y  =	200
   5040  2d1c
   5041  2d1c		       a9 c8		      LDA	#200
   5042  2d1e		       85 82		      STA	missile0x
   5043  2d20		       85 bf		      STA	missile0y
   5044  2d22				   .L0402		;  Bit1_missleOn{1} = 0
   5045  2d22
   5046  2d22		       a5 ea		      LDA	Bit1_missleOn
   5047  2d24		       29 fd		      AND	#253
   5048  2d26		       85 ea		      STA	Bit1_missleOn
   5049  2d28				   .L0403		;  for Timer  =  1 to 10
   5050  2d28
   5051  2d28		       a9 01		      LDA	#1
   5052  2d2a		       85 e4		      STA	Timer
   5053  2d2c				   .L0403forTimer
   5054  2d2c				   .L0404		;  next
   5055  2d2c
   5056  2d2c		       a5 e4		      LDA	Timer
   5057  2d2e		       c9 0a		      CMP	#10
   5058  2d30
   5059  2d30		       e6 e4		      INC	Timer
   5060  2d32					      if	((* - .L0403forTimer) < 127) && ((* - .L0403forTimer) > -128)
   5061  2d32		       90 f8		      bcc	.L0403forTimer
   5062  2d34				  -	      else
   5063  2d34				  -	      bcs	.6skipL0403forTimer
   5064  2d34				  -	      jmp	.L0403forTimer
   5065  2d34				  -.6skipL0403forTimer
   5066  2d34					      endif
   5067  2d34				   .L0405		;  Points = 0
   5068  2d34
   5069  2d34		       a9 00		      LDA	#0
   5070  2d36		       85 d4		      STA	Points
   5071  2d38				   .L0406		;  Ch1_Sound  =  0  :	AUDV1  =  0 :  AUDC1  =  0 :  AUDF1  =	0
   5072  2d38
   5073  2d38		       a9 00		      LDA	#0
   5074  2d3a		       85 da		      STA	Ch1_Sound
   5075  2d3c		       85 1a		      STA	AUDV1
   5076  2d3e		       85 16		      STA	AUDC1
   5077  2d40		       85 18		      STA	AUDF1
   5078  2d42				   .
   5079  2d42							; 
   5080  2d42
   5081  2d42				   .__EnemyFire
   5082  2d42							; __EnemyFire
   5083  2d42
   5084  2d42				   .L0407		;  if !Bit3_ShootorNot{3} then goto __EnemyShoot
   5085  2d42
   5086  2d42		       a5 ea		      LDA	Bit3_ShootorNot
   5087  2d44		       29 08		      AND	#8
   5088  2d46		       d0 03		      BNE	.skipL0407
   5089  2d48				   .condpart199
   5090  2d48		       4c a9 3d 	      jmp	.__EnemyShoot
   5091  2d4b
   5092  2d4b				   .skipL0407
   5093  2d4b				   .L0408		;  if missile1y  >  170 then missile1y = 200 : 
   5094  2d4b
   5095  2d4b		       a9 aa		      LDA	#170
   5096  2d4d		       c5 c0		      CMP	missile1y
   5097  2d4f		       b0 04		      BCS	.skipL0408
   5098  2d51				   .condpart200
   5099  2d51		       a9 c8		      LDA	#200
   5100  2d53		       85 c0		      STA	missile1y
   5101  2d55				   .skipL0408
   5102  2d55				   .L0409		;  if level  <= 5 then if !Bit4_gameover{4} then if Bit3_ShootorNot{3} then missile1y	=  missile1y  +  3
   5103  2d55
   5104  2d55		       a9 05		      LDA	#5
   5105  2d57		       c5 dc		      CMP	level
   5106  2d59		       90 13		      BCC	.skipL0409
   5107  2d5b				   .condpart201
   5108  2d5b		       a5 ea		      LDA	Bit4_gameover
   5109  2d5d		       29 10		      AND	#16
   5110  2d5f		       d0 0d		      BNE	.skip201then
   5111  2d61				   .condpart202
   5112  2d61		       a5 ea		      LDA	Bit3_ShootorNot
   5113  2d63		       29 08		      AND	#8
   5114  2d65		       f0 07		      BEQ	.skip202then
   5115  2d67				   .condpart203
   5116  2d67		       a5 c0		      LDA	missile1y
   5117  2d69		       18		      CLC
   5118  2d6a		       69 03		      ADC	#3
   5119  2d6c		       85 c0		      STA	missile1y
   5120  2d6e				   .skip202then
   5121  2d6e				   .skip201then
   5122  2d6e				   .skipL0409
   5123  2d6e				   .L0410		;  if level  > 5 then if !Bit4_gameover{4} then if Bit3_ShootorNot{3} then missile1y  =  missile1y  +	5
   5124  2d6e
   5125  2d6e		       a9 05		      LDA	#5
   5126  2d70		       c5 dc		      CMP	level
   5127  2d72		       b0 13		      BCS	.skipL0410
   5128  2d74				   .condpart204
   5129  2d74		       a5 ea		      LDA	Bit4_gameover
   5130  2d76		       29 10		      AND	#16
   5131  2d78		       d0 0d		      BNE	.skip204then
   5132  2d7a				   .condpart205
   5133  2d7a		       a5 ea		      LDA	Bit3_ShootorNot
   5134  2d7c		       29 08		      AND	#8
   5135  2d7e		       f0 07		      BEQ	.skip205then
   5136  2d80				   .condpart206
   5137  2d80		       a5 c0		      LDA	missile1y
   5138  2d82		       18		      CLC
   5139  2d83		       69 05		      ADC	#5
   5140  2d85		       85 c0		      STA	missile1y
   5141  2d87				   .skip205then
   5142  2d87				   .skip204then
   5143  2d87				   .skipL0410
   5144  2d87				   .L0411		;  if missile1y  >  170 then missile1y = 200 :  Bit3_ShootorNot{3} = 0
   5145  2d87
   5146  2d87		       a9 aa		      LDA	#170
   5147  2d89		       c5 c0		      CMP	missile1y
   5148  2d8b		       b0 0a		      BCS	.skipL0411
   5149  2d8d				   .condpart207
   5150  2d8d		       a9 c8		      LDA	#200
   5151  2d8f		       85 c0		      STA	missile1y
   5152  2d91		       a5 ea		      LDA	Bit3_ShootorNot
   5153  2d93		       29 f7		      AND	#247
   5154  2d95		       85 ea		      STA	Bit3_ShootorNot
   5155  2d97				   .skipL0411
   5156  2d97				   .L0412		;  if collision(missile1,player0) then Damage	= 5  :	PlayerDamage  = 0  :  goto __EnemyScore
   5157  2d97
   5158  2d97		       24 01		      bit	CXM1P
   5159  2d99		       10 0b		      BPL	.skipL0412
   5160  2d9b				   .condpart208
   5161  2d9b		       a9 05		      LDA	#5
   5162  2d9d		       85 ed		      STA	Damage
   5163  2d9f		       a9 00		      LDA	#0
   5164  2da1		       85 dd		      STA	PlayerDamage
   5165  2da3		       4c 0f 3e 	      jmp	.__EnemyScore
   5166  2da6
   5167  2da6				   .skipL0412
   5168  2da6				   .L0413		;  goto __Resume
   5169  2da6
   5170  2da6		       4c 42 3e 	      jmp	.__Resume
   5171  2da9
   5172  2da9				   .
   5173  2da9							; 
   5174  2da9
   5175  2da9				   .__EnemyShoot
   5176  2da9							; __EnemyShoot
   5177  2da9
   5178  2da9				   .L0414		;  if !Bit4_gameover{4} then if player3x - 15	<  player0x  &&  player3x + 15	>  player0x then missile1x  =  player3x  + 3  :  missile1y  =  player3y
   5179  2da9
   5180  2da9		       a5 ea		      LDA	Bit4_gameover
   5181  2dab		       29 10		      AND	#16
   5182  2dad		       d0 22		      BNE	.skipL0414
   5183  2daf				   .condpart209
   5184  2daf							; complex condition detected
   5185  2daf		       a5 92		      LDA	player3x
   5186  2db1		       38		      SEC
   5187  2db2		       e9 0f		      SBC	#15
   5188  2db4							; todo: this LDA is spurious and should be prevented ->	LDA  1,x
   5189  2db4		       c5 80		      CMP	player0x
   5190  2db6		       b0 19		      BCS	.skip209then
   5191  2db8				   .condpart210
   5192  2db8							; complex condition detected
   5193  2db8		       a5 92		      LDA	player3x
   5194  2dba		       18		      CLC
   5195  2dbb		       69 0f		      ADC	#15
   5196  2dbd		       48		      PHA
   5197  2dbe		       ba		      TSX
   5198  2dbf		       68		      PLA
   5199  2dc0		       a5 80		      LDA	player0x
   5200  2dc2		       d5 01		      CMP	1,x
   5201  2dc4		       b0 0b		      BCS	.skip210then
   5202  2dc6				   .condpart211
   5203  2dc6		       a5 92		      LDA	player3x
   5204  2dc8		       18		      CLC
   5205  2dc9		       69 03		      ADC	#3
   5206  2dcb		       85 83		      STA	missile1x
   5207  2dcd		       a5 9c		      LDA	player3y
   5208  2dcf		       85 c0		      STA	missile1y
   5209  2dd1				   .skip210then
   5210  2dd1				   .skip209then
   5211  2dd1				   .skipL0414
   5212  2dd1				   .L0415		;  Bit3_ShootorNot{3} = 1
   5213  2dd1
   5214  2dd1		       a5 ea		      LDA	Bit3_ShootorNot
   5215  2dd3		       09 08		      ORA	#8
   5216  2dd5		       85 ea		      STA	Bit3_ShootorNot
   5217  2dd7				   .L0416		;  goto __Resume
   5218  2dd7
   5219  2dd7		       4c 42 3e 	      jmp	.__Resume
   5220  2dda
   5221  2dda				   .
   5222  2dda							; 
   5223  2dda
   5224  2dda				   .__EnemyBlock
   5225  2dda							; __EnemyBlock
   5226  2dda
   5227  2dda				   .L0417		;  frame  =  0
   5228  2dda
   5229  2dda		       a9 00		      LDA	#0
   5230  2ddc		       85 d6		      STA	frame
   5231  2dde				   .L0418		;  if !joy0left  ||  !joy0right then Points  =  10
   5232  2dde
   5233  2dde		       2c 80 02 	      bit	SWCHA
   5234  2de1		       50 03		      BVC	.skipL0418
   5235  2de3				   .condpart212
   5236  2de3		       4c eb 3d 	      jmp	.condpart213
   5237  2de6				   .skipL0418
   5238  2de6		       2c 80 02 	      bit	SWCHA
   5239  2de9		       10 04		      BPL	.skip66OR
   5240  2deb				   .condpart213
   5241  2deb		       a9 0a		      LDA	#10
   5242  2ded		       85 d4		      STA	Points
   5243  2def				   .skip66OR
   5244  2def				   .L0419		;  if joy0left  ||  joy0right then if !joy0fire then Points  =  5 :  PlayerDamage  = 2  :  goto __Score
   5245  2def
   5246  2def		       2c 80 02 	      bit	SWCHA
   5247  2df2		       70 03		      BVS	.skipL0419
   5248  2df4				   .condpart214
   5249  2df4		       4c fc 3d 	      jmp	.condpart215
   5250  2df7				   .skipL0419
   5251  2df7		       2c 80 02 	      bit	SWCHA
   5252  2dfa		       30 0f		      BMI	.skip67OR
   5253  2dfc				   .condpart215
   5254  2dfc		       24 0c		      bit	INPT4
   5255  2dfe		       10 0b		      BPL	.skip215then
   5256  2e00				   .condpart216
   5257  2e00		       a9 05		      LDA	#5
   5258  2e02		       85 d4		      STA	Points
   5259  2e04		       a9 02		      LDA	#2
   5260  2e06		       85 dd		      STA	PlayerDamage
   5261  2e08		       4c f5 3c 	      jmp	.__Score
   5262  2e0b
   5263  2e0b				   .skip215then
   5264  2e0b				   .skip67OR
   5265  2e0b				   .L0420		;  PlayerDamage  = 1
   5266  2e0b
   5267  2e0b		       a9 01		      LDA	#1
   5268  2e0d		       85 dd		      STA	PlayerDamage
   5269  2e0f				   .
   5270  2e0f							; 
   5271  2e0f
   5272  2e0f				   .__EnemyScore
   5273  2e0f							; __EnemyScore
   5274  2e0f
   5275  2e0f				   .L0421		;  if PlayerDamage  <	1 then PlayerHealth  =	PlayerHealth  -  Damage
   5276  2e0f
   5277  2e0f		       a5 dd		      LDA	PlayerDamage
   5278  2e11		       c9 01		      CMP	#1
   5279  2e13		       b0 07		      BCS	.skipL0421
   5280  2e15				   .condpart217
   5281  2e15		       a5 d5		      LDA	PlayerHealth
   5282  2e17		       38		      SEC
   5283  2e18		       e5 ed		      SBC	Damage
   5284  2e1a		       85 d5		      STA	PlayerHealth
   5285  2e1c				   .skipL0421
   5286  2e1c				   .L0422		;  PlayerDamage  =  1
   5287  2e1c
   5288  2e1c		       a9 01		      LDA	#1
   5289  2e1e		       85 dd		      STA	PlayerDamage
   5290  2e20				   .L0423		;  Points = 0
   5291  2e20
   5292  2e20		       a9 00		      LDA	#0
   5293  2e22		       85 d4		      STA	Points
   5294  2e24				   .L0424		;  missile1y  = 200 :	missile1x =  200
   5295  2e24
   5296  2e24		       a9 c8		      LDA	#200
   5297  2e26		       85 c0		      STA	missile1y
   5298  2e28		       85 83		      STA	missile1x
   5299  2e2a				   .L0425		;  gosub __P0Explosion bank5
   5300  2e2a
   5301  2e2a		       85 81		      sta	temp7
   5302  2e2c		       a9 3e		      lda	#>(ret_point19-1)
   5303  2e2e		       48		      pha
   5304  2e2f		       a9 41		      lda	#<(ret_point19-1)
   5305  2e31		       48		      pha
   5306  2e32		       a9 90		      lda	#>(.__P0Explosion-1)
   5307  2e34		       48		      pha
   5308  2e35		       a9 84		      lda	#<(.__P0Explosion-1)
   5309  2e37		       48		      pha
   5310  2e38		       a5 81		      lda	temp7
   5311  2e3a		       48		      pha
   5312  2e3b		       8a		      txa
   5313  2e3c		       48		      pha
   5314  2e3d		       a2 05		      ldx	#5
   5315  2e3f		       4c ee df 	      jmp	BS_jsr
   5316  2e42				   ret_point19
   5317  2e42				   .
   5318  2e42							; 
   5319  2e42
   5320  2e42				   .__Resume
   5321  2e42							; __Resume
   5322  2e42
   5323  2e42				   .L0426		;  drawscreen
   5324  2e42
   5325  2e42		       85 81		      sta	temp7
   5326  2e44		       a9 3e		      lda	#>(ret_point20-1)
   5327  2e46		       48		      pha
   5328  2e47		       a9 59		      lda	#<(ret_point20-1)
   5329  2e49		       48		      pha
   5330  2e4a		       a9 19		      lda	#>(drawscreen-1)
   5331  2e4c		       48		      pha
   5332  2e4d		       a9 96		      lda	#<(drawscreen-1)
   5333  2e4f		       48		      pha
   5334  2e50		       a5 81		      lda	temp7
   5335  2e52		       48		      pha
   5336  2e53		       8a		      txa
   5337  2e54		       48		      pha
   5338  2e55		       a2 01		      ldx	#1
   5339  2e57		       4c ee df 	      jmp	BS_jsr
   5340  2e5a				   ret_point20
   5341  2e5a				   .L0427		;  PF0 = %00000000
   5342  2e5a
   5343  2e5a		       a9 00		      LDA	#%00000000
   5344  2e5c		       85 0d		      STA	PF0
   5345  2e5e				   .L0428		;  goto __Main_Loop
   5346  2e5e
   5347  2e5e		       4c a6 32 	      jmp	.__Main_Loop
   5348  2e61
   5349  2e61				   .
   5350  2e61							; 
   5351  2e61
   5352  2e61				   .L0429		;  bank 3
   5353  2e61
   5354  2e61					      if	ECHO2
      371 bytes of ROM space left in bank 2
   5355  2e61					      echo	"    ",[(start_bank2 - *)]d , "bytes of ROM space left in bank 2")
   5356  2e61					      endif
   5357  2e61		       00 01	   ECHO2      =	1
   5358  2fd4					      ORG	$2FF4-bscode_length
   5359  2fd4					      RORG	$3FF4-bscode_length
   5360  2fd4		       a2 ff	   start_bank2 ldx	#$ff
   5361  2fd6					      ifconst	FASTFETCH	; using DPC+
   5362  2fd6		       8e 58 10 	      stx	FASTFETCH
   5363  2fd9					      endif
   5364  2fd9		       9a		      txs
   5365  2fda				  -	      if	bankswitch == 64
   5366  2fda				  -	      lda	#(((>(start-1)) & $0F) | $F0)
   5367  2fda					      else
   5368  2fda		       a9 18		      lda	#>(start-1)
   5369  2fdc					      endif
   5370  2fdc		       48		      pha
   5371  2fdd		       a9 e3		      lda	#<(start-1)
   5372  2fdf		       48		      pha
   5373  2fe0		       48		      pha
   5374  2fe1		       8a		      txa
   5375  2fe2		       48		      pha
   5376  2fe3		       ba		      tsx
   5377  2fe4					      if	bankswitch != 64
   5378  2fe4		       b5 04		      lda	4,x	; get high byte of return address
   5379  2fe6		       2a		      rol
   5380  2fe7		       2a		      rol
   5381  2fe8		       2a		      rol
   5382  2fe9		       2a		      rol
   5383  2fea		       29 07		      and	#bs_mask	;1 3 or 7 for F8/F6/F4
   5384  2fec		       aa		      tax
   5385  2fed		       e8		      inx
   5386  2fee				  -	      else
   5387  2fee				  -	      lda	4,x	; get high byte of return address
   5388  2fee				  -	      tay
   5389  2fee				  -	      ora	#$10	; change our bank nibble into a valid rom mirror
   5390  2fee				  -	      sta	4,x
   5391  2fee				  -	      tya
   5392  2fee				  -	      lsr
   5393  2fee				  -	      lsr
   5394  2fee				  -	      lsr
   5395  2fee				  -	      lsr
   5396  2fee				  -	      tax
   5397  2fee				  -	      inx
   5398  2fee					      endif
   5399  2fee		       bd f5 1f 	      lda	bankswitch_hotspot-1,x
   5400  2ff1		       68		      pla
   5401  2ff2		       aa		      tax
   5402  2ff3		       68		      pla
   5403  2ff4		       60		      rts
   5404  2ff5				  -	      if	((* & $1FFF) > ((bankswitch_hotspot & $1FFF) - 1))
   5405  2ff5				  -	      echo	"WARNING: size parameter in banksw.asm too small - the program probably will not work."
   5406  2ff5				  -	      echo	"Change to",[(*-begin_bscode+1)&$FF]d,"and try again."
   5407  2ff5					      endif
   5408  2ffc					      ORG	$2FFC
   5409  2ffc					      RORG	$3FFC
   5410  2ffc		       d4 3f		      .word.w	(start_bank2 & $ffff)
   5411  2ffe		       d4 3f		      .word.w	(start_bank2 & $ffff)
   5412  3000					      ORG	$3000
   5413  3000					      RORG	$5000
   5414  3000					      repeat	129
   5415  3000		       00		      .byte.b	0
   5414  3000					      repend
   5415  3001		       00		      .byte.b	0
   5414  3001					      repend
   5415  3002		       00		      .byte.b	0
   5414  3002					      repend
   5415  3003		       00		      .byte.b	0
   5414  3003					      repend
   5415  3004		       00		      .byte.b	0
   5414  3004					      repend
   5415  3005		       00		      .byte.b	0
   5414  3005					      repend
   5415  3006		       00		      .byte.b	0
   5414  3006					      repend
   5415  3007		       00		      .byte.b	0
   5414  3007					      repend
   5415  3008		       00		      .byte.b	0
   5414  3008					      repend
   5415  3009		       00		      .byte.b	0
   5414  3009					      repend
   5415  300a		       00		      .byte.b	0
   5414  300a					      repend
   5415  300b		       00		      .byte.b	0
   5414  300b					      repend
   5415  300c		       00		      .byte.b	0
   5414  300c					      repend
   5415  300d		       00		      .byte.b	0
   5414  300d					      repend
   5415  300e		       00		      .byte.b	0
   5414  300e					      repend
   5415  300f		       00		      .byte.b	0
   5414  300f					      repend
   5415  3010		       00		      .byte.b	0
   5414  3010					      repend
   5415  3011		       00		      .byte.b	0
   5414  3011					      repend
   5415  3012		       00		      .byte.b	0
   5414  3012					      repend
   5415  3013		       00		      .byte.b	0
   5414  3013					      repend
   5415  3014		       00		      .byte.b	0
   5414  3014					      repend
   5415  3015		       00		      .byte.b	0
   5414  3015					      repend
   5415  3016		       00		      .byte.b	0
   5414  3016					      repend
   5415  3017		       00		      .byte.b	0
   5414  3017					      repend
   5415  3018		       00		      .byte.b	0
   5414  3018					      repend
   5415  3019		       00		      .byte.b	0
   5414  3019					      repend
   5415  301a		       00		      .byte.b	0
   5414  301a					      repend
   5415  301b		       00		      .byte.b	0
   5414  301b					      repend
   5415  301c		       00		      .byte.b	0
   5414  301c					      repend
   5415  301d		       00		      .byte.b	0
   5414  301d					      repend
   5415  301e		       00		      .byte.b	0
   5414  301e					      repend
   5415  301f		       00		      .byte.b	0
   5414  301f					      repend
   5415  3020		       00		      .byte.b	0
   5414  3020					      repend
   5415  3021		       00		      .byte.b	0
   5414  3021					      repend
   5415  3022		       00		      .byte.b	0
   5414  3022					      repend
   5415  3023		       00		      .byte.b	0
   5414  3023					      repend
   5415  3024		       00		      .byte.b	0
   5414  3024					      repend
   5415  3025		       00		      .byte.b	0
   5414  3025					      repend
   5415  3026		       00		      .byte.b	0
   5414  3026					      repend
   5415  3027		       00		      .byte.b	0
   5414  3027					      repend
   5415  3028		       00		      .byte.b	0
   5414  3028					      repend
   5415  3029		       00		      .byte.b	0
   5414  3029					      repend
   5415  302a		       00		      .byte.b	0
   5414  302a					      repend
   5415  302b		       00		      .byte.b	0
   5414  302b					      repend
   5415  302c		       00		      .byte.b	0
   5414  302c					      repend
   5415  302d		       00		      .byte.b	0
   5414  302d					      repend
   5415  302e		       00		      .byte.b	0
   5414  302e					      repend
   5415  302f		       00		      .byte.b	0
   5414  302f					      repend
   5415  3030		       00		      .byte.b	0
   5414  3030					      repend
   5415  3031		       00		      .byte.b	0
   5414  3031					      repend
   5415  3032		       00		      .byte.b	0
   5414  3032					      repend
   5415  3033		       00		      .byte.b	0
   5414  3033					      repend
   5415  3034		       00		      .byte.b	0
   5414  3034					      repend
   5415  3035		       00		      .byte.b	0
   5414  3035					      repend
   5415  3036		       00		      .byte.b	0
   5414  3036					      repend
   5415  3037		       00		      .byte.b	0
   5414  3037					      repend
   5415  3038		       00		      .byte.b	0
   5414  3038					      repend
   5415  3039		       00		      .byte.b	0
   5414  3039					      repend
   5415  303a		       00		      .byte.b	0
   5414  303a					      repend
   5415  303b		       00		      .byte.b	0
   5414  303b					      repend
   5415  303c		       00		      .byte.b	0
   5414  303c					      repend
   5415  303d		       00		      .byte.b	0
   5414  303d					      repend
   5415  303e		       00		      .byte.b	0
   5414  303e					      repend
   5415  303f		       00		      .byte.b	0
   5414  303f					      repend
   5415  3040		       00		      .byte.b	0
   5414  3040					      repend
   5415  3041		       00		      .byte.b	0
   5414  3041					      repend
   5415  3042		       00		      .byte.b	0
   5414  3042					      repend
   5415  3043		       00		      .byte.b	0
   5414  3043					      repend
   5415  3044		       00		      .byte.b	0
   5414  3044					      repend
   5415  3045		       00		      .byte.b	0
   5414  3045					      repend
   5415  3046		       00		      .byte.b	0
   5414  3046					      repend
   5415  3047		       00		      .byte.b	0
   5414  3047					      repend
   5415  3048		       00		      .byte.b	0
   5414  3048					      repend
   5415  3049		       00		      .byte.b	0
   5414  3049					      repend
   5415  304a		       00		      .byte.b	0
   5414  304a					      repend
   5415  304b		       00		      .byte.b	0
   5414  304b					      repend
   5415  304c		       00		      .byte.b	0
   5414  304c					      repend
   5415  304d		       00		      .byte.b	0
   5414  304d					      repend
   5415  304e		       00		      .byte.b	0
   5414  304e					      repend
   5415  304f		       00		      .byte.b	0
   5414  304f					      repend
   5415  3050		       00		      .byte.b	0
   5414  3050					      repend
   5415  3051		       00		      .byte.b	0
   5414  3051					      repend
   5415  3052		       00		      .byte.b	0
   5414  3052					      repend
   5415  3053		       00		      .byte.b	0
   5414  3053					      repend
   5415  3054		       00		      .byte.b	0
   5414  3054					      repend
   5415  3055		       00		      .byte.b	0
   5414  3055					      repend
   5415  3056		       00		      .byte.b	0
   5414  3056					      repend
   5415  3057		       00		      .byte.b	0
   5414  3057					      repend
   5415  3058		       00		      .byte.b	0
   5414  3058					      repend
   5415  3059		       00		      .byte.b	0
   5414  3059					      repend
   5415  305a		       00		      .byte.b	0
   5414  305a					      repend
   5415  305b		       00		      .byte.b	0
   5414  305b					      repend
   5415  305c		       00		      .byte.b	0
   5414  305c					      repend
   5415  305d		       00		      .byte.b	0
   5414  305d					      repend
   5415  305e		       00		      .byte.b	0
   5414  305e					      repend
   5415  305f		       00		      .byte.b	0
   5414  305f					      repend
   5415  3060		       00		      .byte.b	0
   5414  3060					      repend
   5415  3061		       00		      .byte.b	0
   5414  3061					      repend
   5415  3062		       00		      .byte.b	0
   5414  3062					      repend
   5415  3063		       00		      .byte.b	0
   5414  3063					      repend
   5415  3064		       00		      .byte.b	0
   5414  3064					      repend
   5415  3065		       00		      .byte.b	0
   5414  3065					      repend
   5415  3066		       00		      .byte.b	0
   5414  3066					      repend
   5415  3067		       00		      .byte.b	0
   5414  3067					      repend
   5415  3068		       00		      .byte.b	0
   5414  3068					      repend
   5415  3069		       00		      .byte.b	0
   5414  3069					      repend
   5415  306a		       00		      .byte.b	0
   5414  306a					      repend
   5415  306b		       00		      .byte.b	0
   5414  306b					      repend
   5415  306c		       00		      .byte.b	0
   5414  306c					      repend
   5415  306d		       00		      .byte.b	0
   5414  306d					      repend
   5415  306e		       00		      .byte.b	0
   5414  306e					      repend
   5415  306f		       00		      .byte.b	0
   5414  306f					      repend
   5415  3070		       00		      .byte.b	0
   5414  3070					      repend
   5415  3071		       00		      .byte.b	0
   5414  3071					      repend
   5415  3072		       00		      .byte.b	0
   5414  3072					      repend
   5415  3073		       00		      .byte.b	0
   5414  3073					      repend
   5415  3074		       00		      .byte.b	0
   5414  3074					      repend
   5415  3075		       00		      .byte.b	0
   5414  3075					      repend
   5415  3076		       00		      .byte.b	0
   5414  3076					      repend
   5415  3077		       00		      .byte.b	0
   5414  3077					      repend
   5415  3078		       00		      .byte.b	0
   5414  3078					      repend
   5415  3079		       00		      .byte.b	0
   5414  3079					      repend
   5415  307a		       00		      .byte.b	0
   5414  307a					      repend
   5415  307b		       00		      .byte.b	0
   5414  307b					      repend
   5415  307c		       00		      .byte.b	0
   5414  307c					      repend
   5415  307d		       00		      .byte.b	0
   5414  307d					      repend
   5415  307e		       00		      .byte.b	0
   5414  307e					      repend
   5415  307f		       00		      .byte.b	0
   5414  307f					      repend
   5415  3080		       00		      .byte.b	0
   5416  3081					      repend
   5417  3081				   .L0430		;  temp1 = temp1
   5418  3081
   5419  3081		       a5 cb		      LDA	temp1
   5420  3083		       85 cb		      STA	temp1
   5421  3085				   .
   5422  3085							; 
   5423  3085
   5424  3085				   .__Playfield1
   5425  3085							; __Playfield1
   5426  3085
   5427  3085				   .L0431		;  bkcolors:
   5428  3085
   5429  3085		       a9 a5		      LDA	#<BKCOLS
   5430  3087		       8d 50 10 	      STA	DF0LOW
   5431  308a		       a9 0b		      LDA	#(>BKCOLS) & $0F
   5432  308c		       8d 68 10 	      STA	DF0HI
   5433  308f		       a9 a8		      LDA	#<backgroundcolorL0431
   5434  3091		       8d 59 10 	      STA	PARAMETER
   5435  3094		       a9 61		      LDA	#((>backgroundcolorL0431) & $0f) | (((>backgroundcolorL0431) / 2) & $70)
   5436  3096		       8d 59 10 	      STA	PARAMETER
   5437  3099		       a9 00		      LDA	#0
   5438  309b		       8d 59 10 	      STA	PARAMETER
   5439  309e		       a9 58		      LDA	#88
   5440  30a0		       8d 59 10 	      STA	PARAMETER
   5441  30a3		       a9 01		      LDA	#1
   5442  30a5		       8d 5a 10 	      STA	CALLFUNCTION
   5443  30a8				   .L0432		;  if Bit4_gameover{4} then goto __GameOver
   5444  30a8
   5445  30a8		       a5 ea		      LDA	Bit4_gameover
   5446  30aa		       29 10		      AND	#16
   5447  30ac		       f0 03		      BEQ	.skipL0432
   5448  30ae				   .condpart218
   5449  30ae		       4c a6 75 	      jmp	.__GameOver
   5450  30b1
   5451  30b1				   .skipL0432
   5452  30b1				   .
   5453  30b1							; 
   5454  30b1
   5455  30b1				   .
   5456  30b1							; 
   5457  30b1
   5458  30b1				   .
   5459  30b1							; 
   5460  30b1
   5461  30b1				   ._PlayfieldLevel1
   5462  30b1							; _PlayfieldLevel1
   5463  30b1
   5464  30b1				   .L0433		;  playfield:
   5465  30b1
   5466  30b1		       a0 58		      ldy	#88
   5467  30b3		       a9 00		      LDA	#<PF_data1
   5468  30b5		       a2 62		      LDX	#((>PF_data1) & $0f) | (((>PF_data1) / 2) & $70)
   5469  30b7		       85 81		      sta	temp7
   5470  30b9		       a9 50		      lda	#>(ret_point21-1)
   5471  30bb		       48		      pha
   5472  30bc		       a9 ce		      lda	#<(ret_point21-1)
   5473  30be		       48		      pha
   5474  30bf		       a9 1d		      lda	#>(pfsetup-1)
   5475  30c1		       48		      pha
   5476  30c2		       a9 96		      lda	#<(pfsetup-1)
   5477  30c4		       48		      pha
   5478  30c5		       a5 81		      lda	temp7
   5479  30c7		       48		      pha
   5480  30c8		       8a		      txa
   5481  30c9		       48		      pha
   5482  30ca		       a2 01		      ldx	#1
   5483  30cc		       4c ee df 	      jmp	BS_jsr
   5484  30cf				   ret_point21
   5485  30cf				   .
   5486  30cf							; 
   5487  30cf
   5488  30cf				   .L0434		;  goto __Colors
   5489  30cf
   5490  30cf		       4c d2 50 	      jmp	.__Colors
   5491  30d2
   5492  30d2				   .
   5493  30d2							; 
   5494  30d2
   5495  30d2				   .__Colors
   5496  30d2							; __Colors
   5497  30d2
   5498  30d2				   .L0435		;  pfcolors:
   5499  30d2
   5500  30d2		       a9 08		      LDA	#<PFCOLS
   5501  30d4		       8d 50 10 	      STA	DF0LOW
   5502  30d7		       a9 0a		      LDA	#(>PFCOLS) & $0F
   5503  30d9		       8d 68 10 	      STA	DF0HI
   5504  30dc		       a9 60		      LDA	#<playfieldcolorL0435
   5505  30de		       8d 59 10 	      STA	PARAMETER
   5506  30e1		       a9 63		      LDA	#((>playfieldcolorL0435) & $0f) | (((>playfieldcolorL0435) / 2) & $70)
   5507  30e3		       8d 59 10 	      STA	PARAMETER
   5508  30e6		       a9 00		      LDA	#0
   5509  30e8		       8d 59 10 	      STA	PARAMETER
   5510  30eb		       a9 58		      LDA	#88
   5511  30ed		       8d 59 10 	      STA	PARAMETER
   5512  30f0		       a9 01		      LDA	#1
   5513  30f2		       8d 5a 10 	      STA	CALLFUNCTION
   5514  30f5				   .L0436		;  return
   5515  30f5
   5516  30f5		       ba		      tsx
   5517  30f6		       b5 02		      lda	2,x	; check return address
   5518  30f8		       49 50		      eor	#(>*)	; vs. current PCH
   5519  30fa		       29 e0		      and	#$E0	;  mask off all but top 3 bits
   5520  30fc		       f0 03		      beq	*+5	; if equal, do normal return
   5521  30fe		       4c e0 df 	      JMP	BS_return
   5522  3101		       60		      RTS
   5523  3102				   .
   5524  3102							; 
   5525  3102
   5526  3102				   .__PFColors
   5527  3102							; __PFColors
   5528  3102
   5529  3102				   .
   5530  3102							; 
   5531  3102
   5532  3102				   .L0437		;  player5x  = LEdge + 5  :  player5y	= 114
   5533  3102
   5534  3102		       a9 3c		      LDA	#LEdge
   5535  3104		       18		      CLC
   5536  3105		       69 05		      ADC	#5
   5537  3107		       85 94		      STA	player5x
   5538  3109		       a9 72		      LDA	#114
   5539  310b		       85 9e		      STA	player5y
   5540  310d				   .
   5541  310d							; 
   5542  310d
   5543  310d				   .L0438		;  pfcolors:
   5544  310d
   5545  310d		       a9 08		      LDA	#<PFCOLS
   5546  310f		       8d 50 10 	      STA	DF0LOW
   5547  3112		       a9 0a		      LDA	#(>PFCOLS) & $0F
   5548  3114		       8d 68 10 	      STA	DF0HI
   5549  3117		       a9 b8		      LDA	#<playfieldcolorL0438
   5550  3119		       8d 59 10 	      STA	PARAMETER
   5551  311c		       a9 63		      LDA	#((>playfieldcolorL0438) & $0f) | (((>playfieldcolorL0438) / 2) & $70)
   5552  311e		       8d 59 10 	      STA	PARAMETER
   5553  3121		       a9 00		      LDA	#0
   5554  3123		       8d 59 10 	      STA	PARAMETER
   5555  3126		       a9 58		      LDA	#88
   5556  3128		       8d 59 10 	      STA	PARAMETER
   5557  312b		       a9 01		      LDA	#1
   5558  312d		       8d 5a 10 	      STA	CALLFUNCTION
   5559  3130				   .L0439		;  return
   5560  3130
   5561  3130		       ba		      tsx
   5562  3131		       b5 02		      lda	2,x	; check return address
   5563  3133		       49 51		      eor	#(>*)	; vs. current PCH
   5564  3135		       29 e0		      and	#$E0	;  mask off all but top 3 bits
   5565  3137		       f0 03		      beq	*+5	; if equal, do normal return
   5566  3139		       4c e0 df 	      JMP	BS_return
   5567  313c		       60		      RTS
   5568  313d				   .__PFColors1
   5569  313d							; __PFColors1
   5570  313d
   5571  313d				   .L0440		;  player5x  = LEdge + 7 :  player5y  = 114
   5572  313d
   5573  313d		       a9 3c		      LDA	#LEdge
   5574  313f		       18		      CLC
   5575  3140		       69 07		      ADC	#7
   5576  3142		       85 94		      STA	player5x
   5577  3144		       a9 72		      LDA	#114
   5578  3146		       85 9e		      STA	player5y
   5579  3148				   .
   5580  3148							; 
   5581  3148
   5582  3148				   .L0441		;  pfcolors:
   5583  3148
   5584  3148		       a9 08		      LDA	#<PFCOLS
   5585  314a		       8d 50 10 	      STA	DF0LOW
   5586  314d		       a9 0a		      LDA	#(>PFCOLS) & $0F
   5587  314f		       8d 68 10 	      STA	DF0HI
   5588  3152		       a9 10		      LDA	#<playfieldcolorL0441
   5589  3154		       8d 59 10 	      STA	PARAMETER
   5590  3157		       a9 64		      LDA	#((>playfieldcolorL0441) & $0f) | (((>playfieldcolorL0441) / 2) & $70)
   5591  3159		       8d 59 10 	      STA	PARAMETER
   5592  315c		       a9 00		      LDA	#0
   5593  315e		       8d 59 10 	      STA	PARAMETER
   5594  3161		       a9 58		      LDA	#88
   5595  3163		       8d 59 10 	      STA	PARAMETER
   5596  3166		       a9 01		      LDA	#1
   5597  3168		       8d 5a 10 	      STA	CALLFUNCTION
   5598  316b				   .L0442		;  return
   5599  316b
   5600  316b		       ba		      tsx
   5601  316c		       b5 02		      lda	2,x	; check return address
   5602  316e		       49 51		      eor	#(>*)	; vs. current PCH
   5603  3170		       29 e0		      and	#$E0	;  mask off all but top 3 bits
   5604  3172		       f0 03		      beq	*+5	; if equal, do normal return
   5605  3174		       4c e0 df 	      JMP	BS_return
   5606  3177		       60		      RTS
   5607  3178				   .__PFColors2
   5608  3178							; __PFColors2
   5609  3178
   5610  3178				   .L0443		;  player5x  = LEdge +  5 :  player5y	= 114
   5611  3178
   5612  3178		       a9 3c		      LDA	#LEdge
   5613  317a		       18		      CLC
   5614  317b		       69 05		      ADC	#5
   5615  317d		       85 94		      STA	player5x
   5616  317f		       a9 72		      LDA	#114
   5617  3181		       85 9e		      STA	player5y
   5618  3183				   .
   5619  3183							; 
   5620  3183
   5621  3183				   .L0444		;  pfcolors:
   5622  3183
   5623  3183		       a9 08		      LDA	#<PFCOLS
   5624  3185		       8d 50 10 	      STA	DF0LOW
   5625  3188		       a9 0a		      LDA	#(>PFCOLS) & $0F
   5626  318a		       8d 68 10 	      STA	DF0HI
   5627  318d		       a9 68		      LDA	#<playfieldcolorL0444
   5628  318f		       8d 59 10 	      STA	PARAMETER
   5629  3192		       a9 64		      LDA	#((>playfieldcolorL0444) & $0f) | (((>playfieldcolorL0444) / 2) & $70)
   5630  3194		       8d 59 10 	      STA	PARAMETER
   5631  3197		       a9 00		      LDA	#0
   5632  3199		       8d 59 10 	      STA	PARAMETER
   5633  319c		       a9 58		      LDA	#88
   5634  319e		       8d 59 10 	      STA	PARAMETER
   5635  31a1		       a9 01		      LDA	#1
   5636  31a3		       8d 5a 10 	      STA	CALLFUNCTION
   5637  31a6				   .L0445		;  return
   5638  31a6
   5639  31a6		       ba		      tsx
   5640  31a7		       b5 02		      lda	2,x	; check return address
   5641  31a9		       49 51		      eor	#(>*)	; vs. current PCH
   5642  31ab		       29 e0		      and	#$E0	;  mask off all but top 3 bits
   5643  31ad		       f0 03		      beq	*+5	; if equal, do normal return
   5644  31af		       4c e0 df 	      JMP	BS_return
   5645  31b2		       60		      RTS
   5646  31b3				   .
   5647  31b3							; 
   5648  31b3
   5649  31b3				   .__PFColors3
   5650  31b3							; __PFColors3
   5651  31b3
   5652  31b3				   .L0446		;  NUSIZ5  =  $5
   5653  31b3
   5654  31b3		       a9 05		      LDA	#$5
   5655  31b5		       85 b3		      STA	NUSIZ5
   5656  31b7				   .L0447		;  player5x  = LEdge +  5 :  player5y	= 114
   5657  31b7
   5658  31b7		       a9 3c		      LDA	#LEdge
   5659  31b9		       18		      CLC
   5660  31ba		       69 05		      ADC	#5
   5661  31bc		       85 94		      STA	player5x
   5662  31be		       a9 72		      LDA	#114
   5663  31c0		       85 9e		      STA	player5y
   5664  31c2				   .
   5665  31c2							; 
   5666  31c2
   5667  31c2				   .L0448		;  pfcolors:
   5668  31c2
   5669  31c2		       a9 08		      LDA	#<PFCOLS
   5670  31c4		       8d 50 10 	      STA	DF0LOW
   5671  31c7		       a9 0a		      LDA	#(>PFCOLS) & $0F
   5672  31c9		       8d 68 10 	      STA	DF0HI
   5673  31cc		       a9 c0		      LDA	#<playfieldcolorL0448
   5674  31ce		       8d 59 10 	      STA	PARAMETER
   5675  31d1		       a9 64		      LDA	#((>playfieldcolorL0448) & $0f) | (((>playfieldcolorL0448) / 2) & $70)
   5676  31d3		       8d 59 10 	      STA	PARAMETER
   5677  31d6		       a9 00		      LDA	#0
   5678  31d8		       8d 59 10 	      STA	PARAMETER
   5679  31db		       a9 58		      LDA	#88
   5680  31dd		       8d 59 10 	      STA	PARAMETER
   5681  31e0		       a9 01		      LDA	#1
   5682  31e2		       8d 5a 10 	      STA	CALLFUNCTION
   5683  31e5				   .L0449		;  return
   5684  31e5
   5685  31e5		       ba		      tsx
   5686  31e6		       b5 02		      lda	2,x	; check return address
   5687  31e8		       49 51		      eor	#(>*)	; vs. current PCH
   5688  31ea		       29 e0		      and	#$E0	;  mask off all but top 3 bits
   5689  31ec		       f0 03		      beq	*+5	; if equal, do normal return
   5690  31ee		       4c e0 df 	      JMP	BS_return
   5691  31f1		       60		      RTS
   5692  31f2				   .
   5693  31f2							; 
   5694  31f2
   5695  31f2				   .__PFColors4
   5696  31f2							; __PFColors4
   5697  31f2
   5698  31f2				   .L0450		;  player5x  = LEdge +  15 :  player5y  = 114
   5699  31f2
   5700  31f2		       a9 3c		      LDA	#LEdge
   5701  31f4		       18		      CLC
   5702  31f5		       69 0f		      ADC	#15
   5703  31f7		       85 94		      STA	player5x
   5704  31f9		       a9 72		      LDA	#114
   5705  31fb		       85 9e		      STA	player5y
   5706  31fd				   .
   5707  31fd							; 
   5708  31fd
   5709  31fd				   .L0451		;  pfcolors:
   5710  31fd
   5711  31fd		       a9 08		      LDA	#<PFCOLS
   5712  31ff		       8d 50 10 	      STA	DF0LOW
   5713  3202		       a9 0a		      LDA	#(>PFCOLS) & $0F
   5714  3204		       8d 68 10 	      STA	DF0HI
   5715  3207		       a9 18		      LDA	#<playfieldcolorL0451
   5716  3209		       8d 59 10 	      STA	PARAMETER
   5717  320c		       a9 65		      LDA	#((>playfieldcolorL0451) & $0f) | (((>playfieldcolorL0451) / 2) & $70)
   5718  320e		       8d 59 10 	      STA	PARAMETER
   5719  3211		       a9 00		      LDA	#0
   5720  3213		       8d 59 10 	      STA	PARAMETER
   5721  3216		       a9 58		      LDA	#88
   5722  3218		       8d 59 10 	      STA	PARAMETER
   5723  321b		       a9 01		      LDA	#1
   5724  321d		       8d 5a 10 	      STA	CALLFUNCTION
   5725  3220				   .L0452		;  return
   5726  3220
   5727  3220		       ba		      tsx
   5728  3221		       b5 02		      lda	2,x	; check return address
   5729  3223		       49 52		      eor	#(>*)	; vs. current PCH
   5730  3225		       29 e0		      and	#$E0	;  mask off all but top 3 bits
   5731  3227		       f0 03		      beq	*+5	; if equal, do normal return
   5732  3229		       4c e0 df 	      JMP	BS_return
   5733  322c		       60		      RTS
   5734  322d				   .
   5735  322d							; 
   5736  322d
   5737  322d				   .__PFColors5
   5738  322d							; __PFColors5
   5739  322d
   5740  322d				   .L0453		;  pfcolors:
   5741  322d
   5742  322d		       a9 08		      LDA	#<PFCOLS
   5743  322f		       8d 50 10 	      STA	DF0LOW
   5744  3232		       a9 0a		      LDA	#(>PFCOLS) & $0F
   5745  3234		       8d 68 10 	      STA	DF0HI
   5746  3237		       a9 70		      LDA	#<playfieldcolorL0453
   5747  3239		       8d 59 10 	      STA	PARAMETER
   5748  323c		       a9 65		      LDA	#((>playfieldcolorL0453) & $0f) | (((>playfieldcolorL0453) / 2) & $70)
   5749  323e		       8d 59 10 	      STA	PARAMETER
   5750  3241		       a9 00		      LDA	#0
   5751  3243		       8d 59 10 	      STA	PARAMETER
   5752  3246		       a9 58		      LDA	#88
   5753  3248		       8d 59 10 	      STA	PARAMETER
   5754  324b		       a9 01		      LDA	#1
   5755  324d		       8d 5a 10 	      STA	CALLFUNCTION
   5756  3250				   .L0454		;  return
   5757  3250
   5758  3250		       ba		      tsx
   5759  3251		       b5 02		      lda	2,x	; check return address
   5760  3253		       49 52		      eor	#(>*)	; vs. current PCH
   5761  3255		       29 e0		      and	#$E0	;  mask off all but top 3 bits
   5762  3257		       f0 03		      beq	*+5	; if equal, do normal return
   5763  3259		       4c e0 df 	      JMP	BS_return
   5764  325c		       60		      RTS
   5765  325d				   .
   5766  325d							; 
   5767  325d
   5768  325d				   .__PFColors6
   5769  325d							; __PFColors6
   5770  325d
   5771  325d				   .L0455		;  NUSIZ5 = $7
   5772  325d
   5773  325d		       a9 07		      LDA	#$7
   5774  325f		       85 b3		      STA	NUSIZ5
   5775  3261				   .L0456		;  player5x  = LEdge + 7 :  player5y  = 114
   5776  3261
   5777  3261		       a9 3c		      LDA	#LEdge
   5778  3263		       18		      CLC
   5779  3264		       69 07		      ADC	#7
   5780  3266		       85 94		      STA	player5x
   5781  3268		       a9 72		      LDA	#114
   5782  326a		       85 9e		      STA	player5y
   5783  326c				   .L0457		;  pfcolors:
   5784  326c
   5785  326c		       a9 08		      LDA	#<PFCOLS
   5786  326e		       8d 50 10 	      STA	DF0LOW
   5787  3271		       a9 0a		      LDA	#(>PFCOLS) & $0F
   5788  3273		       8d 68 10 	      STA	DF0HI
   5789  3276		       a9 c8		      LDA	#<playfieldcolorL0457
   5790  3278		       8d 59 10 	      STA	PARAMETER
   5791  327b		       a9 65		      LDA	#((>playfieldcolorL0457) & $0f) | (((>playfieldcolorL0457) / 2) & $70)
   5792  327d		       8d 59 10 	      STA	PARAMETER
   5793  3280		       a9 00		      LDA	#0
   5794  3282		       8d 59 10 	      STA	PARAMETER
   5795  3285		       a9 58		      LDA	#88
   5796  3287		       8d 59 10 	      STA	PARAMETER
   5797  328a		       a9 01		      LDA	#1
   5798  328c		       8d 5a 10 	      STA	CALLFUNCTION
   5799  328f				   .L0458		;  return
   5800  328f
   5801  328f		       ba		      tsx
   5802  3290		       b5 02		      lda	2,x	; check return address
   5803  3292		       49 52		      eor	#(>*)	; vs. current PCH
   5804  3294		       29 e0		      and	#$E0	;  mask off all but top 3 bits
   5805  3296		       f0 03		      beq	*+5	; if equal, do normal return
   5806  3298		       4c e0 df 	      JMP	BS_return
   5807  329b		       60		      RTS
   5808  329c				   .
   5809  329c							; 
   5810  329c
   5811  329c				   .__PFColors7
   5812  329c							; __PFColors7
   5813  329c
   5814  329c				   .L0459		;  pfcolors:
   5815  329c
   5816  329c		       a9 08		      LDA	#<PFCOLS
   5817  329e		       8d 50 10 	      STA	DF0LOW
   5818  32a1		       a9 0a		      LDA	#(>PFCOLS) & $0F
   5819  32a3		       8d 68 10 	      STA	DF0HI
   5820  32a6		       a9 20		      LDA	#<playfieldcolorL0459
   5821  32a8		       8d 59 10 	      STA	PARAMETER
   5822  32ab		       a9 66		      LDA	#((>playfieldcolorL0459) & $0f) | (((>playfieldcolorL0459) / 2) & $70)
   5823  32ad		       8d 59 10 	      STA	PARAMETER
   5824  32b0		       a9 00		      LDA	#0
   5825  32b2		       8d 59 10 	      STA	PARAMETER
   5826  32b5		       a9 58		      LDA	#88
   5827  32b7		       8d 59 10 	      STA	PARAMETER
   5828  32ba		       a9 01		      LDA	#1
   5829  32bc		       8d 5a 10 	      STA	CALLFUNCTION
   5830  32bf				   .L0460		;  return
   5831  32bf
   5832  32bf		       ba		      tsx
   5833  32c0		       b5 02		      lda	2,x	; check return address
   5834  32c2		       49 52		      eor	#(>*)	; vs. current PCH
   5835  32c4		       29 e0		      and	#$E0	;  mask off all but top 3 bits
   5836  32c6		       f0 03		      beq	*+5	; if equal, do normal return
   5837  32c8		       4c e0 df 	      JMP	BS_return
   5838  32cb		       60		      RTS
   5839  32cc				   .
   5840  32cc							; 
   5841  32cc
   5842  32cc				   .__PFColors8
   5843  32cc							; __PFColors8
   5844  32cc
   5845  32cc				   .L0461		;  pfcolors:
   5846  32cc
   5847  32cc		       a9 08		      LDA	#<PFCOLS
   5848  32ce		       8d 50 10 	      STA	DF0LOW
   5849  32d1		       a9 0a		      LDA	#(>PFCOLS) & $0F
   5850  32d3		       8d 68 10 	      STA	DF0HI
   5851  32d6		       a9 78		      LDA	#<playfieldcolorL0461
   5852  32d8		       8d 59 10 	      STA	PARAMETER
   5853  32db		       a9 66		      LDA	#((>playfieldcolorL0461) & $0f) | (((>playfieldcolorL0461) / 2) & $70)
   5854  32dd		       8d 59 10 	      STA	PARAMETER
   5855  32e0		       a9 00		      LDA	#0
   5856  32e2		       8d 59 10 	      STA	PARAMETER
   5857  32e5		       a9 58		      LDA	#88
   5858  32e7		       8d 59 10 	      STA	PARAMETER
   5859  32ea		       a9 01		      LDA	#1
   5860  32ec		       8d 5a 10 	      STA	CALLFUNCTION
   5861  32ef				   .L0462		;  return
   5862  32ef
   5863  32ef		       ba		      tsx
   5864  32f0		       b5 02		      lda	2,x	; check return address
   5865  32f2		       49 52		      eor	#(>*)	; vs. current PCH
   5866  32f4		       29 e0		      and	#$E0	;  mask off all but top 3 bits
   5867  32f6		       f0 03		      beq	*+5	; if equal, do normal return
   5868  32f8		       4c e0 df 	      JMP	BS_return
   5869  32fb		       60		      RTS
   5870  32fc				   .__PFColors9
   5871  32fc							; __PFColors9
   5872  32fc
   5873  32fc				   .L0463		;  pfcolors:
   5874  32fc
   5875  32fc		       a9 08		      LDA	#<PFCOLS
   5876  32fe		       8d 50 10 	      STA	DF0LOW
   5877  3301		       a9 0a		      LDA	#(>PFCOLS) & $0F
   5878  3303		       8d 68 10 	      STA	DF0HI
   5879  3306		       a9 d0		      LDA	#<playfieldcolorL0463
   5880  3308		       8d 59 10 	      STA	PARAMETER
   5881  330b		       a9 66		      LDA	#((>playfieldcolorL0463) & $0f) | (((>playfieldcolorL0463) / 2) & $70)
   5882  330d		       8d 59 10 	      STA	PARAMETER
   5883  3310		       a9 00		      LDA	#0
   5884  3312		       8d 59 10 	      STA	PARAMETER
   5885  3315		       a9 58		      LDA	#88
   5886  3317		       8d 59 10 	      STA	PARAMETER
   5887  331a		       a9 01		      LDA	#1
   5888  331c		       8d 5a 10 	      STA	CALLFUNCTION
   5889  331f				   .L0464		;  return
   5890  331f
   5891  331f		       ba		      tsx
   5892  3320		       b5 02		      lda	2,x	; check return address
   5893  3322		       49 53		      eor	#(>*)	; vs. current PCH
   5894  3324		       29 e0		      and	#$E0	;  mask off all but top 3 bits
   5895  3326		       f0 03		      beq	*+5	; if equal, do normal return
   5896  3328		       4c e0 df 	      JMP	BS_return
   5897  332b		       60		      RTS
   5898  332c				   .
   5899  332c							; 
   5900  332c
   5901  332c				   .__PFColors10
   5902  332c							; __PFColors10
   5903  332c
   5904  332c				   .L0465		;  pfcolors:
   5905  332c
   5906  332c		       a9 08		      LDA	#<PFCOLS
   5907  332e		       8d 50 10 	      STA	DF0LOW
   5908  3331		       a9 0a		      LDA	#(>PFCOLS) & $0F
   5909  3333		       8d 68 10 	      STA	DF0HI
   5910  3336		       a9 28		      LDA	#<playfieldcolorL0465
   5911  3338		       8d 59 10 	      STA	PARAMETER
   5912  333b		       a9 67		      LDA	#((>playfieldcolorL0465) & $0f) | (((>playfieldcolorL0465) / 2) & $70)
   5913  333d		       8d 59 10 	      STA	PARAMETER
   5914  3340		       a9 00		      LDA	#0
   5915  3342		       8d 59 10 	      STA	PARAMETER
   5916  3345		       a9 58		      LDA	#88
   5917  3347		       8d 59 10 	      STA	PARAMETER
   5918  334a		       a9 01		      LDA	#1
   5919  334c		       8d 5a 10 	      STA	CALLFUNCTION
   5920  334f				   .L0466		;  return
   5921  334f
   5922  334f		       ba		      tsx
   5923  3350		       b5 02		      lda	2,x	; check return address
   5924  3352		       49 53		      eor	#(>*)	; vs. current PCH
   5925  3354		       29 e0		      and	#$E0	;  mask off all but top 3 bits
   5926  3356		       f0 03		      beq	*+5	; if equal, do normal return
   5927  3358		       4c e0 df 	      JMP	BS_return
   5928  335b		       60		      RTS
   5929  335c				   .
   5930  335c							; 
   5931  335c
   5932  335c				   .__Health
   5933  335c							; __Health
   5934  335c
   5935  335c				   .
   5936  335c							; 
   5937  335c
   5938  335c				   .L0467		;  gosub __P0Explosion bank5
   5939  335c
   5940  335c		       85 81		      sta	temp7
   5941  335e		       a9 53		      lda	#>(ret_point22-1)
   5942  3360		       48		      pha
   5943  3361		       a9 73		      lda	#<(ret_point22-1)
   5944  3363		       48		      pha
   5945  3364		       a9 90		      lda	#>(.__P0Explosion-1)
   5946  3366		       48		      pha
   5947  3367		       a9 84		      lda	#<(.__P0Explosion-1)
   5948  3369		       48		      pha
   5949  336a		       a5 81		      lda	temp7
   5950  336c		       48		      pha
   5951  336d		       8a		      txa
   5952  336e		       48		      pha
   5953  336f		       a2 05		      ldx	#5
   5954  3371		       4c ee df 	      jmp	BS_jsr
   5955  3374				   ret_point22
   5956  3374				   .L0468		;  PlayerHealth  =  PlayerHealth  +  25
   5957  3374
   5958  3374		       a5 d5		      LDA	PlayerHealth
   5959  3376		       18		      CLC
   5960  3377		       69 19		      ADC	#25
   5961  3379		       85 d5		      STA	PlayerHealth
   5962  337b				   .L0469		;  if PlayerHealth  >	80 then PlayerHealth  =  80
   5963  337b
   5964  337b		       a9 50		      LDA	#80
   5965  337d		       c5 d5		      CMP	PlayerHealth
   5966  337f		       b0 04		      BCS	.skipL0469
   5967  3381				   .condpart219
   5968  3381		       a9 50		      LDA	#80
   5969  3383		       85 d5		      STA	PlayerHealth
   5970  3385				   .skipL0469
   5971  3385				   .L0470		;  Househit = Househit - 1
   5972  3385
   5973  3385		       c6 e1		      DEC	Househit
   5974  3387				   .L0471		;  if Househit  < 2 then Househit  = 1
   5975  3387
   5976  3387		       a5 e1		      LDA	Househit
   5977  3389		       c9 02		      CMP	#2
   5978  338b		       b0 04		      BCS	.skipL0471
   5979  338d				   .condpart220
   5980  338d		       a9 01		      LDA	#1
   5981  338f		       85 e1		      STA	Househit
   5982  3391				   .skipL0471
   5983  3391				   .L0472		;  player4y = 200
   5984  3391
   5985  3391		       a9 c8		      LDA	#200
   5986  3393		       85 9d		      STA	player4y
   5987  3395				   .L0473		;  Bit2_EnemyMove{2} = 0
   5988  3395
   5989  3395		       a5 ea		      LDA	Bit2_EnemyMove
   5990  3397		       29 fb		      AND	#251
   5991  3399		       85 ea		      STA	Bit2_EnemyMove
   5992  339b				   .L0474		;  HealthDrop	=  0
   5993  339b
   5994  339b		       a9 00		      LDA	#0
   5995  339d		       85 de		      STA	HealthDrop
   5996  339f				   .L0475		;  Bit1_missleOn{1}  = 0
   5997  339f
   5998  339f		       a5 ea		      LDA	Bit1_missleOn
   5999  33a1		       29 fd		      AND	#253
   6000  33a3		       85 ea		      STA	Bit1_missleOn
   6001  33a5				   .L0476		;  missile0x  =  200  :  missile0y  =	200
   6002  33a5
   6003  33a5		       a9 c8		      LDA	#200
   6004  33a7		       85 82		      STA	missile0x
   6005  33a9		       85 bf		      STA	missile0y
   6006  33ab				   .L0477		;  gosub __P0Explosion bank5
   6007  33ab
   6008  33ab		       85 81		      sta	temp7
   6009  33ad		       a9 53		      lda	#>(ret_point23-1)
   6010  33af		       48		      pha
   6011  33b0		       a9 c2		      lda	#<(ret_point23-1)
   6012  33b2		       48		      pha
   6013  33b3		       a9 90		      lda	#>(.__P0Explosion-1)
   6014  33b5		       48		      pha
   6015  33b6		       a9 84		      lda	#<(.__P0Explosion-1)
   6016  33b8		       48		      pha
   6017  33b9		       a5 81		      lda	temp7
   6018  33bb		       48		      pha
   6019  33bc		       8a		      txa
   6020  33bd		       48		      pha
   6021  33be		       a2 05		      ldx	#5
   6022  33c0		       4c ee df 	      jmp	BS_jsr
   6023  33c3				   ret_point23
   6024  33c3				   .L0478		;  return
   6025  33c3
   6026  33c3		       ba		      tsx
   6027  33c4		       b5 02		      lda	2,x	; check return address
   6028  33c6		       49 53		      eor	#(>*)	; vs. current PCH
   6029  33c8		       29 e0		      and	#$E0	;  mask off all but top 3 bits
   6030  33ca		       f0 03		      beq	*+5	; if equal, do normal return
   6031  33cc		       4c e0 df 	      JMP	BS_return
   6032  33cf		       60		      RTS
   6033  33d0				   .
   6034  33d0							; 
   6035  33d0
   6036  33d0				   .L0479		;  bank 4
   6037  33d0
   6038  33d0					      if	ECHO3
      3076 bytes of ROM space left in bank 3
   6039  33d0					      echo	"    ",[(start_bank3 - *)]d , "bytes of ROM space left in bank 3")
   6040  33d0					      endif
   6041  33d0		       00 01	   ECHO3      =	1
   6042  3fd4					      ORG	$3FF4-bscode_length
   6043  3fd4					      RORG	$5FF4-bscode_length
   6044  3fd4		       a2 ff	   start_bank3 ldx	#$ff
   6045  3fd6					      ifconst	FASTFETCH	; using DPC+
   6046  3fd6		       8e 58 10 	      stx	FASTFETCH
   6047  3fd9					      endif
   6048  3fd9		       9a		      txs
   6049  3fda				  -	      if	bankswitch == 64
   6050  3fda				  -	      lda	#(((>(start-1)) & $0F) | $F0)
   6051  3fda					      else
   6052  3fda		       a9 18		      lda	#>(start-1)
   6053  3fdc					      endif
   6054  3fdc		       48		      pha
   6055  3fdd		       a9 e3		      lda	#<(start-1)
   6056  3fdf		       48		      pha
   6057  3fe0		       48		      pha
   6058  3fe1		       8a		      txa
   6059  3fe2		       48		      pha
   6060  3fe3		       ba		      tsx
   6061  3fe4					      if	bankswitch != 64
   6062  3fe4		       b5 04		      lda	4,x	; get high byte of return address
   6063  3fe6		       2a		      rol
   6064  3fe7		       2a		      rol
   6065  3fe8		       2a		      rol
   6066  3fe9		       2a		      rol
   6067  3fea		       29 07		      and	#bs_mask	;1 3 or 7 for F8/F6/F4
   6068  3fec		       aa		      tax
   6069  3fed		       e8		      inx
   6070  3fee				  -	      else
   6071  3fee				  -	      lda	4,x	; get high byte of return address
   6072  3fee				  -	      tay
   6073  3fee				  -	      ora	#$10	; change our bank nibble into a valid rom mirror
   6074  3fee				  -	      sta	4,x
   6075  3fee				  -	      tya
   6076  3fee				  -	      lsr
   6077  3fee				  -	      lsr
   6078  3fee				  -	      lsr
   6079  3fee				  -	      lsr
   6080  3fee				  -	      tax
   6081  3fee				  -	      inx
   6082  3fee					      endif
   6083  3fee		       bd f5 1f 	      lda	bankswitch_hotspot-1,x
   6084  3ff1		       68		      pla
   6085  3ff2		       aa		      tax
   6086  3ff3		       68		      pla
   6087  3ff4		       60		      rts
   6088  3ff5				  -	      if	((* & $1FFF) > ((bankswitch_hotspot & $1FFF) - 1))
   6089  3ff5				  -	      echo	"WARNING: size parameter in banksw.asm too small - the program probably will not work."
   6090  3ff5				  -	      echo	"Change to",[(*-begin_bscode+1)&$FF]d,"and try again."
   6091  3ff5					      endif
   6092  3ffc					      ORG	$3FFC
   6093  3ffc					      RORG	$5FFC
   6094  3ffc		       d4 5f		      .word.w	(start_bank3 & $ffff)
   6095  3ffe		       d4 5f		      .word.w	(start_bank3 & $ffff)
   6096  4000					      ORG	$4000
   6097  4000					      RORG	$7000
   6098  4000					      repeat	129
   6099  4000		       00		      .byte.b	0
   6098  4000					      repend
   6099  4001		       00		      .byte.b	0
   6098  4001					      repend
   6099  4002		       00		      .byte.b	0
   6098  4002					      repend
   6099  4003		       00		      .byte.b	0
   6098  4003					      repend
   6099  4004		       00		      .byte.b	0
   6098  4004					      repend
   6099  4005		       00		      .byte.b	0
   6098  4005					      repend
   6099  4006		       00		      .byte.b	0
   6098  4006					      repend
   6099  4007		       00		      .byte.b	0
   6098  4007					      repend
   6099  4008		       00		      .byte.b	0
   6098  4008					      repend
   6099  4009		       00		      .byte.b	0
   6098  4009					      repend
   6099  400a		       00		      .byte.b	0
   6098  400a					      repend
   6099  400b		       00		      .byte.b	0
   6098  400b					      repend
   6099  400c		       00		      .byte.b	0
   6098  400c					      repend
   6099  400d		       00		      .byte.b	0
   6098  400d					      repend
   6099  400e		       00		      .byte.b	0
   6098  400e					      repend
   6099  400f		       00		      .byte.b	0
   6098  400f					      repend
   6099  4010		       00		      .byte.b	0
   6098  4010					      repend
   6099  4011		       00		      .byte.b	0
   6098  4011					      repend
   6099  4012		       00		      .byte.b	0
   6098  4012					      repend
   6099  4013		       00		      .byte.b	0
   6098  4013					      repend
   6099  4014		       00		      .byte.b	0
   6098  4014					      repend
   6099  4015		       00		      .byte.b	0
   6098  4015					      repend
   6099  4016		       00		      .byte.b	0
   6098  4016					      repend
   6099  4017		       00		      .byte.b	0
   6098  4017					      repend
   6099  4018		       00		      .byte.b	0
   6098  4018					      repend
   6099  4019		       00		      .byte.b	0
   6098  4019					      repend
   6099  401a		       00		      .byte.b	0
   6098  401a					      repend
   6099  401b		       00		      .byte.b	0
   6098  401b					      repend
   6099  401c		       00		      .byte.b	0
   6098  401c					      repend
   6099  401d		       00		      .byte.b	0
   6098  401d					      repend
   6099  401e		       00		      .byte.b	0
   6098  401e					      repend
   6099  401f		       00		      .byte.b	0
   6098  401f					      repend
   6099  4020		       00		      .byte.b	0
   6098  4020					      repend
   6099  4021		       00		      .byte.b	0
   6098  4021					      repend
   6099  4022		       00		      .byte.b	0
   6098  4022					      repend
   6099  4023		       00		      .byte.b	0
   6098  4023					      repend
   6099  4024		       00		      .byte.b	0
   6098  4024					      repend
   6099  4025		       00		      .byte.b	0
   6098  4025					      repend
   6099  4026		       00		      .byte.b	0
   6098  4026					      repend
   6099  4027		       00		      .byte.b	0
   6098  4027					      repend
   6099  4028		       00		      .byte.b	0
   6098  4028					      repend
   6099  4029		       00		      .byte.b	0
   6098  4029					      repend
   6099  402a		       00		      .byte.b	0
   6098  402a					      repend
   6099  402b		       00		      .byte.b	0
   6098  402b					      repend
   6099  402c		       00		      .byte.b	0
   6098  402c					      repend
   6099  402d		       00		      .byte.b	0
   6098  402d					      repend
   6099  402e		       00		      .byte.b	0
   6098  402e					      repend
   6099  402f		       00		      .byte.b	0
   6098  402f					      repend
   6099  4030		       00		      .byte.b	0
   6098  4030					      repend
   6099  4031		       00		      .byte.b	0
   6098  4031					      repend
   6099  4032		       00		      .byte.b	0
   6098  4032					      repend
   6099  4033		       00		      .byte.b	0
   6098  4033					      repend
   6099  4034		       00		      .byte.b	0
   6098  4034					      repend
   6099  4035		       00		      .byte.b	0
   6098  4035					      repend
   6099  4036		       00		      .byte.b	0
   6098  4036					      repend
   6099  4037		       00		      .byte.b	0
   6098  4037					      repend
   6099  4038		       00		      .byte.b	0
   6098  4038					      repend
   6099  4039		       00		      .byte.b	0
   6098  4039					      repend
   6099  403a		       00		      .byte.b	0
   6098  403a					      repend
   6099  403b		       00		      .byte.b	0
   6098  403b					      repend
   6099  403c		       00		      .byte.b	0
   6098  403c					      repend
   6099  403d		       00		      .byte.b	0
   6098  403d					      repend
   6099  403e		       00		      .byte.b	0
   6098  403e					      repend
   6099  403f		       00		      .byte.b	0
   6098  403f					      repend
   6099  4040		       00		      .byte.b	0
   6098  4040					      repend
   6099  4041		       00		      .byte.b	0
   6098  4041					      repend
   6099  4042		       00		      .byte.b	0
   6098  4042					      repend
   6099  4043		       00		      .byte.b	0
   6098  4043					      repend
   6099  4044		       00		      .byte.b	0
   6098  4044					      repend
   6099  4045		       00		      .byte.b	0
   6098  4045					      repend
   6099  4046		       00		      .byte.b	0
   6098  4046					      repend
   6099  4047		       00		      .byte.b	0
   6098  4047					      repend
   6099  4048		       00		      .byte.b	0
   6098  4048					      repend
   6099  4049		       00		      .byte.b	0
   6098  4049					      repend
   6099  404a		       00		      .byte.b	0
   6098  404a					      repend
   6099  404b		       00		      .byte.b	0
   6098  404b					      repend
   6099  404c		       00		      .byte.b	0
   6098  404c					      repend
   6099  404d		       00		      .byte.b	0
   6098  404d					      repend
   6099  404e		       00		      .byte.b	0
   6098  404e					      repend
   6099  404f		       00		      .byte.b	0
   6098  404f					      repend
   6099  4050		       00		      .byte.b	0
   6098  4050					      repend
   6099  4051		       00		      .byte.b	0
   6098  4051					      repend
   6099  4052		       00		      .byte.b	0
   6098  4052					      repend
   6099  4053		       00		      .byte.b	0
   6098  4053					      repend
   6099  4054		       00		      .byte.b	0
   6098  4054					      repend
   6099  4055		       00		      .byte.b	0
   6098  4055					      repend
   6099  4056		       00		      .byte.b	0
   6098  4056					      repend
   6099  4057		       00		      .byte.b	0
   6098  4057					      repend
   6099  4058		       00		      .byte.b	0
   6098  4058					      repend
   6099  4059		       00		      .byte.b	0
   6098  4059					      repend
   6099  405a		       00		      .byte.b	0
   6098  405a					      repend
   6099  405b		       00		      .byte.b	0
   6098  405b					      repend
   6099  405c		       00		      .byte.b	0
   6098  405c					      repend
   6099  405d		       00		      .byte.b	0
   6098  405d					      repend
   6099  405e		       00		      .byte.b	0
   6098  405e					      repend
   6099  405f		       00		      .byte.b	0
   6098  405f					      repend
   6099  4060		       00		      .byte.b	0
   6098  4060					      repend
   6099  4061		       00		      .byte.b	0
   6098  4061					      repend
   6099  4062		       00		      .byte.b	0
   6098  4062					      repend
   6099  4063		       00		      .byte.b	0
   6098  4063					      repend
   6099  4064		       00		      .byte.b	0
   6098  4064					      repend
   6099  4065		       00		      .byte.b	0
   6098  4065					      repend
   6099  4066		       00		      .byte.b	0
   6098  4066					      repend
   6099  4067		       00		      .byte.b	0
   6098  4067					      repend
   6099  4068		       00		      .byte.b	0
   6098  4068					      repend
   6099  4069		       00		      .byte.b	0
   6098  4069					      repend
   6099  406a		       00		      .byte.b	0
   6098  406a					      repend
   6099  406b		       00		      .byte.b	0
   6098  406b					      repend
   6099  406c		       00		      .byte.b	0
   6098  406c					      repend
   6099  406d		       00		      .byte.b	0
   6098  406d					      repend
   6099  406e		       00		      .byte.b	0
   6098  406e					      repend
   6099  406f		       00		      .byte.b	0
   6098  406f					      repend
   6099  4070		       00		      .byte.b	0
   6098  4070					      repend
   6099  4071		       00		      .byte.b	0
   6098  4071					      repend
   6099  4072		       00		      .byte.b	0
   6098  4072					      repend
   6099  4073		       00		      .byte.b	0
   6098  4073					      repend
   6099  4074		       00		      .byte.b	0
   6098  4074					      repend
   6099  4075		       00		      .byte.b	0
   6098  4075					      repend
   6099  4076		       00		      .byte.b	0
   6098  4076					      repend
   6099  4077		       00		      .byte.b	0
   6098  4077					      repend
   6099  4078		       00		      .byte.b	0
   6098  4078					      repend
   6099  4079		       00		      .byte.b	0
   6098  4079					      repend
   6099  407a		       00		      .byte.b	0
   6098  407a					      repend
   6099  407b		       00		      .byte.b	0
   6098  407b					      repend
   6099  407c		       00		      .byte.b	0
   6098  407c					      repend
   6099  407d		       00		      .byte.b	0
   6098  407d					      repend
   6099  407e		       00		      .byte.b	0
   6098  407e					      repend
   6099  407f		       00		      .byte.b	0
   6098  407f					      repend
   6099  4080		       00		      .byte.b	0
   6100  4081					      repend
   6101  4081				   .L0480		;  temp1 = temp1
   6102  4081
   6103  4081		       a5 cb		      LDA	temp1
   6104  4083		       85 cb		      STA	temp1
   6105  4085				   .
   6106  4085							; 
   6107  4085
   6108  4085				   .__FrameAnimation
   6109  4085							; __FrameAnimation
   6110  4085
   6111  4085				   .__p0Frames
   6112  4085							; __p0Frames
   6113  4085
   6114  4085				   .L0481		;  if joy0fire then goto __p0Fire
   6115  4085
   6116  4085		       24 0c		      bit	INPT4
   6117  4087		       30 03		      BMI	.skipL0481
   6118  4089				   .condpart221
   6119  4089		       4c b3 70 	      jmp	.__p0Fire
   6120  408c
   6121  408c				   .skipL0481
   6122  408c				   .L0482		;  if joy0left then goto __P0BlockLeft
   6123  408c
   6124  408c		       2c 80 02 	      bit	SWCHA
   6125  408f		       70 03		      BVS	.skipL0482
   6126  4091				   .condpart222
   6127  4091		       4c ca 70 	      jmp	.__P0BlockLeft
   6128  4094
   6129  4094				   .skipL0482
   6130  4094				   .L0483		;  if joy0right then goto __P0BlockRigth
   6131  4094
   6132  4094		       2c 80 02 	      bit	SWCHA
   6133  4097		       30 03		      BMI	.skipL0483
   6134  4099				   .condpart223
   6135  4099		       4c e1 70 	      jmp	.__P0BlockRigth
   6136  409c
   6137  409c				   .skipL0483
   6138  409c				   .L0484		;  player0:
   6139  409c
   6140  409c		       a2 80		      LDX	#<playerL0484_0
   6141  409e		       86 bd		      STX	player0pointerlo
   6142  40a0		       a9 67		      LDA	#((>playerL0484_0) & $0f) | (((>playerL0484_0) / 2) & $70)
   6143  40a2		       85 be		      STA	player0pointerhi
   6144  40a4		       a9 0f		      LDA	#15
   6145  40a6		       85 a5		      STA	player0height
   6146  40a8				   .L0485		;  player0color:
   6147  40a8
   6148  40a8		       a2 8f		      LDX	#<playercolorL0485_0
   6149  40aa		       86 a3		      STX	player0color
   6150  40ac		       a9 67		      LDA	#((>playercolorL0485_0) & $0f) | (((>playercolorL0485_0) / 2) & $70)
   6151  40ae		       85 a4		      STA	player0color+1
   6152  40b0				   .L0486		;  goto __p0Damagecolors
   6153  40b0
   6154  40b0		       4c f5 70 	      jmp	.__p0Damagecolors
   6155  40b3
   6156  40b3				   .
   6157  40b3							; 
   6158  40b3
   6159  40b3				   .__p0Fire
   6160  40b3							; __p0Fire
   6161  40b3
   6162  40b3				   .L0487		;  player0:
   6163  40b3
   6164  40b3		       a2 9e		      LDX	#<playerL0487_0
   6165  40b5		       86 bd		      STX	player0pointerlo
   6166  40b7		       a9 67		      LDA	#((>playerL0487_0) & $0f) | (((>playerL0487_0) / 2) & $70)
   6167  40b9		       85 be		      STA	player0pointerhi
   6168  40bb		       a9 0f		      LDA	#15
   6169  40bd		       85 a5		      STA	player0height
   6170  40bf				   .L0488		;  player0color:
   6171  40bf
   6172  40bf		       a2 ad		      LDX	#<playercolorL0488_0
   6173  40c1		       86 a3		      STX	player0color
   6174  40c3		       a9 67		      LDA	#((>playercolorL0488_0) & $0f) | (((>playercolorL0488_0) / 2) & $70)
   6175  40c5		       85 a4		      STA	player0color+1
   6176  40c7				   .L0489		;  goto __p0Damagecolors
   6177  40c7
   6178  40c7		       4c f5 70 	      jmp	.__p0Damagecolors
   6179  40ca
   6180  40ca				   .__P0BlockLeft
   6181  40ca							; __P0BlockLeft
   6182  40ca
   6183  40ca				   .L0490		;  player0:
   6184  40ca
   6185  40ca		       a2 bc		      LDX	#<playerL0490_0
   6186  40cc		       86 bd		      STX	player0pointerlo
   6187  40ce		       a9 67		      LDA	#((>playerL0490_0) & $0f) | (((>playerL0490_0) / 2) & $70)
   6188  40d0		       85 be		      STA	player0pointerhi
   6189  40d2		       a9 0f		      LDA	#15
   6190  40d4		       85 a5		      STA	player0height
   6191  40d6				   .L0491		;  player0color:
   6192  40d6
   6193  40d6		       a2 cb		      LDX	#<playercolorL0491_0
   6194  40d8		       86 a3		      STX	player0color
   6195  40da		       a9 67		      LDA	#((>playercolorL0491_0) & $0f) | (((>playercolorL0491_0) / 2) & $70)
   6196  40dc		       85 a4		      STA	player0color+1
   6197  40de				   .L0492		;  goto __p0Damagecolors
   6198  40de
   6199  40de		       4c f5 70 	      jmp	.__p0Damagecolors
   6200  40e1
   6201  40e1				   .
   6202  40e1							; 
   6203  40e1
   6204  40e1				   .__P0BlockRigth
   6205  40e1							; __P0BlockRigth
   6206  40e1
   6207  40e1				   .L0493		;  player0:
   6208  40e1
   6209  40e1		       a2 da		      LDX	#<playerL0493_0
   6210  40e3		       86 bd		      STX	player0pointerlo
   6211  40e5		       a9 67		      LDA	#((>playerL0493_0) & $0f) | (((>playerL0493_0) / 2) & $70)
   6212  40e7		       85 be		      STA	player0pointerhi
   6213  40e9		       a9 0f		      LDA	#15
   6214  40eb		       85 a5		      STA	player0height
   6215  40ed				   .L0494		;  player0color:
   6216  40ed
   6217  40ed		       a2 e9		      LDX	#<playercolorL0494_0
   6218  40ef		       86 a3		      STX	player0color
   6219  40f1		       a9 67		      LDA	#((>playercolorL0494_0) & $0f) | (((>playercolorL0494_0) / 2) & $70)
   6220  40f3		       85 a4		      STA	player0color+1
   6221  40f5				   .__p0Damagecolors
   6222  40f5							; __p0Damagecolors
   6223  40f5
   6224  40f5				   .
   6225  40f5							; 
   6226  40f5
   6227  40f5				   .L0495		;  if PlayerDamage  = 1  &&  EnemyHit	<  1 then player0color:
   6228  40f5
   6229  40f5		       a5 dd		      LDA	PlayerDamage
   6230  40f7		       c9 01		      CMP	#1
   6231  40f9		       d0 0e		      BNE	.skipL0495
   6232  40fb				   .condpart224
   6233  40fb		       a5 d9		      LDA	EnemyHit
   6234  40fd		       c9 01		      CMP	#1
   6235  40ff		       b0 08		      BCS	.skip224then
   6236  4101				   .condpart225
   6237  4101		       a2 f8		      LDX	#<playercolor225then_0
   6238  4103		       86 a3		      STX	player0color
   6239  4105		       a9 67		      LDA	#((>playercolor225then_0) & $0f) | (((>playercolor225then_0) / 2) & $70)
   6240  4107		       85 a4		      STA	player0color+1
   6241  4109				   .skip224then
   6242  4109				   .skipL0495
   6243  4109				   .
   6244  4109							; 
   6245  4109
   6246  4109				   .L0496		;  if PlayerDamage  = 2 then player0color:
   6247  4109
   6248  4109		       a5 dd		      LDA	PlayerDamage
   6249  410b		       c9 02		      CMP	#2
   6250  410d		       d0 08		      BNE	.skipL0496
   6251  410f				   .condpart226
   6252  410f		       a2 08		      LDX	#<playercolor226then_0
   6253  4111		       86 a3		      STX	player0color
   6254  4113		       a9 68		      LDA	#((>playercolor226then_0) & $0f) | (((>playercolor226then_0) / 2) & $70)
   6255  4115		       85 a4		      STA	player0color+1
   6256  4117				   .skipL0496
   6257  4117				   .
   6258  4117							; 
   6259  4117
   6260  4117				   .L0497		;  if frame  =  10  &&  EnemyHit  <  1 then player2:
   6261  4117
   6262  4117		       a5 d6		      LDA	frame
   6263  4119		       c9 0a		      CMP	#10
   6264  411b		       d0 1e		      BNE	.skipL0497
   6265  411d				   .condpart227
   6266  411d		       a5 d9		      LDA	EnemyHit
   6267  411f		       c9 01		      CMP	#1
   6268  4121		       b0 18		      BCS	.skip227then
   6269  4123				   .condpart228
   6270  4123		       a9 e4		      lda	#<(playerpointers+2)
   6271  4125		       8d 50 10 	      sta	DF0LOW
   6272  4128		       a9 01		      lda	#(>(playerpointers+2)) & $0F
   6273  412a		       8d 68 10 	      sta	DF0HI
   6274  412d		       a2 1a		      LDX	#<player228then_2
   6275  412f		       8e 78 10 	      STX	DF0WRITE
   6276  4132		       a9 68		      LDA	#((>player228then_2) & $0f) | (((>player228then_2) / 2) & $70)
   6277  4134		       8d 78 10 	      STA	DF0WRITE
   6278  4137		       a9 08		      LDA	#8
   6279  4139		       85 a7		      STA	player2height
   6280  413b				   .skip227then
   6281  413b				   .skipL0497
   6282  413b				   .L0498		;  if frame  =  10  &&  EnemyHit  =  2 then player2:
   6283  413b
   6284  413b		       a5 d6		      LDA	frame
   6285  413d		       c9 0a		      CMP	#10
   6286  413f		       d0 1e		      BNE	.skipL0498
   6287  4141				   .condpart229
   6288  4141		       a5 d9		      LDA	EnemyHit
   6289  4143		       c9 02		      CMP	#2
   6290  4145		       d0 18		      BNE	.skip229then
   6291  4147				   .condpart230
   6292  4147		       a9 e4		      lda	#<(playerpointers+2)
   6293  4149		       8d 50 10 	      sta	DF0LOW
   6294  414c		       a9 01		      lda	#(>(playerpointers+2)) & $0F
   6295  414e		       8d 68 10 	      sta	DF0HI
   6296  4151		       a2 22		      LDX	#<player230then_2
   6297  4153		       8e 78 10 	      STX	DF0WRITE
   6298  4156		       a9 68		      LDA	#((>player230then_2) & $0f) | (((>player230then_2) / 2) & $70)
   6299  4158		       8d 78 10 	      STA	DF0WRITE
   6300  415b		       a9 08		      LDA	#8
   6301  415d		       85 a7		      STA	player2height
   6302  415f				   .skip229then
   6303  415f				   .skipL0498
   6304  415f				   .L0499		;  if frame  =  10  &&  EnemyHit  <  1 then player3:
   6305  415f
   6306  415f		       a5 d6		      LDA	frame
   6307  4161		       c9 0a		      CMP	#10
   6308  4163		       d0 1e		      BNE	.skipL0499
   6309  4165				   .condpart231
   6310  4165		       a5 d9		      LDA	EnemyHit
   6311  4167		       c9 01		      CMP	#1
   6312  4169		       b0 18		      BCS	.skip231then
   6313  416b				   .condpart232
   6314  416b		       a9 e6		      lda	#<(playerpointers+4)
   6315  416d		       8d 50 10 	      sta	DF0LOW
   6316  4170		       a9 01		      lda	#(>(playerpointers+4)) & $0F
   6317  4172		       8d 68 10 	      sta	DF0HI
   6318  4175		       a2 2a		      LDX	#<player232then_3
   6319  4177		       8e 78 10 	      STX	DF0WRITE
   6320  417a		       a9 68		      LDA	#((>player232then_3) & $0f) | (((>player232then_3) / 2) & $70)
   6321  417c		       8d 78 10 	      STA	DF0WRITE
   6322  417f		       a9 08		      LDA	#8
   6323  4181		       85 a8		      STA	player3height
   6324  4183				   .skip231then
   6325  4183				   .skipL0499
   6326  4183				   .L0500		;  if frame  =  10  &&  EnemyHit  = 3 then player3:
   6327  4183
   6328  4183		       a5 d6		      LDA	frame
   6329  4185		       c9 0a		      CMP	#10
   6330  4187		       d0 1e		      BNE	.skipL0500
   6331  4189				   .condpart233
   6332  4189		       a5 d9		      LDA	EnemyHit
   6333  418b		       c9 03		      CMP	#3
   6334  418d		       d0 18		      BNE	.skip233then
   6335  418f				   .condpart234
   6336  418f		       a9 e6		      lda	#<(playerpointers+4)
   6337  4191		       8d 50 10 	      sta	DF0LOW
   6338  4194		       a9 01		      lda	#(>(playerpointers+4)) & $0F
   6339  4196		       8d 68 10 	      sta	DF0HI
   6340  4199		       a2 32		      LDX	#<player234then_3
   6341  419b		       8e 78 10 	      STX	DF0WRITE
   6342  419e		       a9 68		      LDA	#((>player234then_3) & $0f) | (((>player234then_3) / 2) & $70)
   6343  41a0		       8d 78 10 	      STA	DF0WRITE
   6344  41a3		       a9 08		      LDA	#8
   6345  41a5		       85 a8		      STA	player3height
   6346  41a7				   .skip233then
   6347  41a7				   .skipL0500
   6348  41a7				   .L0501		;  if frame  =  10  &&  EnemyHit  <  1 then player1:
   6349  41a7
   6350  41a7		       a5 d6		      LDA	frame
   6351  41a9		       c9 0a		      CMP	#10
   6352  41ab		       d0 1e		      BNE	.skipL0501
   6353  41ad				   .condpart235
   6354  41ad		       a5 d9		      LDA	EnemyHit
   6355  41af		       c9 01		      CMP	#1
   6356  41b1		       b0 18		      BCS	.skip235then
   6357  41b3				   .condpart236
   6358  41b3		       a9 e2		      lda	#<(playerpointers+0)
   6359  41b5		       8d 50 10 	      sta	DF0LOW
   6360  41b8		       a9 01		      lda	#(>(playerpointers+0)) & $0F
   6361  41ba		       8d 68 10 	      sta	DF0HI
   6362  41bd		       a2 3a		      LDX	#<player236then_1
   6363  41bf		       8e 78 10 	      STX	DF0WRITE
   6364  41c2		       a9 68		      LDA	#((>player236then_1) & $0f) | (((>player236then_1) / 2) & $70)
   6365  41c4		       8d 78 10 	      STA	DF0WRITE
   6366  41c7		       a9 08		      LDA	#8
   6367  41c9		       85 a6		      STA	player1height
   6368  41cb				   .skip235then
   6369  41cb				   .skipL0501
   6370  41cb				   .L0502		;  if frame  =  10  &&  EnemyHit  =  1 then player1:
   6371  41cb
   6372  41cb		       a5 d6		      LDA	frame
   6373  41cd		       c9 0a		      CMP	#10
   6374  41cf		       d0 1e		      BNE	.skipL0502
   6375  41d1				   .condpart237
   6376  41d1		       a5 d9		      LDA	EnemyHit
   6377  41d3		       c9 01		      CMP	#1
   6378  41d5		       d0 18		      BNE	.skip237then
   6379  41d7				   .condpart238
   6380  41d7		       a9 e2		      lda	#<(playerpointers+0)
   6381  41d9		       8d 50 10 	      sta	DF0LOW
   6382  41dc		       a9 01		      lda	#(>(playerpointers+0)) & $0F
   6383  41de		       8d 68 10 	      sta	DF0HI
   6384  41e1		       a2 42		      LDX	#<player238then_1
   6385  41e3		       8e 78 10 	      STX	DF0WRITE
   6386  41e6		       a9 68		      LDA	#((>player238then_1) & $0f) | (((>player238then_1) / 2) & $70)
   6387  41e8		       8d 78 10 	      STA	DF0WRITE
   6388  41eb		       a9 08		      LDA	#8
   6389  41ed		       85 a6		      STA	player1height
   6390  41ef				   .skip237then
   6391  41ef				   .skipL0502
   6392  41ef				   .L0503		;  if frame  =  10 then player2color:
   6393  41ef
   6394  41ef		       a5 d6		      LDA	frame
   6395  41f1		       c9 0a		      CMP	#10
   6396  41f3		       d0 14		      BNE	.skipL0503
   6397  41f5				   .condpart239
   6398  41f5		       a9 f6		      lda	#<(playerpointers+20)
   6399  41f7		       8d 50 10 	      sta	DF0LOW
   6400  41fa		       a9 01		      lda	#(>(playerpointers+20)) & $0F
   6401  41fc		       8d 68 10 	      sta	DF0HI
   6402  41ff		       a2 4a		      LDX	#<playercolor239then_2
   6403  4201		       8e 78 10 	      STX	DF0WRITE
   6404  4204		       a9 68		      LDA	#((>playercolor239then_2) & $0f) | (((>playercolor239then_2) / 2) & $70)
   6405  4206		       8d 78 10 	      STA	DF0WRITE
   6406  4209				   .skipL0503
   6407  4209				   .L0504		;  if frame  =  10 then player3color:
   6408  4209
   6409  4209		       a5 d6		      LDA	frame
   6410  420b		       c9 0a		      CMP	#10
   6411  420d		       d0 14		      BNE	.skipL0504
   6412  420f				   .condpart240
   6413  420f		       a9 f8		      lda	#<(playerpointers+22)
   6414  4211		       8d 50 10 	      sta	DF0LOW
   6415  4214		       a9 01		      lda	#(>(playerpointers+22)) & $0F
   6416  4216		       8d 68 10 	      sta	DF0HI
   6417  4219		       a2 52		      LDX	#<playercolor240then_3
   6418  421b		       8e 78 10 	      STX	DF0WRITE
   6419  421e		       a9 68		      LDA	#((>playercolor240then_3) & $0f) | (((>playercolor240then_3) / 2) & $70)
   6420  4220		       8d 78 10 	      STA	DF0WRITE
   6421  4223				   .skipL0504
   6422  4223				   .L0505		;  if frame  =  10 then player1color:
   6423  4223
   6424  4223		       a5 d6		      LDA	frame
   6425  4225		       c9 0a		      CMP	#10
   6426  4227		       d0 14		      BNE	.skipL0505
   6427  4229				   .condpart241
   6428  4229		       a9 f4		      lda	#<(playerpointers+18)
   6429  422b		       8d 50 10 	      sta	DF0LOW
   6430  422e		       a9 01		      lda	#(>(playerpointers+18)) & $0F
   6431  4230		       8d 68 10 	      sta	DF0HI
   6432  4233		       a2 5a		      LDX	#<playercolor241then_1
   6433  4235		       8e 78 10 	      STX	DF0WRITE
   6434  4238		       a9 68		      LDA	#((>playercolor241then_1) & $0f) | (((>playercolor241then_1) / 2) & $70)
   6435  423a		       8d 78 10 	      STA	DF0WRITE
   6436  423d				   .skipL0505
   6437  423d				   .L0506		;  if frame  =  20  &&  EnemyHit  <  1 then player2:
   6438  423d
   6439  423d		       a5 d6		      LDA	frame
   6440  423f		       c9 14		      CMP	#20
   6441  4241		       d0 1e		      BNE	.skipL0506
   6442  4243				   .condpart242
   6443  4243		       a5 d9		      LDA	EnemyHit
   6444  4245		       c9 01		      CMP	#1
   6445  4247		       b0 18		      BCS	.skip242then
   6446  4249				   .condpart243
   6447  4249		       a9 e4		      lda	#<(playerpointers+2)
   6448  424b		       8d 50 10 	      sta	DF0LOW
   6449  424e		       a9 01		      lda	#(>(playerpointers+2)) & $0F
   6450  4250		       8d 68 10 	      sta	DF0HI
   6451  4253		       a2 62		      LDX	#<player243then_2
   6452  4255		       8e 78 10 	      STX	DF0WRITE
   6453  4258		       a9 68		      LDA	#((>player243then_2) & $0f) | (((>player243then_2) / 2) & $70)
   6454  425a		       8d 78 10 	      STA	DF0WRITE
   6455  425d		       a9 08		      LDA	#8
   6456  425f		       85 a7		      STA	player2height
   6457  4261				   .skip242then
   6458  4261				   .skipL0506
   6459  4261				   .L0507		;  if frame  =  20  &&  EnemyHit  = 2 then player2:
   6460  4261
   6461  4261		       a5 d6		      LDA	frame
   6462  4263		       c9 14		      CMP	#20
   6463  4265		       d0 1e		      BNE	.skipL0507
   6464  4267				   .condpart244
   6465  4267		       a5 d9		      LDA	EnemyHit
   6466  4269		       c9 02		      CMP	#2
   6467  426b		       d0 18		      BNE	.skip244then
   6468  426d				   .condpart245
   6469  426d		       a9 e4		      lda	#<(playerpointers+2)
   6470  426f		       8d 50 10 	      sta	DF0LOW
   6471  4272		       a9 01		      lda	#(>(playerpointers+2)) & $0F
   6472  4274		       8d 68 10 	      sta	DF0HI
   6473  4277		       a2 6a		      LDX	#<player245then_2
   6474  4279		       8e 78 10 	      STX	DF0WRITE
   6475  427c		       a9 68		      LDA	#((>player245then_2) & $0f) | (((>player245then_2) / 2) & $70)
   6476  427e		       8d 78 10 	      STA	DF0WRITE
   6477  4281		       a9 08		      LDA	#8
   6478  4283		       85 a7		      STA	player2height
   6479  4285				   .skip244then
   6480  4285				   .skipL0507
   6481  4285				   .L0508		;  if frame  =  20  &&  EnemyHit  <  1 then player3:
   6482  4285
   6483  4285		       a5 d6		      LDA	frame
   6484  4287		       c9 14		      CMP	#20
   6485  4289		       d0 1e		      BNE	.skipL0508
   6486  428b				   .condpart246
   6487  428b		       a5 d9		      LDA	EnemyHit
   6488  428d		       c9 01		      CMP	#1
   6489  428f		       b0 18		      BCS	.skip246then
   6490  4291				   .condpart247
   6491  4291		       a9 e6		      lda	#<(playerpointers+4)
   6492  4293		       8d 50 10 	      sta	DF0LOW
   6493  4296		       a9 01		      lda	#(>(playerpointers+4)) & $0F
   6494  4298		       8d 68 10 	      sta	DF0HI
   6495  429b		       a2 72		      LDX	#<player247then_3
   6496  429d		       8e 78 10 	      STX	DF0WRITE
   6497  42a0		       a9 68		      LDA	#((>player247then_3) & $0f) | (((>player247then_3) / 2) & $70)
   6498  42a2		       8d 78 10 	      STA	DF0WRITE
   6499  42a5		       a9 08		      LDA	#8
   6500  42a7		       85 a8		      STA	player3height
   6501  42a9				   .skip246then
   6502  42a9				   .skipL0508
   6503  42a9				   .L0509		;  if frame  =  20  &&  EnemyHit  = 3 then player3:
   6504  42a9
   6505  42a9		       a5 d6		      LDA	frame
   6506  42ab		       c9 14		      CMP	#20
   6507  42ad		       d0 1e		      BNE	.skipL0509
   6508  42af				   .condpart248
   6509  42af		       a5 d9		      LDA	EnemyHit
   6510  42b1		       c9 03		      CMP	#3
   6511  42b3		       d0 18		      BNE	.skip248then
   6512  42b5				   .condpart249
   6513  42b5		       a9 e6		      lda	#<(playerpointers+4)
   6514  42b7		       8d 50 10 	      sta	DF0LOW
   6515  42ba		       a9 01		      lda	#(>(playerpointers+4)) & $0F
   6516  42bc		       8d 68 10 	      sta	DF0HI
   6517  42bf		       a2 7a		      LDX	#<player249then_3
   6518  42c1		       8e 78 10 	      STX	DF0WRITE
   6519  42c4		       a9 68		      LDA	#((>player249then_3) & $0f) | (((>player249then_3) / 2) & $70)
   6520  42c6		       8d 78 10 	      STA	DF0WRITE
   6521  42c9		       a9 08		      LDA	#8
   6522  42cb		       85 a8		      STA	player3height
   6523  42cd				   .skip248then
   6524  42cd				   .skipL0509
   6525  42cd				   .L0510		;  if frame  =  20  &&  EnemyHit  <  1 then player1:
   6526  42cd
   6527  42cd		       a5 d6		      LDA	frame
   6528  42cf		       c9 14		      CMP	#20
   6529  42d1		       d0 1e		      BNE	.skipL0510
   6530  42d3				   .condpart250
   6531  42d3		       a5 d9		      LDA	EnemyHit
   6532  42d5		       c9 01		      CMP	#1
   6533  42d7		       b0 18		      BCS	.skip250then
   6534  42d9				   .condpart251
   6535  42d9		       a9 e2		      lda	#<(playerpointers+0)
   6536  42db		       8d 50 10 	      sta	DF0LOW
   6537  42de		       a9 01		      lda	#(>(playerpointers+0)) & $0F
   6538  42e0		       8d 68 10 	      sta	DF0HI
   6539  42e3		       a2 82		      LDX	#<player251then_1
   6540  42e5		       8e 78 10 	      STX	DF0WRITE
   6541  42e8		       a9 68		      LDA	#((>player251then_1) & $0f) | (((>player251then_1) / 2) & $70)
   6542  42ea		       8d 78 10 	      STA	DF0WRITE
   6543  42ed		       a9 08		      LDA	#8
   6544  42ef		       85 a6		      STA	player1height
   6545  42f1				   .skip250then
   6546  42f1				   .skipL0510
   6547  42f1				   .L0511		;  if frame  =  20  &&  EnemyHit  =  1 then player1:
   6548  42f1
   6549  42f1		       a5 d6		      LDA	frame
   6550  42f3		       c9 14		      CMP	#20
   6551  42f5		       d0 1e		      BNE	.skipL0511
   6552  42f7				   .condpart252
   6553  42f7		       a5 d9		      LDA	EnemyHit
   6554  42f9		       c9 01		      CMP	#1
   6555  42fb		       d0 18		      BNE	.skip252then
   6556  42fd				   .condpart253
   6557  42fd		       a9 e2		      lda	#<(playerpointers+0)
   6558  42ff		       8d 50 10 	      sta	DF0LOW
   6559  4302		       a9 01		      lda	#(>(playerpointers+0)) & $0F
   6560  4304		       8d 68 10 	      sta	DF0HI
   6561  4307		       a2 8a		      LDX	#<player253then_1
   6562  4309		       8e 78 10 	      STX	DF0WRITE
   6563  430c		       a9 68		      LDA	#((>player253then_1) & $0f) | (((>player253then_1) / 2) & $70)
   6564  430e		       8d 78 10 	      STA	DF0WRITE
   6565  4311		       a9 08		      LDA	#8
   6566  4313		       85 a6		      STA	player1height
   6567  4315				   .skip252then
   6568  4315				   .skipL0511
   6569  4315				   .L0512		;  if frame  =  20 then player2color:
   6570  4315
   6571  4315		       a5 d6		      LDA	frame
   6572  4317		       c9 14		      CMP	#20
   6573  4319		       d0 14		      BNE	.skipL0512
   6574  431b				   .condpart254
   6575  431b		       a9 f6		      lda	#<(playerpointers+20)
   6576  431d		       8d 50 10 	      sta	DF0LOW
   6577  4320		       a9 01		      lda	#(>(playerpointers+20)) & $0F
   6578  4322		       8d 68 10 	      sta	DF0HI
   6579  4325		       a2 92		      LDX	#<playercolor254then_2
   6580  4327		       8e 78 10 	      STX	DF0WRITE
   6581  432a		       a9 68		      LDA	#((>playercolor254then_2) & $0f) | (((>playercolor254then_2) / 2) & $70)
   6582  432c		       8d 78 10 	      STA	DF0WRITE
   6583  432f				   .skipL0512
   6584  432f				   .L0513		;  if frame  =  20 then player3color:
   6585  432f
   6586  432f		       a5 d6		      LDA	frame
   6587  4331		       c9 14		      CMP	#20
   6588  4333		       d0 14		      BNE	.skipL0513
   6589  4335				   .condpart255
   6590  4335		       a9 f8		      lda	#<(playerpointers+22)
   6591  4337		       8d 50 10 	      sta	DF0LOW
   6592  433a		       a9 01		      lda	#(>(playerpointers+22)) & $0F
   6593  433c		       8d 68 10 	      sta	DF0HI
   6594  433f		       a2 9a		      LDX	#<playercolor255then_3
   6595  4341		       8e 78 10 	      STX	DF0WRITE
   6596  4344		       a9 68		      LDA	#((>playercolor255then_3) & $0f) | (((>playercolor255then_3) / 2) & $70)
   6597  4346		       8d 78 10 	      STA	DF0WRITE
   6598  4349				   .skipL0513
   6599  4349				   .L0514		;  if frame  =  20 then player1color:
   6600  4349
   6601  4349		       a5 d6		      LDA	frame
   6602  434b		       c9 14		      CMP	#20
   6603  434d		       d0 14		      BNE	.skipL0514
   6604  434f				   .condpart256
   6605  434f		       a9 f4		      lda	#<(playerpointers+18)
   6606  4351		       8d 50 10 	      sta	DF0LOW
   6607  4354		       a9 01		      lda	#(>(playerpointers+18)) & $0F
   6608  4356		       8d 68 10 	      sta	DF0HI
   6609  4359		       a2 a2		      LDX	#<playercolor256then_1
   6610  435b		       8e 78 10 	      STX	DF0WRITE
   6611  435e		       a9 68		      LDA	#((>playercolor256then_1) & $0f) | (((>playercolor256then_1) / 2) & $70)
   6612  4360		       8d 78 10 	      STA	DF0WRITE
   6613  4363				   .skipL0514
   6614  4363				   .L0515		;  if frame  =  30  &&  EnemyHit  <  1 then player2:
   6615  4363
   6616  4363		       a5 d6		      LDA	frame
   6617  4365		       c9 1e		      CMP	#30
   6618  4367		       d0 1e		      BNE	.skipL0515
   6619  4369				   .condpart257
   6620  4369		       a5 d9		      LDA	EnemyHit
   6621  436b		       c9 01		      CMP	#1
   6622  436d		       b0 18		      BCS	.skip257then
   6623  436f				   .condpart258
   6624  436f		       a9 e4		      lda	#<(playerpointers+2)
   6625  4371		       8d 50 10 	      sta	DF0LOW
   6626  4374		       a9 01		      lda	#(>(playerpointers+2)) & $0F
   6627  4376		       8d 68 10 	      sta	DF0HI
   6628  4379		       a2 aa		      LDX	#<player258then_2
   6629  437b		       8e 78 10 	      STX	DF0WRITE
   6630  437e		       a9 68		      LDA	#((>player258then_2) & $0f) | (((>player258then_2) / 2) & $70)
   6631  4380		       8d 78 10 	      STA	DF0WRITE
   6632  4383		       a9 08		      LDA	#8
   6633  4385		       85 a7		      STA	player2height
   6634  4387				   .skip257then
   6635  4387				   .skipL0515
   6636  4387				   .L0516		;  if frame  =  30  &&  EnemyHit  =  2 then player2:
   6637  4387
   6638  4387		       a5 d6		      LDA	frame
   6639  4389		       c9 1e		      CMP	#30
   6640  438b		       d0 1e		      BNE	.skipL0516
   6641  438d				   .condpart259
   6642  438d		       a5 d9		      LDA	EnemyHit
   6643  438f		       c9 02		      CMP	#2
   6644  4391		       d0 18		      BNE	.skip259then
   6645  4393				   .condpart260
   6646  4393		       a9 e4		      lda	#<(playerpointers+2)
   6647  4395		       8d 50 10 	      sta	DF0LOW
   6648  4398		       a9 01		      lda	#(>(playerpointers+2)) & $0F
   6649  439a		       8d 68 10 	      sta	DF0HI
   6650  439d		       a2 b2		      LDX	#<player260then_2
   6651  439f		       8e 78 10 	      STX	DF0WRITE
   6652  43a2		       a9 68		      LDA	#((>player260then_2) & $0f) | (((>player260then_2) / 2) & $70)
   6653  43a4		       8d 78 10 	      STA	DF0WRITE
   6654  43a7		       a9 08		      LDA	#8
   6655  43a9		       85 a7		      STA	player2height
   6656  43ab				   .skip259then
   6657  43ab				   .skipL0516
   6658  43ab				   .L0517		;  if frame  =  30 then player3:
   6659  43ab
   6660  43ab		       a5 d6		      LDA	frame
   6661  43ad		       c9 1e		      CMP	#30
   6662  43af		       d0 18		      BNE	.skipL0517
   6663  43b1				   .condpart261
   6664  43b1		       a9 e6		      lda	#<(playerpointers+4)
   6665  43b3		       8d 50 10 	      sta	DF0LOW
   6666  43b6		       a9 01		      lda	#(>(playerpointers+4)) & $0F
   6667  43b8		       8d 68 10 	      sta	DF0HI
   6668  43bb		       a2 ba		      LDX	#<player261then_3
   6669  43bd		       8e 78 10 	      STX	DF0WRITE
   6670  43c0		       a9 68		      LDA	#((>player261then_3) & $0f) | (((>player261then_3) / 2) & $70)
   6671  43c2		       8d 78 10 	      STA	DF0WRITE
   6672  43c5		       a9 08		      LDA	#8
   6673  43c7		       85 a8		      STA	player3height
   6674  43c9				   .skipL0517
   6675  43c9				   .L0518		;  if frame  =  30  &&  EnemyHit  <  1 then player1:
   6676  43c9
   6677  43c9		       a5 d6		      LDA	frame
   6678  43cb		       c9 1e		      CMP	#30
   6679  43cd		       d0 1e		      BNE	.skipL0518
   6680  43cf				   .condpart262
   6681  43cf		       a5 d9		      LDA	EnemyHit
   6682  43d1		       c9 01		      CMP	#1
   6683  43d3		       b0 18		      BCS	.skip262then
   6684  43d5				   .condpart263
   6685  43d5		       a9 e2		      lda	#<(playerpointers+0)
   6686  43d7		       8d 50 10 	      sta	DF0LOW
   6687  43da		       a9 01		      lda	#(>(playerpointers+0)) & $0F
   6688  43dc		       8d 68 10 	      sta	DF0HI
   6689  43df		       a2 c2		      LDX	#<player263then_1
   6690  43e1		       8e 78 10 	      STX	DF0WRITE
   6691  43e4		       a9 68		      LDA	#((>player263then_1) & $0f) | (((>player263then_1) / 2) & $70)
   6692  43e6		       8d 78 10 	      STA	DF0WRITE
   6693  43e9		       a9 08		      LDA	#8
   6694  43eb		       85 a6		      STA	player1height
   6695  43ed				   .skip262then
   6696  43ed				   .skipL0518
   6697  43ed				   .L0519		;  if frame  =  30  &&  EnemyHit  =  1 then player1:
   6698  43ed
   6699  43ed		       a5 d6		      LDA	frame
   6700  43ef		       c9 1e		      CMP	#30
   6701  43f1		       d0 1e		      BNE	.skipL0519
   6702  43f3				   .condpart264
   6703  43f3		       a5 d9		      LDA	EnemyHit
   6704  43f5		       c9 01		      CMP	#1
   6705  43f7		       d0 18		      BNE	.skip264then
   6706  43f9				   .condpart265
   6707  43f9		       a9 e2		      lda	#<(playerpointers+0)
   6708  43fb		       8d 50 10 	      sta	DF0LOW
   6709  43fe		       a9 01		      lda	#(>(playerpointers+0)) & $0F
   6710  4400		       8d 68 10 	      sta	DF0HI
   6711  4403		       a2 ca		      LDX	#<player265then_1
   6712  4405		       8e 78 10 	      STX	DF0WRITE
   6713  4408		       a9 68		      LDA	#((>player265then_1) & $0f) | (((>player265then_1) / 2) & $70)
   6714  440a		       8d 78 10 	      STA	DF0WRITE
   6715  440d		       a9 08		      LDA	#8
   6716  440f		       85 a6		      STA	player1height
   6717  4411				   .skip264then
   6718  4411				   .skipL0519
   6719  4411				   .L0520		;  if frame  =  30 then player2color:
   6720  4411
   6721  4411		       a5 d6		      LDA	frame
   6722  4413		       c9 1e		      CMP	#30
   6723  4415		       d0 14		      BNE	.skipL0520
   6724  4417				   .condpart266
   6725  4417		       a9 f6		      lda	#<(playerpointers+20)
   6726  4419		       8d 50 10 	      sta	DF0LOW
   6727  441c		       a9 01		      lda	#(>(playerpointers+20)) & $0F
   6728  441e		       8d 68 10 	      sta	DF0HI
   6729  4421		       a2 d2		      LDX	#<playercolor266then_2
   6730  4423		       8e 78 10 	      STX	DF0WRITE
   6731  4426		       a9 68		      LDA	#((>playercolor266then_2) & $0f) | (((>playercolor266then_2) / 2) & $70)
   6732  4428		       8d 78 10 	      STA	DF0WRITE
   6733  442b				   .skipL0520
   6734  442b				   .L0521		;  if frame  =  30 then player3color:
   6735  442b
   6736  442b		       a5 d6		      LDA	frame
   6737  442d		       c9 1e		      CMP	#30
   6738  442f		       d0 14		      BNE	.skipL0521
   6739  4431				   .condpart267
   6740  4431		       a9 f8		      lda	#<(playerpointers+22)
   6741  4433		       8d 50 10 	      sta	DF0LOW
   6742  4436		       a9 01		      lda	#(>(playerpointers+22)) & $0F
   6743  4438		       8d 68 10 	      sta	DF0HI
   6744  443b		       a2 da		      LDX	#<playercolor267then_3
   6745  443d		       8e 78 10 	      STX	DF0WRITE
   6746  4440		       a9 68		      LDA	#((>playercolor267then_3) & $0f) | (((>playercolor267then_3) / 2) & $70)
   6747  4442		       8d 78 10 	      STA	DF0WRITE
   6748  4445				   .skipL0521
   6749  4445				   .L0522		;  if frame  =  30 then player1color:
   6750  4445
   6751  4445		       a5 d6		      LDA	frame
   6752  4447		       c9 1e		      CMP	#30
   6753  4449		       d0 14		      BNE	.skipL0522
   6754  444b				   .condpart268
   6755  444b		       a9 f4		      lda	#<(playerpointers+18)
   6756  444d		       8d 50 10 	      sta	DF0LOW
   6757  4450		       a9 01		      lda	#(>(playerpointers+18)) & $0F
   6758  4452		       8d 68 10 	      sta	DF0HI
   6759  4455		       a2 e2		      LDX	#<playercolor268then_1
   6760  4457		       8e 78 10 	      STX	DF0WRITE
   6761  445a		       a9 68		      LDA	#((>playercolor268then_1) & $0f) | (((>playercolor268then_1) / 2) & $70)
   6762  445c		       8d 78 10 	      STA	DF0WRITE
   6763  445f				   .skipL0522
   6764  445f				   .__Fire_Animation
   6765  445f							; __Fire_Animation
   6766  445f
   6767  445f				   .L0523		;  if f  =  10 then player5:
   6768  445f
   6769  445f		       a5 d6		      LDA	f
   6770  4461		       c9 0a		      CMP	#10
   6771  4463		       d0 18		      BNE	.skipL0523
   6772  4465				   .condpart269
   6773  4465		       a9 ea		      lda	#<(playerpointers+8)
   6774  4467		       8d 50 10 	      sta	DF0LOW
   6775  446a		       a9 01		      lda	#(>(playerpointers+8)) & $0F
   6776  446c		       8d 68 10 	      sta	DF0HI
   6777  446f		       a2 ea		      LDX	#<player269then_5
   6778  4471		       8e 78 10 	      STX	DF0WRITE
   6779  4474		       a9 68		      LDA	#((>player269then_5) & $0f) | (((>player269then_5) / 2) & $70)
   6780  4476		       8d 78 10 	      STA	DF0WRITE
   6781  4479		       a9 08		      LDA	#8
   6782  447b		       85 aa		      STA	player5height
   6783  447d				   .skipL0523
   6784  447d				   .
   6785  447d							; 
   6786  447d
   6787  447d				   .L0524		;  if f  =  10 then player5color:
   6788  447d
   6789  447d		       a5 d6		      LDA	f
   6790  447f		       c9 0a		      CMP	#10
   6791  4481		       d0 14		      BNE	.skipL0524
   6792  4483				   .condpart270
   6793  4483		       a9 fc		      lda	#<(playerpointers+26)
   6794  4485		       8d 50 10 	      sta	DF0LOW
   6795  4488		       a9 01		      lda	#(>(playerpointers+26)) & $0F
   6796  448a		       8d 68 10 	      sta	DF0HI
   6797  448d		       a2 f2		      LDX	#<playercolor270then_5
   6798  448f		       8e 78 10 	      STX	DF0WRITE
   6799  4492		       a9 68		      LDA	#((>playercolor270then_5) & $0f) | (((>playercolor270then_5) / 2) & $70)
   6800  4494		       8d 78 10 	      STA	DF0WRITE
   6801  4497				   .skipL0524
   6802  4497				   .L0525		;  if f  =  20 then player5:
   6803  4497
   6804  4497		       a5 d6		      LDA	f
   6805  4499		       c9 14		      CMP	#20
   6806  449b		       d0 18		      BNE	.skipL0525
   6807  449d				   .condpart271
   6808  449d		       a9 ea		      lda	#<(playerpointers+8)
   6809  449f		       8d 50 10 	      sta	DF0LOW
   6810  44a2		       a9 01		      lda	#(>(playerpointers+8)) & $0F
   6811  44a4		       8d 68 10 	      sta	DF0HI
   6812  44a7		       a2 fa		      LDX	#<player271then_5
   6813  44a9		       8e 78 10 	      STX	DF0WRITE
   6814  44ac		       a9 68		      LDA	#((>player271then_5) & $0f) | (((>player271then_5) / 2) & $70)
   6815  44ae		       8d 78 10 	      STA	DF0WRITE
   6816  44b1		       a9 08		      LDA	#8
   6817  44b3		       85 aa		      STA	player5height
   6818  44b5				   .skipL0525
   6819  44b5				   .L0526		;  if f  =  20 then player5color:
   6820  44b5
   6821  44b5		       a5 d6		      LDA	f
   6822  44b7		       c9 14		      CMP	#20
   6823  44b9		       d0 14		      BNE	.skipL0526
   6824  44bb				   .condpart272
   6825  44bb		       a9 fc		      lda	#<(playerpointers+26)
   6826  44bd		       8d 50 10 	      sta	DF0LOW
   6827  44c0		       a9 01		      lda	#(>(playerpointers+26)) & $0F
   6828  44c2		       8d 68 10 	      sta	DF0HI
   6829  44c5		       a2 02		      LDX	#<playercolor272then_5
   6830  44c7		       8e 78 10 	      STX	DF0WRITE
   6831  44ca		       a9 69		      LDA	#((>playercolor272then_5) & $0f) | (((>playercolor272then_5) / 2) & $70)
   6832  44cc		       8d 78 10 	      STA	DF0WRITE
   6833  44cf				   .skipL0526
   6834  44cf				   .L0527		;  if f  =  30 then player5:
   6835  44cf
   6836  44cf		       a5 d6		      LDA	f
   6837  44d1		       c9 1e		      CMP	#30
   6838  44d3		       d0 18		      BNE	.skipL0527
   6839  44d5				   .condpart273
   6840  44d5		       a9 ea		      lda	#<(playerpointers+8)
   6841  44d7		       8d 50 10 	      sta	DF0LOW
   6842  44da		       a9 01		      lda	#(>(playerpointers+8)) & $0F
   6843  44dc		       8d 68 10 	      sta	DF0HI
   6844  44df		       a2 0a		      LDX	#<player273then_5
   6845  44e1		       8e 78 10 	      STX	DF0WRITE
   6846  44e4		       a9 69		      LDA	#((>player273then_5) & $0f) | (((>player273then_5) / 2) & $70)
   6847  44e6		       8d 78 10 	      STA	DF0WRITE
   6848  44e9		       a9 08		      LDA	#8
   6849  44eb		       85 aa		      STA	player5height
   6850  44ed				   .skipL0527
   6851  44ed				   .L0528		;  if f  =  30 then player5color:
   6852  44ed
   6853  44ed		       a5 d6		      LDA	f
   6854  44ef		       c9 1e		      CMP	#30
   6855  44f1		       d0 14		      BNE	.skipL0528
   6856  44f3				   .condpart274
   6857  44f3		       a9 fc		      lda	#<(playerpointers+26)
   6858  44f5		       8d 50 10 	      sta	DF0LOW
   6859  44f8		       a9 01		      lda	#(>(playerpointers+26)) & $0F
   6860  44fa		       8d 68 10 	      sta	DF0HI
   6861  44fd		       a2 12		      LDX	#<playercolor274then_5
   6862  44ff		       8e 78 10 	      STX	DF0WRITE
   6863  4502		       a9 69		      LDA	#((>playercolor274then_5) & $0f) | (((>playercolor274then_5) / 2) & $70)
   6864  4504		       8d 78 10 	      STA	DF0WRITE
   6865  4507				   .skipL0528
   6866  4507				   .L0529		;  if frame  >  0 then player4:
   6867  4507
   6868  4507		       a9 00		      LDA	#0
   6869  4509		       c5 d6		      CMP	frame
   6870  450b		       b0 18		      BCS	.skipL0529
   6871  450d				   .condpart275
   6872  450d		       a9 e8		      lda	#<(playerpointers+6)
   6873  450f		       8d 50 10 	      sta	DF0LOW
   6874  4512		       a9 01		      lda	#(>(playerpointers+6)) & $0F
   6875  4514		       8d 68 10 	      sta	DF0HI
   6876  4517		       a2 1a		      LDX	#<player275then_4
   6877  4519		       8e 78 10 	      STX	DF0WRITE
   6878  451c		       a9 69		      LDA	#((>player275then_4) & $0f) | (((>player275then_4) / 2) & $70)
   6879  451e		       8d 78 10 	      STA	DF0WRITE
   6880  4521		       a9 09		      LDA	#9
   6881  4523		       85 a9		      STA	player4height
   6882  4525				   .skipL0529
   6883  4525				   .L0530		;  if frame  > 0 then player4color:
   6884  4525
   6885  4525		       a9 00		      LDA	#0
   6886  4527		       c5 d6		      CMP	frame
   6887  4529		       b0 14		      BCS	.skipL0530
   6888  452b				   .condpart276
   6889  452b		       a9 fa		      lda	#<(playerpointers+24)
   6890  452d		       8d 50 10 	      sta	DF0LOW
   6891  4530		       a9 01		      lda	#(>(playerpointers+24)) & $0F
   6892  4532		       8d 68 10 	      sta	DF0HI
   6893  4535		       a2 23		      LDX	#<playercolor276then_4
   6894  4537		       8e 78 10 	      STX	DF0WRITE
   6895  453a		       a9 69		      LDA	#((>playercolor276then_4) & $0f) | (((>playercolor276then_4) / 2) & $70)
   6896  453c		       8d 78 10 	      STA	DF0WRITE
   6897  453f				   .skipL0530
   6898  453f				   .L0531		;  if frame  >=  30  &&  EnemyHit  = 1 then player1y = 200  :	EnemyHit  = 0
   6899  453f
   6900  453f		       a5 d6		      LDA	frame
   6901  4541		       c9 1e		      CMP	#30
   6902  4543		       90 0e		      BCC	.skipL0531
   6903  4545				   .condpart277
   6904  4545		       a5 d9		      LDA	EnemyHit
   6905  4547		       c9 01		      CMP	#1
   6906  4549		       d0 08		      BNE	.skip277then
   6907  454b				   .condpart278
   6908  454b		       a9 c8		      LDA	#200
   6909  454d		       85 9a		      STA	player1y
   6910  454f		       a9 00		      LDA	#0
   6911  4551		       85 d9		      STA	EnemyHit
   6912  4553				   .skip277then
   6913  4553				   .skipL0531
   6914  4553				   .L0532		;  if frame  >=  30  &&  EnemyHit  = 2 then player2y = 200  :	EnemyHit  = 0
   6915  4553
   6916  4553		       a5 d6		      LDA	frame
   6917  4555		       c9 1e		      CMP	#30
   6918  4557		       90 0e		      BCC	.skipL0532
   6919  4559				   .condpart279
   6920  4559		       a5 d9		      LDA	EnemyHit
   6921  455b		       c9 02		      CMP	#2
   6922  455d		       d0 08		      BNE	.skip279then
   6923  455f				   .condpart280
   6924  455f		       a9 c8		      LDA	#200
   6925  4561		       85 9b		      STA	player2y
   6926  4563		       a9 00		      LDA	#0
   6927  4565		       85 d9		      STA	EnemyHit
   6928  4567				   .skip279then
   6929  4567				   .skipL0532
   6930  4567				   .L0533		;  if frame  >=  30  &&  EnemyHit  = 3 then player3y = 200  :	EnemyHit  = 0
   6931  4567
   6932  4567		       a5 d6		      LDA	frame
   6933  4569		       c9 1e		      CMP	#30
   6934  456b		       90 0e		      BCC	.skipL0533
   6935  456d				   .condpart281
   6936  456d		       a5 d9		      LDA	EnemyHit
   6937  456f		       c9 03		      CMP	#3
   6938  4571		       d0 08		      BNE	.skip281then
   6939  4573				   .condpart282
   6940  4573		       a9 c8		      LDA	#200
   6941  4575		       85 9c		      STA	player3y
   6942  4577		       a9 00		      LDA	#0
   6943  4579		       85 d9		      STA	EnemyHit
   6944  457b				   .skip281then
   6945  457b				   .skipL0533
   6946  457b				   .L0534		;  if frame  >= 30 then frame	= 0  :	PlayerDamage = 0
   6947  457b
   6948  457b		       a5 d6		      LDA	frame
   6949  457d		       c9 1e		      CMP	#30
   6950  457f		       90 06		      BCC	.skipL0534
   6951  4581				   .condpart283
   6952  4581		       a9 00		      LDA	#0
   6953  4583		       85 d6		      STA	frame
   6954  4585		       85 dd		      STA	PlayerDamage
   6955  4587				   .skipL0534
   6956  4587				   .L0535		;  if joy0right then REFP0  =	0
   6957  4587
   6958  4587		       2c 80 02 	      bit	SWCHA
   6959  458a		       30 04		      BMI	.skipL0535
   6960  458c				   .condpart284
   6961  458c		       a9 00		      LDA	#0
   6962  458e		       85 0b		      STA	REFP0
   6963  4590				   .skipL0535
   6964  4590				   .L0536		;  if joy0left then REFP0  =  8
   6965  4590
   6966  4590		       2c 80 02 	      bit	SWCHA
   6967  4593		       70 04		      BVS	.skipL0536
   6968  4595				   .condpart285
   6969  4595		       a9 08		      LDA	#8
   6970  4597		       85 0b		      STA	REFP0
   6971  4599				   .skipL0536
   6972  4599				   .L0537		;  return
   6973  4599
   6974  4599		       ba		      tsx
   6975  459a		       b5 02		      lda	2,x	; check return address
   6976  459c		       49 75		      eor	#(>*)	; vs. current PCH
   6977  459e		       29 e0		      and	#$E0	;  mask off all but top 3 bits
   6978  45a0		       f0 03		      beq	*+5	; if equal, do normal return
   6979  45a2		       4c e0 df 	      JMP	BS_return
   6980  45a5		       60		      RTS
   6981  45a6				   .
   6982  45a6							; 
   6983  45a6
   6984  45a6				   .__GameOver
   6985  45a6							; __GameOver
   6986  45a6
   6987  45a6				   .
   6988  45a6							; 
   6989  45a6
   6990  45a6				   .L0538		;  Bit4_gameover{4}  =  1
   6991  45a6
   6992  45a6		       a5 ea		      LDA	Bit4_gameover
   6993  45a8		       09 10		      ORA	#16
   6994  45aa		       85 ea		      STA	Bit4_gameover
   6995  45ac				   .L0539		;  missile0y  = 200 :	missile1y = 200
   6996  45ac
   6997  45ac		       a9 c8		      LDA	#200
   6998  45ae		       85 bf		      STA	missile0y
   6999  45b0		       85 c0		      STA	missile1y
   7000  45b2				   .L0540		;  player0y  = 200 :  player1y = 200 :  player2y = 200 :  player3y = 200 :  player4y = 200 :  player5y = 200 :  player6y = 200 :  player7y  = 200
   7001  45b2
   7002  45b2		       a9 c8		      LDA	#200
   7003  45b4		       85 99		      STA	player0y
   7004  45b6		       85 9a		      STA	player1y
   7005  45b8		       85 9b		      STA	player2y
   7006  45ba		       85 9c		      STA	player3y
   7007  45bc		       85 9d		      STA	player4y
   7008  45be		       85 9e		      STA	player5y
   7009  45c0		       85 9f		      STA	player6y
   7010  45c2		       85 a0		      STA	player7y
   7011  45c4				   .L0541		;  if Bit4_gameover{4} then if !Ch0_Sound then Ch0_Sound  =  1  :  Ch0_Duration  =  30
   7012  45c4
   7013  45c4		       a5 ea		      LDA	Bit4_gameover
   7014  45c6		       29 10		      AND	#16
   7015  45c8		       f0 0c		      BEQ	.skipL0541
   7016  45ca				   .condpart286
   7017  45ca		       a5 e7		      LDA	Ch0_Sound
   7018  45cc		       d0 08		      BNE	.skip286then
   7019  45ce				   .condpart287
   7020  45ce		       a9 01		      LDA	#1
   7021  45d0		       85 e7		      STA	Ch0_Sound
   7022  45d2		       a9 1e		      LDA	#30
   7023  45d4		       85 e8		      STA	Ch0_Duration
   7024  45d6				   .skip286then
   7025  45d6				   .skipL0541
   7026  45d6				   .L0542		;  if !Ch0_Sound then goto __End__Skip_Ch_0
   7027  45d6
   7028  45d6		       a5 e7		      LDA	Ch0_Sound
   7029  45d8		       d0 03		      BNE	.skipL0542
   7030  45da				   .condpart288
   7031  45da		       4c 1d 76 	      jmp	.__End__Skip_Ch_0
   7032  45dd
   7033  45dd				   .skipL0542
   7034  45dd				   .L0543		;  Ch0_Duration  =  Ch0_Duration  -  1
   7035  45dd
   7036  45dd		       c6 e8		      DEC	Ch0_Duration
   7037  45df				   .L0544		;  if !Ch0_Duration then goto __End__Clear_Ch_0
   7038  45df
   7039  45df		       a5 e8		      LDA	Ch0_Duration
   7040  45e1		       d0 03		      BNE	.skipL0544
   7041  45e3				   .condpart289
   7042  45e3		       4c 13 76 	      jmp	.__End__Clear_Ch_0
   7043  45e6
   7044  45e6				   .skipL0544
   7045  45e6				   .L0545		;  if Ch0_Sound  <>  1 then goto __End__Skip_Ch0_Sound_001
   7046  45e6
   7047  45e6		       a5 e7		      LDA	Ch0_Sound
   7048  45e8		       c9 01		      CMP	#1
   7049  45ea		       f0 03		      BEQ	.skipL0545
   7050  45ec				   .condpart290
   7051  45ec		       4c 10 76 	      jmp	.__End__Skip_Ch0_Sound_001
   7052  45ef
   7053  45ef				   .skipL0545
   7054  45ef				   .L0546		;  AUDC0  =  6  :  AUDV0  =  2  :  AUDF0  =  12
   7055  45ef
   7056  45ef		       a9 06		      LDA	#6
   7057  45f1		       85 15		      STA	AUDC0
   7058  45f3		       a9 02		      LDA	#2
   7059  45f5		       85 19		      STA	AUDV0
   7060  45f7		       a9 0c		      LDA	#12
   7061  45f9		       85 17		      STA	AUDF0
   7062  45fb				   .L0547		;  if Ch0_Duration  <	15 then AUDC0  =  6  :	AUDV0  =  1  :	AUDF0  =  6
   7063  45fb
   7064  45fb		       a5 e8		      LDA	Ch0_Duration
   7065  45fd		       c9 0f		      CMP	#15
   7066  45ff		       b0 0c		      BCS	.skipL0547
   7067  4601				   .condpart291
   7068  4601		       a9 06		      LDA	#6
   7069  4603		       85 15		      STA	AUDC0
   7070  4605		       a9 01		      LDA	#1
   7071  4607		       85 19		      STA	AUDV0
   7072  4609		       a9 06		      LDA	#6
   7073  460b		       85 17		      STA	AUDF0
   7074  460d				   .skipL0547
   7075  460d				   .L0548		;  goto __End__Skip_Ch_0
   7076  460d
   7077  460d		       4c 1d 76 	      jmp	.__End__Skip_Ch_0
   7078  4610
   7079  4610				   .__End__Skip_Ch0_Sound_001
   7080  4610							; __End__Skip_Ch0_Sound_001
   7081  4610
   7082  4610				   .L0549		;  goto __End__Skip_Ch_0
   7083  4610
   7084  4610		       4c 1d 76 	      jmp	.__End__Skip_Ch_0
   7085  4613
   7086  4613				   .__End__Clear_Ch_0
   7087  4613							; __End__Clear_Ch_0
   7088  4613
   7089  4613				   .L0550		;  Ch0_Sound  =  0  :	AUDV0  =  0 :  AUDC0 = 0 :  AUDF0  = 0
   7090  4613
   7091  4613		       a9 00		      LDA	#0
   7092  4615		       85 e7		      STA	Ch0_Sound
   7093  4617		       85 19		      STA	AUDV0
   7094  4619		       85 15		      STA	AUDC0
   7095  461b		       85 17		      STA	AUDF0
   7096  461d				   .
   7097  461d							; 
   7098  461d
   7099  461d				   .__End__Skip_Ch_0
   7100  461d							; __End__Skip_Ch_0
   7101  461d
   7102  461d				   .L0551		;  playfield:
   7103  461d
   7104  461d		       a0 58		      ldy	#88
   7105  461f		       a9 2c		      LDA	#<PF_data2
   7106  4621		       a2 69		      LDX	#((>PF_data2) & $0f) | (((>PF_data2) / 2) & $70)
   7107  4623		       85 81		      sta	temp7
   7108  4625		       a9 76		      lda	#>(ret_point24-1)
   7109  4627		       48		      pha
   7110  4628		       a9 3a		      lda	#<(ret_point24-1)
   7111  462a		       48		      pha
   7112  462b		       a9 1d		      lda	#>(pfsetup-1)
   7113  462d		       48		      pha
   7114  462e		       a9 96		      lda	#<(pfsetup-1)
   7115  4630		       48		      pha
   7116  4631		       a5 81		      lda	temp7
   7117  4633		       48		      pha
   7118  4634		       8a		      txa
   7119  4635		       48		      pha
   7120  4636		       a2 01		      ldx	#1
   7121  4638		       4c ee df 	      jmp	BS_jsr
   7122  463b				   ret_point24
   7123  463b				   .
   7124  463b							; 
   7125  463b
   7126  463b				   .
   7127  463b							; 
   7128  463b
   7129  463b				   .L0552		;  pfcolors:
   7130  463b
   7131  463b		       a9 08		      LDA	#<PFCOLS
   7132  463d		       8d 50 10 	      STA	DF0LOW
   7133  4640		       a9 0a		      LDA	#(>PFCOLS) & $0F
   7134  4642		       8d 68 10 	      STA	DF0HI
   7135  4645		       a9 8c		      LDA	#<playfieldcolorL0552
   7136  4647		       8d 59 10 	      STA	PARAMETER
   7137  464a		       a9 6a		      LDA	#((>playfieldcolorL0552) & $0f) | (((>playfieldcolorL0552) / 2) & $70)
   7138  464c		       8d 59 10 	      STA	PARAMETER
   7139  464f		       a9 00		      LDA	#0
   7140  4651		       8d 59 10 	      STA	PARAMETER
   7141  4654		       a9 58		      LDA	#88
   7142  4656		       8d 59 10 	      STA	PARAMETER
   7143  4659		       a9 01		      LDA	#1
   7144  465b		       8d 5a 10 	      STA	CALLFUNCTION
   7145  465e				   .
   7146  465e							; 
   7147  465e
   7148  465e				   .L0553		;  bkcolors:
   7149  465e
   7150  465e		       a9 a5		      LDA	#<BKCOLS
   7151  4660		       8d 50 10 	      STA	DF0LOW
   7152  4663		       a9 0b		      LDA	#(>BKCOLS) & $0F
   7153  4665		       8d 68 10 	      STA	DF0HI
   7154  4668		       a9 e4		      LDA	#<backgroundcolorL0553
   7155  466a		       8d 59 10 	      STA	PARAMETER
   7156  466d		       a9 6a		      LDA	#((>backgroundcolorL0553) & $0f) | (((>backgroundcolorL0553) / 2) & $70)
   7157  466f		       8d 59 10 	      STA	PARAMETER
   7158  4672		       a9 00		      LDA	#0
   7159  4674		       8d 59 10 	      STA	PARAMETER
   7160  4677		       a9 58		      LDA	#88
   7161  4679		       8d 59 10 	      STA	PARAMETER
   7162  467c		       a9 01		      LDA	#1
   7163  467e		       8d 5a 10 	      STA	CALLFUNCTION
   7164  4681				   .L0554		;  if joy0fire  ||  switchreset then goto __Gamestart bank2
   7165  4681
   7166  4681		       24 0c		      bit	INPT4
   7167  4683		       30 03		      BMI	.skipL0554
   7168  4685				   .condpart292
   7169  4685		       4c 8f 76 	      jmp	.condpart293
   7170  4688				   .skipL0554
   7171  4688		       a9 01		      lda	#1
   7172  468a		       2c 82 02 	      bit	SWCHB
   7173  468d		       d0 12		      BNE	.skip88OR
   7174  468f				   .condpart293
   7175  468f		       85 81		      sta	temp7
   7176  4691		       a9 31		      lda	#>(.__Gamestart-1)
   7177  4693		       48		      pha
   7178  4694		       a9 32		      lda	#<(.__Gamestart-1)
   7179  4696		       48		      pha
   7180  4697		       a5 81		      lda	temp7
   7181  4699		       48		      pha
   7182  469a		       8a		      txa
   7183  469b		       48		      pha
   7184  469c		       a2 02		      ldx	#2
   7185  469e		       4c ee df 	      jmp	BS_jsr
   7186  46a1				   .skip88OR
   7187  46a1				   .L0555		;  return
   7188  46a1
   7189  46a1		       ba		      tsx
   7190  46a2		       b5 02		      lda	2,x	; check return address
   7191  46a4		       49 76		      eor	#(>*)	; vs. current PCH
   7192  46a6		       29 e0		      and	#$E0	;  mask off all but top 3 bits
   7193  46a8		       f0 03		      beq	*+5	; if equal, do normal return
   7194  46aa		       4c e0 df 	      JMP	BS_return
   7195  46ad		       60		      RTS
   7196  46ae				   .
   7197  46ae							; 
   7198  46ae
   7199  46ae				   .L0556		;  bank 5
   7200  46ae
   7201  46ae					      if	ECHO4
      2342 bytes of ROM space left in bank 4
   7202  46ae					      echo	"    ",[(start_bank4 - *)]d , "bytes of ROM space left in bank 4")
   7203  46ae					      endif
   7204  46ae		       00 01	   ECHO4      =	1
   7205  4fd4					      ORG	$4FF4-bscode_length
   7206  4fd4					      RORG	$7FF4-bscode_length
   7207  4fd4		       a2 ff	   start_bank4 ldx	#$ff
   7208  4fd6					      ifconst	FASTFETCH	; using DPC+
   7209  4fd6		       8e 58 10 	      stx	FASTFETCH
   7210  4fd9					      endif
   7211  4fd9		       9a		      txs
   7212  4fda				  -	      if	bankswitch == 64
   7213  4fda				  -	      lda	#(((>(start-1)) & $0F) | $F0)
   7214  4fda					      else
   7215  4fda		       a9 18		      lda	#>(start-1)
   7216  4fdc					      endif
   7217  4fdc		       48		      pha
   7218  4fdd		       a9 e3		      lda	#<(start-1)
   7219  4fdf		       48		      pha
   7220  4fe0		       48		      pha
   7221  4fe1		       8a		      txa
   7222  4fe2		       48		      pha
   7223  4fe3		       ba		      tsx
   7224  4fe4					      if	bankswitch != 64
   7225  4fe4		       b5 04		      lda	4,x	; get high byte of return address
   7226  4fe6		       2a		      rol
   7227  4fe7		       2a		      rol
   7228  4fe8		       2a		      rol
   7229  4fe9		       2a		      rol
   7230  4fea		       29 07		      and	#bs_mask	;1 3 or 7 for F8/F6/F4
   7231  4fec		       aa		      tax
   7232  4fed		       e8		      inx
   7233  4fee				  -	      else
   7234  4fee				  -	      lda	4,x	; get high byte of return address
   7235  4fee				  -	      tay
   7236  4fee				  -	      ora	#$10	; change our bank nibble into a valid rom mirror
   7237  4fee				  -	      sta	4,x
   7238  4fee				  -	      tya
   7239  4fee				  -	      lsr
   7240  4fee				  -	      lsr
   7241  4fee				  -	      lsr
   7242  4fee				  -	      lsr
   7243  4fee				  -	      tax
   7244  4fee				  -	      inx
   7245  4fee					      endif
   7246  4fee		       bd f5 1f 	      lda	bankswitch_hotspot-1,x
   7247  4ff1		       68		      pla
   7248  4ff2		       aa		      tax
   7249  4ff3		       68		      pla
   7250  4ff4		       60		      rts
   7251  4ff5				  -	      if	((* & $1FFF) > ((bankswitch_hotspot & $1FFF) - 1))
   7252  4ff5				  -	      echo	"WARNING: size parameter in banksw.asm too small - the program probably will not work."
   7253  4ff5				  -	      echo	"Change to",[(*-begin_bscode+1)&$FF]d,"and try again."
   7254  4ff5					      endif
   7255  4ffc					      ORG	$4FFC
   7256  4ffc					      RORG	$7FFC
   7257  4ffc		       d4 7f		      .word.w	(start_bank4 & $ffff)
   7258  4ffe		       d4 7f		      .word.w	(start_bank4 & $ffff)
   7259  5000					      ORG	$5000
   7260  5000					      RORG	$9000
   7261  5000					      repeat	129
   7262  5000		       00		      .byte.b	0
   7261  5000					      repend
   7262  5001		       00		      .byte.b	0
   7261  5001					      repend
   7262  5002		       00		      .byte.b	0
   7261  5002					      repend
   7262  5003		       00		      .byte.b	0
   7261  5003					      repend
   7262  5004		       00		      .byte.b	0
   7261  5004					      repend
   7262  5005		       00		      .byte.b	0
   7261  5005					      repend
   7262  5006		       00		      .byte.b	0
   7261  5006					      repend
   7262  5007		       00		      .byte.b	0
   7261  5007					      repend
   7262  5008		       00		      .byte.b	0
   7261  5008					      repend
   7262  5009		       00		      .byte.b	0
   7261  5009					      repend
   7262  500a		       00		      .byte.b	0
   7261  500a					      repend
   7262  500b		       00		      .byte.b	0
   7261  500b					      repend
   7262  500c		       00		      .byte.b	0
   7261  500c					      repend
   7262  500d		       00		      .byte.b	0
   7261  500d					      repend
   7262  500e		       00		      .byte.b	0
   7261  500e					      repend
   7262  500f		       00		      .byte.b	0
   7261  500f					      repend
   7262  5010		       00		      .byte.b	0
   7261  5010					      repend
   7262  5011		       00		      .byte.b	0
   7261  5011					      repend
   7262  5012		       00		      .byte.b	0
   7261  5012					      repend
   7262  5013		       00		      .byte.b	0
   7261  5013					      repend
   7262  5014		       00		      .byte.b	0
   7261  5014					      repend
   7262  5015		       00		      .byte.b	0
   7261  5015					      repend
   7262  5016		       00		      .byte.b	0
   7261  5016					      repend
   7262  5017		       00		      .byte.b	0
   7261  5017					      repend
   7262  5018		       00		      .byte.b	0
   7261  5018					      repend
   7262  5019		       00		      .byte.b	0
   7261  5019					      repend
   7262  501a		       00		      .byte.b	0
   7261  501a					      repend
   7262  501b		       00		      .byte.b	0
   7261  501b					      repend
   7262  501c		       00		      .byte.b	0
   7261  501c					      repend
   7262  501d		       00		      .byte.b	0
   7261  501d					      repend
   7262  501e		       00		      .byte.b	0
   7261  501e					      repend
   7262  501f		       00		      .byte.b	0
   7261  501f					      repend
   7262  5020		       00		      .byte.b	0
   7261  5020					      repend
   7262  5021		       00		      .byte.b	0
   7261  5021					      repend
   7262  5022		       00		      .byte.b	0
   7261  5022					      repend
   7262  5023		       00		      .byte.b	0
   7261  5023					      repend
   7262  5024		       00		      .byte.b	0
   7261  5024					      repend
   7262  5025		       00		      .byte.b	0
   7261  5025					      repend
   7262  5026		       00		      .byte.b	0
   7261  5026					      repend
   7262  5027		       00		      .byte.b	0
   7261  5027					      repend
   7262  5028		       00		      .byte.b	0
   7261  5028					      repend
   7262  5029		       00		      .byte.b	0
   7261  5029					      repend
   7262  502a		       00		      .byte.b	0
   7261  502a					      repend
   7262  502b		       00		      .byte.b	0
   7261  502b					      repend
   7262  502c		       00		      .byte.b	0
   7261  502c					      repend
   7262  502d		       00		      .byte.b	0
   7261  502d					      repend
   7262  502e		       00		      .byte.b	0
   7261  502e					      repend
   7262  502f		       00		      .byte.b	0
   7261  502f					      repend
   7262  5030		       00		      .byte.b	0
   7261  5030					      repend
   7262  5031		       00		      .byte.b	0
   7261  5031					      repend
   7262  5032		       00		      .byte.b	0
   7261  5032					      repend
   7262  5033		       00		      .byte.b	0
   7261  5033					      repend
   7262  5034		       00		      .byte.b	0
   7261  5034					      repend
   7262  5035		       00		      .byte.b	0
   7261  5035					      repend
   7262  5036		       00		      .byte.b	0
   7261  5036					      repend
   7262  5037		       00		      .byte.b	0
   7261  5037					      repend
   7262  5038		       00		      .byte.b	0
   7261  5038					      repend
   7262  5039		       00		      .byte.b	0
   7261  5039					      repend
   7262  503a		       00		      .byte.b	0
   7261  503a					      repend
   7262  503b		       00		      .byte.b	0
   7261  503b					      repend
   7262  503c		       00		      .byte.b	0
   7261  503c					      repend
   7262  503d		       00		      .byte.b	0
   7261  503d					      repend
   7262  503e		       00		      .byte.b	0
   7261  503e					      repend
   7262  503f		       00		      .byte.b	0
   7261  503f					      repend
   7262  5040		       00		      .byte.b	0
   7261  5040					      repend
   7262  5041		       00		      .byte.b	0
   7261  5041					      repend
   7262  5042		       00		      .byte.b	0
   7261  5042					      repend
   7262  5043		       00		      .byte.b	0
   7261  5043					      repend
   7262  5044		       00		      .byte.b	0
   7261  5044					      repend
   7262  5045		       00		      .byte.b	0
   7261  5045					      repend
   7262  5046		       00		      .byte.b	0
   7261  5046					      repend
   7262  5047		       00		      .byte.b	0
   7261  5047					      repend
   7262  5048		       00		      .byte.b	0
   7261  5048					      repend
   7262  5049		       00		      .byte.b	0
   7261  5049					      repend
   7262  504a		       00		      .byte.b	0
   7261  504a					      repend
   7262  504b		       00		      .byte.b	0
   7261  504b					      repend
   7262  504c		       00		      .byte.b	0
   7261  504c					      repend
   7262  504d		       00		      .byte.b	0
   7261  504d					      repend
   7262  504e		       00		      .byte.b	0
   7261  504e					      repend
   7262  504f		       00		      .byte.b	0
   7261  504f					      repend
   7262  5050		       00		      .byte.b	0
   7261  5050					      repend
   7262  5051		       00		      .byte.b	0
   7261  5051					      repend
   7262  5052		       00		      .byte.b	0
   7261  5052					      repend
   7262  5053		       00		      .byte.b	0
   7261  5053					      repend
   7262  5054		       00		      .byte.b	0
   7261  5054					      repend
   7262  5055		       00		      .byte.b	0
   7261  5055					      repend
   7262  5056		       00		      .byte.b	0
   7261  5056					      repend
   7262  5057		       00		      .byte.b	0
   7261  5057					      repend
   7262  5058		       00		      .byte.b	0
   7261  5058					      repend
   7262  5059		       00		      .byte.b	0
   7261  5059					      repend
   7262  505a		       00		      .byte.b	0
   7261  505a					      repend
   7262  505b		       00		      .byte.b	0
   7261  505b					      repend
   7262  505c		       00		      .byte.b	0
   7261  505c					      repend
   7262  505d		       00		      .byte.b	0
   7261  505d					      repend
   7262  505e		       00		      .byte.b	0
   7261  505e					      repend
   7262  505f		       00		      .byte.b	0
   7261  505f					      repend
   7262  5060		       00		      .byte.b	0
   7261  5060					      repend
   7262  5061		       00		      .byte.b	0
   7261  5061					      repend
   7262  5062		       00		      .byte.b	0
   7261  5062					      repend
   7262  5063		       00		      .byte.b	0
   7261  5063					      repend
   7262  5064		       00		      .byte.b	0
   7261  5064					      repend
   7262  5065		       00		      .byte.b	0
   7261  5065					      repend
   7262  5066		       00		      .byte.b	0
   7261  5066					      repend
   7262  5067		       00		      .byte.b	0
   7261  5067					      repend
   7262  5068		       00		      .byte.b	0
   7261  5068					      repend
   7262  5069		       00		      .byte.b	0
   7261  5069					      repend
   7262  506a		       00		      .byte.b	0
   7261  506a					      repend
   7262  506b		       00		      .byte.b	0
   7261  506b					      repend
   7262  506c		       00		      .byte.b	0
   7261  506c					      repend
   7262  506d		       00		      .byte.b	0
   7261  506d					      repend
   7262  506e		       00		      .byte.b	0
   7261  506e					      repend
   7262  506f		       00		      .byte.b	0
   7261  506f					      repend
   7262  5070		       00		      .byte.b	0
   7261  5070					      repend
   7262  5071		       00		      .byte.b	0
   7261  5071					      repend
   7262  5072		       00		      .byte.b	0
   7261  5072					      repend
   7262  5073		       00		      .byte.b	0
   7261  5073					      repend
   7262  5074		       00		      .byte.b	0
   7261  5074					      repend
   7262  5075		       00		      .byte.b	0
   7261  5075					      repend
   7262  5076		       00		      .byte.b	0
   7261  5076					      repend
   7262  5077		       00		      .byte.b	0
   7261  5077					      repend
   7262  5078		       00		      .byte.b	0
   7261  5078					      repend
   7262  5079		       00		      .byte.b	0
   7261  5079					      repend
   7262  507a		       00		      .byte.b	0
   7261  507a					      repend
   7262  507b		       00		      .byte.b	0
   7261  507b					      repend
   7262  507c		       00		      .byte.b	0
   7261  507c					      repend
   7262  507d		       00		      .byte.b	0
   7261  507d					      repend
   7262  507e		       00		      .byte.b	0
   7261  507e					      repend
   7262  507f		       00		      .byte.b	0
   7261  507f					      repend
   7262  5080		       00		      .byte.b	0
   7263  5081					      repend
   7264  5081				   .L0557		;  temp1 = temp1
   7265  5081
   7266  5081		       a5 cb		      LDA	temp1
   7267  5083		       85 cb		      STA	temp1
   7268  5085				   .__P0Explosion
   7269  5085							; __P0Explosion
   7270  5085
   7271  5085				   .L0558		;  if Bit3_ShootorNot{3}  &&  !Ch1_Sound then Ch1_Sound  =  1	:  Ch1_Duration  =  25
   7272  5085
   7273  5085		       a5 ea		      LDA	Bit3_ShootorNot
   7274  5087		       29 08		      AND	#8
   7275  5089		       f0 0c		      BEQ	.skipL0558
   7276  508b				   .condpart294
   7277  508b		       a5 da		      LDA	Ch1_Sound
   7278  508d		       d0 08		      BNE	.skip294then
   7279  508f				   .condpart295
   7280  508f		       a9 01		      LDA	#1
   7281  5091		       85 da		      STA	Ch1_Sound
   7282  5093		       a9 19		      LDA	#25
   7283  5095		       85 db		      STA	Ch1_Duration
   7284  5097				   .skip294then
   7285  5097				   .skipL0558
   7286  5097				   .L0559		;  if !Ch1_Sound then goto __P0Exp_Skip_Ch_1
   7287  5097
   7288  5097		       a5 da		      LDA	Ch1_Sound
   7289  5099		       d0 03		      BNE	.skipL0559
   7290  509b				   .condpart296
   7291  509b		       4c e6 90 	      jmp	.__P0Exp_Skip_Ch_1
   7292  509e
   7293  509e				   .skipL0559
   7294  509e				   .L0560		;  Ch1_Duration  =  Ch1_Duration  -  1
   7295  509e
   7296  509e		       c6 db		      DEC	Ch1_Duration
   7297  50a0				   .L0561		;  if !Ch1_Duration then goto __P0Exp_Clear_Ch_1
   7298  50a0
   7299  50a0		       a5 db		      LDA	Ch1_Duration
   7300  50a2		       d0 03		      BNE	.skipL0561
   7301  50a4				   .condpart297
   7302  50a4		       4c e6 90 	      jmp	.__P0Exp_Clear_Ch_1
   7303  50a7
   7304  50a7				   .skipL0561
   7305  50a7				   .L0562		;  if Ch1_Sound  <>  1 then goto __P0Exp_Skip_Ch0_Sound_001
   7306  50a7
   7307  50a7		       a5 da		      LDA	Ch1_Sound
   7308  50a9		       c9 01		      CMP	#1
   7309  50ab		       f0 03		      BEQ	.skipL0562
   7310  50ad				   .condpart298
   7311  50ad		       4c e3 90 	      jmp	.__P0Exp_Skip_Ch0_Sound_001
   7312  50b0
   7313  50b0				   .skipL0562
   7314  50b0				   .
   7315  50b0							; 
   7316  50b0
   7317  50b0				   .L0563		;  AUDC1  =  9  :  AUDV1  =  6  :  AUDF1  =  14
   7318  50b0
   7319  50b0		       a9 09		      LDA	#9
   7320  50b2		       85 16		      STA	AUDC1
   7321  50b4		       a9 06		      LDA	#6
   7322  50b6		       85 1a		      STA	AUDV1
   7323  50b8		       a9 0e		      LDA	#14
   7324  50ba		       85 18		      STA	AUDF1
   7325  50bc				   .L0564		;  if Ch1_Duration  <	15 then AUDC1  =  9  :	AUDV1  =  4  :	AUDF1  =  24
   7326  50bc
   7327  50bc		       a5 db		      LDA	Ch1_Duration
   7328  50be		       c9 0f		      CMP	#15
   7329  50c0		       b0 0c		      BCS	.skipL0564
   7330  50c2				   .condpart299
   7331  50c2		       a9 09		      LDA	#9
   7332  50c4		       85 16		      STA	AUDC1
   7333  50c6		       a9 04		      LDA	#4
   7334  50c8		       85 1a		      STA	AUDV1
   7335  50ca		       a9 18		      LDA	#24
   7336  50cc		       85 18		      STA	AUDF1
   7337  50ce				   .skipL0564
   7338  50ce				   .L0565		;  if Ch1_Duration  <	5 then AUDC1  =  9  :  AUDV1  =  1  :  AUDF1  =  16
   7339  50ce
   7340  50ce		       a5 db		      LDA	Ch1_Duration
   7341  50d0		       c9 05		      CMP	#5
   7342  50d2		       b0 0c		      BCS	.skipL0565
   7343  50d4				   .condpart300
   7344  50d4		       a9 09		      LDA	#9
   7345  50d6		       85 16		      STA	AUDC1
   7346  50d8		       a9 01		      LDA	#1
   7347  50da		       85 1a		      STA	AUDV1
   7348  50dc		       a9 10		      LDA	#16
   7349  50de		       85 18		      STA	AUDF1
   7350  50e0				   .skipL0565
   7351  50e0				   .
   7352  50e0							; 
   7353  50e0
   7354  50e0				   .L0566		;  goto __P0Exp_Skip_Ch_1
   7355  50e0
   7356  50e0		       4c e6 90 	      jmp	.__P0Exp_Skip_Ch_1
   7357  50e3
   7358  50e3				   .__P0Exp_Skip_Ch0_Sound_001
   7359  50e3							; __P0Exp_Skip_Ch0_Sound_001
   7360  50e3
   7361  50e3				   .L0567		;  goto __P0Exp_Skip_Ch_1
   7362  50e3
   7363  50e3		       4c e6 90 	      jmp	.__P0Exp_Skip_Ch_1
   7364  50e6
   7365  50e6				   .__P0Exp_Clear_Ch_1
   7366  50e6							; __P0Exp_Clear_Ch_1
   7367  50e6
   7368  50e6				   .
   7369  50e6							; 
   7370  50e6
   7371  50e6				   .__P0Exp_Skip_Ch_1
   7372  50e6							; __P0Exp_Skip_Ch_1
   7373  50e6
   7374  50e6				   .
   7375  50e6							; 
   7376  50e6
   7377  50e6				   .L0568		;  return
   7378  50e6
   7379  50e6		       ba		      tsx
   7380  50e7		       b5 02		      lda	2,x	; check return address
   7381  50e9		       49 90		      eor	#(>*)	; vs. current PCH
   7382  50eb		       29 e0		      and	#$E0	;  mask off all but top 3 bits
   7383  50ed		       f0 03		      beq	*+5	; if equal, do normal return
   7384  50ef		       4c e0 df 	      JMP	BS_return
   7385  50f2		       60		      RTS
   7386  50f3				   .
   7387  50f3							; 
   7388  50f3
   7389  50f3				   .L0569		;  bank 6
   7390  50f3
   7391  50f3					      if	ECHO5
      3809 bytes of ROM space left in bank 5
   7392  50f3					      echo	"    ",[(start_bank5 - *)]d , "bytes of ROM space left in bank 5")
   7393  50f3					      endif
   7394  50f3		       00 01	   ECHO5      =	1
   7395  5fd4					      ORG	$5FF4-bscode_length
   7396  5fd4					      RORG	$9FF4-bscode_length
   7397  5fd4		       a2 ff	   start_bank5 ldx	#$ff
   7398  5fd6					      ifconst	FASTFETCH	; using DPC+
   7399  5fd6		       8e 58 10 	      stx	FASTFETCH
   7400  5fd9					      endif
   7401  5fd9		       9a		      txs
   7402  5fda				  -	      if	bankswitch == 64
   7403  5fda				  -	      lda	#(((>(start-1)) & $0F) | $F0)
   7404  5fda					      else
   7405  5fda		       a9 18		      lda	#>(start-1)
   7406  5fdc					      endif
   7407  5fdc		       48		      pha
   7408  5fdd		       a9 e3		      lda	#<(start-1)
   7409  5fdf		       48		      pha
   7410  5fe0		       48		      pha
   7411  5fe1		       8a		      txa
   7412  5fe2		       48		      pha
   7413  5fe3		       ba		      tsx
   7414  5fe4					      if	bankswitch != 64
   7415  5fe4		       b5 04		      lda	4,x	; get high byte of return address
   7416  5fe6		       2a		      rol
   7417  5fe7		       2a		      rol
   7418  5fe8		       2a		      rol
   7419  5fe9		       2a		      rol
   7420  5fea		       29 07		      and	#bs_mask	;1 3 or 7 for F8/F6/F4
   7421  5fec		       aa		      tax
   7422  5fed		       e8		      inx
   7423  5fee				  -	      else
   7424  5fee				  -	      lda	4,x	; get high byte of return address
   7425  5fee				  -	      tay
   7426  5fee				  -	      ora	#$10	; change our bank nibble into a valid rom mirror
   7427  5fee				  -	      sta	4,x
   7428  5fee				  -	      tya
   7429  5fee				  -	      lsr
   7430  5fee				  -	      lsr
   7431  5fee				  -	      lsr
   7432  5fee				  -	      lsr
   7433  5fee				  -	      tax
   7434  5fee				  -	      inx
   7435  5fee					      endif
   7436  5fee		       bd f5 1f 	      lda	bankswitch_hotspot-1,x
   7437  5ff1		       68		      pla
   7438  5ff2		       aa		      tax
   7439  5ff3		       68		      pla
   7440  5ff4		       60		      rts
   7441  5ff5				  -	      if	((* & $1FFF) > ((bankswitch_hotspot & $1FFF) - 1))
   7442  5ff5				  -	      echo	"WARNING: size parameter in banksw.asm too small - the program probably will not work."
   7443  5ff5				  -	      echo	"Change to",[(*-begin_bscode+1)&$FF]d,"and try again."
   7444  5ff5					      endif
   7445  5ffc					      ORG	$5FFC
   7446  5ffc					      RORG	$9FFC
   7447  5ffc		       d4 9f		      .word.w	(start_bank5 & $ffff)
   7448  5ffe		       d4 9f		      .word.w	(start_bank5 & $ffff)
   7449  6000					      ORG	$6000
   7450  6000					      RORG	$B000
   7451  6000					      repeat	129
   7452  6000		       00		      .byte.b	0
   7451  6000					      repend
   7452  6001		       00		      .byte.b	0
   7451  6001					      repend
   7452  6002		       00		      .byte.b	0
   7451  6002					      repend
   7452  6003		       00		      .byte.b	0
   7451  6003					      repend
   7452  6004		       00		      .byte.b	0
   7451  6004					      repend
   7452  6005		       00		      .byte.b	0
   7451  6005					      repend
   7452  6006		       00		      .byte.b	0
   7451  6006					      repend
   7452  6007		       00		      .byte.b	0
   7451  6007					      repend
   7452  6008		       00		      .byte.b	0
   7451  6008					      repend
   7452  6009		       00		      .byte.b	0
   7451  6009					      repend
   7452  600a		       00		      .byte.b	0
   7451  600a					      repend
   7452  600b		       00		      .byte.b	0
   7451  600b					      repend
   7452  600c		       00		      .byte.b	0
   7451  600c					      repend
   7452  600d		       00		      .byte.b	0
   7451  600d					      repend
   7452  600e		       00		      .byte.b	0
   7451  600e					      repend
   7452  600f		       00		      .byte.b	0
   7451  600f					      repend
   7452  6010		       00		      .byte.b	0
   7451  6010					      repend
   7452  6011		       00		      .byte.b	0
   7451  6011					      repend
   7452  6012		       00		      .byte.b	0
   7451  6012					      repend
   7452  6013		       00		      .byte.b	0
   7451  6013					      repend
   7452  6014		       00		      .byte.b	0
   7451  6014					      repend
   7452  6015		       00		      .byte.b	0
   7451  6015					      repend
   7452  6016		       00		      .byte.b	0
   7451  6016					      repend
   7452  6017		       00		      .byte.b	0
   7451  6017					      repend
   7452  6018		       00		      .byte.b	0
   7451  6018					      repend
   7452  6019		       00		      .byte.b	0
   7451  6019					      repend
   7452  601a		       00		      .byte.b	0
   7451  601a					      repend
   7452  601b		       00		      .byte.b	0
   7451  601b					      repend
   7452  601c		       00		      .byte.b	0
   7451  601c					      repend
   7452  601d		       00		      .byte.b	0
   7451  601d					      repend
   7452  601e		       00		      .byte.b	0
   7451  601e					      repend
   7452  601f		       00		      .byte.b	0
   7451  601f					      repend
   7452  6020		       00		      .byte.b	0
   7451  6020					      repend
   7452  6021		       00		      .byte.b	0
   7451  6021					      repend
   7452  6022		       00		      .byte.b	0
   7451  6022					      repend
   7452  6023		       00		      .byte.b	0
   7451  6023					      repend
   7452  6024		       00		      .byte.b	0
   7451  6024					      repend
   7452  6025		       00		      .byte.b	0
   7451  6025					      repend
   7452  6026		       00		      .byte.b	0
   7451  6026					      repend
   7452  6027		       00		      .byte.b	0
   7451  6027					      repend
   7452  6028		       00		      .byte.b	0
   7451  6028					      repend
   7452  6029		       00		      .byte.b	0
   7451  6029					      repend
   7452  602a		       00		      .byte.b	0
   7451  602a					      repend
   7452  602b		       00		      .byte.b	0
   7451  602b					      repend
   7452  602c		       00		      .byte.b	0
   7451  602c					      repend
   7452  602d		       00		      .byte.b	0
   7451  602d					      repend
   7452  602e		       00		      .byte.b	0
   7451  602e					      repend
   7452  602f		       00		      .byte.b	0
   7451  602f					      repend
   7452  6030		       00		      .byte.b	0
   7451  6030					      repend
   7452  6031		       00		      .byte.b	0
   7451  6031					      repend
   7452  6032		       00		      .byte.b	0
   7451  6032					      repend
   7452  6033		       00		      .byte.b	0
   7451  6033					      repend
   7452  6034		       00		      .byte.b	0
   7451  6034					      repend
   7452  6035		       00		      .byte.b	0
   7451  6035					      repend
   7452  6036		       00		      .byte.b	0
   7451  6036					      repend
   7452  6037		       00		      .byte.b	0
   7451  6037					      repend
   7452  6038		       00		      .byte.b	0
   7451  6038					      repend
   7452  6039		       00		      .byte.b	0
   7451  6039					      repend
   7452  603a		       00		      .byte.b	0
   7451  603a					      repend
   7452  603b		       00		      .byte.b	0
   7451  603b					      repend
   7452  603c		       00		      .byte.b	0
   7451  603c					      repend
   7452  603d		       00		      .byte.b	0
   7451  603d					      repend
   7452  603e		       00		      .byte.b	0
   7451  603e					      repend
   7452  603f		       00		      .byte.b	0
   7451  603f					      repend
   7452  6040		       00		      .byte.b	0
   7451  6040					      repend
   7452  6041		       00		      .byte.b	0
   7451  6041					      repend
   7452  6042		       00		      .byte.b	0
   7451  6042					      repend
   7452  6043		       00		      .byte.b	0
   7451  6043					      repend
   7452  6044		       00		      .byte.b	0
   7451  6044					      repend
   7452  6045		       00		      .byte.b	0
   7451  6045					      repend
   7452  6046		       00		      .byte.b	0
   7451  6046					      repend
   7452  6047		       00		      .byte.b	0
   7451  6047					      repend
   7452  6048		       00		      .byte.b	0
   7451  6048					      repend
   7452  6049		       00		      .byte.b	0
   7451  6049					      repend
   7452  604a		       00		      .byte.b	0
   7451  604a					      repend
   7452  604b		       00		      .byte.b	0
   7451  604b					      repend
   7452  604c		       00		      .byte.b	0
   7451  604c					      repend
   7452  604d		       00		      .byte.b	0
   7451  604d					      repend
   7452  604e		       00		      .byte.b	0
   7451  604e					      repend
   7452  604f		       00		      .byte.b	0
   7451  604f					      repend
   7452  6050		       00		      .byte.b	0
   7451  6050					      repend
   7452  6051		       00		      .byte.b	0
   7451  6051					      repend
   7452  6052		       00		      .byte.b	0
   7451  6052					      repend
   7452  6053		       00		      .byte.b	0
   7451  6053					      repend
   7452  6054		       00		      .byte.b	0
   7451  6054					      repend
   7452  6055		       00		      .byte.b	0
   7451  6055					      repend
   7452  6056		       00		      .byte.b	0
   7451  6056					      repend
   7452  6057		       00		      .byte.b	0
   7451  6057					      repend
   7452  6058		       00		      .byte.b	0
   7451  6058					      repend
   7452  6059		       00		      .byte.b	0
   7451  6059					      repend
   7452  605a		       00		      .byte.b	0
   7451  605a					      repend
   7452  605b		       00		      .byte.b	0
   7451  605b					      repend
   7452  605c		       00		      .byte.b	0
   7451  605c					      repend
   7452  605d		       00		      .byte.b	0
   7451  605d					      repend
   7452  605e		       00		      .byte.b	0
   7451  605e					      repend
   7452  605f		       00		      .byte.b	0
   7451  605f					      repend
   7452  6060		       00		      .byte.b	0
   7451  6060					      repend
   7452  6061		       00		      .byte.b	0
   7451  6061					      repend
   7452  6062		       00		      .byte.b	0
   7451  6062					      repend
   7452  6063		       00		      .byte.b	0
   7451  6063					      repend
   7452  6064		       00		      .byte.b	0
   7451  6064					      repend
   7452  6065		       00		      .byte.b	0
   7451  6065					      repend
   7452  6066		       00		      .byte.b	0
   7451  6066					      repend
   7452  6067		       00		      .byte.b	0
   7451  6067					      repend
   7452  6068		       00		      .byte.b	0
   7451  6068					      repend
   7452  6069		       00		      .byte.b	0
   7451  6069					      repend
   7452  606a		       00		      .byte.b	0
   7451  606a					      repend
   7452  606b		       00		      .byte.b	0
   7451  606b					      repend
   7452  606c		       00		      .byte.b	0
   7451  606c					      repend
   7452  606d		       00		      .byte.b	0
   7451  606d					      repend
   7452  606e		       00		      .byte.b	0
   7451  606e					      repend
   7452  606f		       00		      .byte.b	0
   7451  606f					      repend
   7452  6070		       00		      .byte.b	0
   7451  6070					      repend
   7452  6071		       00		      .byte.b	0
   7451  6071					      repend
   7452  6072		       00		      .byte.b	0
   7451  6072					      repend
   7452  6073		       00		      .byte.b	0
   7451  6073					      repend
   7452  6074		       00		      .byte.b	0
   7451  6074					      repend
   7452  6075		       00		      .byte.b	0
   7451  6075					      repend
   7452  6076		       00		      .byte.b	0
   7451  6076					      repend
   7452  6077		       00		      .byte.b	0
   7451  6077					      repend
   7452  6078		       00		      .byte.b	0
   7451  6078					      repend
   7452  6079		       00		      .byte.b	0
   7451  6079					      repend
   7452  607a		       00		      .byte.b	0
   7451  607a					      repend
   7452  607b		       00		      .byte.b	0
   7451  607b					      repend
   7452  607c		       00		      .byte.b	0
   7451  607c					      repend
   7452  607d		       00		      .byte.b	0
   7451  607d					      repend
   7452  607e		       00		      .byte.b	0
   7451  607e					      repend
   7452  607f		       00		      .byte.b	0
   7451  607f					      repend
   7452  6080		       00		      .byte.b	0
   7453  6081					      repend
   7454  6081				   .L0570		;  temp1 = temp1
   7455  6081
   7456  6081		       a5 cb		      LDA	temp1
   7457  6083		       85 cb		      STA	temp1
   7458  6085				   .
   7459  6085							; 
   7460  6085
   7461  6085				   .__Titlesceen
   7462  6085							; __Titlesceen
   7463  6085
   7464  6085				   .L0571		;  drop = 0
   7465  6085
   7466  6085		       a9 00		      LDA	#0
   7467  6087		       85 d1		      STA	drop
   7468  6089				   .
   7469  6089							; 
   7470  6089
   7471  6089				   .L0572		;  asm
   7472  6089
------- FILE titlescreen/asm/titlescreen.asm LEVEL 2 PASS 4
      0  6089					      include	"titlescreen/asm/titlescreen.asm"
      1  6089
------- FILE titlescreen/asm/layoutmacros.asm LEVEL 3 PASS 4
      0  6089					      include	"titlescreen/asm/layoutmacros.asm"
      1  6089
      2  6089							; the macro's used in the "titlescreen_layout.asm" file
      3  6089
      4  6089					      MAC	draw_96x2_1
      5  6089				   mk_96x2_1_on =	1
      6  6089					      jsr	draw_bmp_96x2_1
      7  6089					      ENDM
      8  6089
      9  6089					      MAC	draw_96x2_2
     10  6089				   mk_96x2_2_on =	1
     11  6089					      jsr	draw_bmp_96x2_2
     12  6089					      ENDM
     13  6089
     14  6089					      MAC	draw_96x2_3
     15  6089				   mk_96x2_3_on =	1
     16  6089					      jsr	draw_bmp_96x2_3
     17  6089					      ENDM
     18  6089
     19  6089					      MAC	draw_96x2_4
     20  6089				   mk_96x2_4_on =	1
     21  6089					      jsr	draw_bmp_96x2_4
     22  6089					      ENDM
     23  6089
     24  6089					      MAC	draw_96x2_5
     25  6089				   mk_96x2_5_on =	1
     26  6089					      jsr	draw_bmp_96x2_5
     27  6089					      ENDM
     28  6089
     29  6089					      MAC	draw_96x2_6
     30  6089				   mk_96x2_6_on =	1
     31  6089					      jsr	draw_bmp_96x2_6
     32  6089					      ENDM
     33  6089
     34  6089					      MAC	draw_96x2_7
     35  6089				   mk_96x2_7_on =	1
     36  6089					      jsr	draw_bmp_96x2_7
     37  6089					      ENDM
     38  6089
     39  6089					      MAC	draw_96x2_8
     40  6089				   mk_96x2_8_on =	1
     41  6089					      jsr	draw_bmp_96x2_8
     42  6089					      ENDM
     43  6089
     44  6089					      MAC	draw_48x1_1
     45  6089				   mk_48x1_X_on =	1
     46  6089				   mk_48x1_1_on =	1
     47  6089					      jsr	draw_bmp_48x1_1
     48  6089					      ENDM
     49  6089
     50  6089					      MAC	draw_48x1_2
     51  6089				   mk_48x1_X_on =	1
     52  6089				   mk_48x1_2_on =	1
     53  6089					      jsr	draw_bmp_48x1_2
     54  6089					      ENDM
     55  6089
     56  6089					      MAC	draw_48x1_3
     57  6089				   mk_48x1_X_on =	1
     58  6089				   mk_48x1_3_on =	1
     59  6089					      jsr	draw_bmp_48x1_3
     60  6089					      ENDM
     61  6089
     62  6089					      MAC	draw_48x1_4
     63  6089				   mk_48x1_X_on =	1
     64  6089				   mk_48x1_4_on =	1
     65  6089					      jsr	draw_bmp_48x1_4
     66  6089					      ENDM
     67  6089
     68  6089					      MAC	draw_48x1_5
     69  6089				   mk_48x1_X_on =	1
     70  6089				   mk_48x1_5_on =	1
     71  6089					      jsr	draw_bmp_48x1_5
     72  6089					      ENDM
     73  6089
     74  6089					      MAC	draw_48x1_6
     75  6089				   mk_48x1_X_on =	1
     76  6089				   mk_48x1_6_on =	1
     77  6089					      jsr	draw_bmp_48x1_6
     78  6089					      ENDM
     79  6089
     80  6089					      MAC	draw_48x1_7
     81  6089				   mk_48x1_X_on =	1
     82  6089				   mk_48x1_7_on =	1
     83  6089					      jsr	draw_bmp_48x1_7
     84  6089					      ENDM
     85  6089
     86  6089					      MAC	draw_48x1_8
     87  6089				   mk_48x1_X_on =	1
     88  6089				   mk_48x1_8_on =	1
     89  6089					      jsr	draw_bmp_48x1_8
     90  6089					      ENDM
     91  6089
     92  6089
     93  6089					      MAC	draw_48x2_1
     94  6089				   mk_48x2_X_on =	1
     95  6089				   mk_48x2_1_on =	1
     96  6089					      jsr	draw_bmp_48x2_1
     97  6089					      ENDM
     98  6089
     99  6089					      MAC	draw_48x2_2
    100  6089				   mk_48x2_X_on =	1
    101  6089				   mk_48x2_2_on =	1
    102  6089					      jsr	draw_bmp_48x2_2
    103  6089					      ENDM
    104  6089
    105  6089					      MAC	draw_48x2_3
    106  6089				   mk_48x2_X_on =	1
    107  6089				   mk_48x2_3_on =	1
    108  6089					      jsr	draw_bmp_48x2_3
    109  6089					      ENDM
    110  6089
    111  6089					      MAC	draw_48x2_4
    112  6089				   mk_48x2_X_on =	1
    113  6089				   mk_48x2_4_on =	1
    114  6089					      jsr	draw_bmp_48x2_4
    115  6089					      ENDM
    116  6089
    117  6089					      MAC	draw_48x2_5
    118  6089				   mk_48x2_X_on =	1
    119  6089				   mk_48x2_5_on =	1
    120  6089					      jsr	draw_bmp_48x2_5
    121  6089					      ENDM
    122  6089
    123  6089					      MAC	draw_48x2_6
    124  6089				   mk_48x2_X_on =	1
    125  6089				   mk_48x2_6_on =	1
    126  6089					      jsr	draw_bmp_48x2_6
    127  6089					      ENDM
    128  6089
    129  6089					      MAC	draw_48x2_7
    130  6089				   mk_48x2_X_on =	1
    131  6089				   mk_48x2_7_on =	1
    132  6089					      jsr	draw_bmp_48x2_7
    133  6089					      ENDM
    134  6089
    135  6089					      MAC	draw_48x2_8
    136  6089				   mk_48x2_X_on =	1
    137  6089				   mk_48x2_8_on =	1
    138  6089					      jsr	draw_bmp_48x2_8
    139  6089					      ENDM
    140  6089
    141  6089					      MAC	draw_player
    142  6089				   mk_player_on =	1
    143  6089					      jsr	draw_player_display
    144  6089					      ENDM
    145  6089
    146  6089					      MAC	draw_score
    147  6089				   mk_score_on =	1
    148  6089				   mk_48x1_X_on =	1
    149  6089					      jsr	draw_score_display
    150  6089					      ENDM
    151  6089
    152  6089					      MAC	draw_gameselect
    153  6089				   mk_gameselect_on =	1
    154  6089				   mk_48x1_X_on =	1
    155  6089					      jsr	draw_gameselect_display
    156  6089					      ENDM
    157  6089
    158  6089					      MAC	draw_space
    159  6089					      ldy	#{1}
    160  6089				   .loop
    161  6089					      sta	WSYNC
    162  6089					      dey
    163  6089					      bne	.loop
    164  6089					      ENDM
    165  6089
------- FILE titlescreen/asm/titlescreen.asm
------- FILE titlescreen/asm/dpcfix.asm LEVEL 3 PASS 4
      0  6089					      include	"titlescreen/asm/dpcfix.asm"
      1  6089							; reassign variables that DPC+ doesn't have
      2  6089
      3  6089				  -	      ifnconst	aux2
      4  6089				  -aux2       =	player2x
      5  6089					      endif
      6  6089				  -	      ifnconst	aux4
      7  6089				  -aux4       =	player4x
      8  6089					      endif
      9  6089				  -	      ifnconst	aux5
     10  6089				  -aux5       =	player5x
     11  6089					      endif
     12  6089				  -	      ifnconst	aux6
     13  6089				  -aux6       =	player6x
     14  6089					      endif
     15  6089
     16  6089				  -	      ifnconst	player0pointer
     17  6089				  -player0pointer =	player2y
     18  6089					      endif
     19  6089				  -	      ifnconst	player1pointer
     20  6089				  -player1pointer =	player2height	; to player3height
     21  6089					      endif
     22  6089				  -	      ifnconst	player1color
     23  6089				  -player1color =	player4height	; to player5height
     24  6089					      endif
     25  6089				  -	      ifnconst	scorepointers
     26  6089				  -scorepointers =	player6height	; to NUSIZ8
     27  6089					      endif
------- FILE titlescreen/asm/titlescreen.asm
------- FILE titlescreen/titlescreen_layout.asm LEVEL 3 PASS 4
      0  6089					      include	"titlescreen/titlescreen_layout.asm"
      1  6089
      2  6089							; To use a minikernel, just list it below. They'll be drawn on the screen in
      3  6089							; in the order they were listed.
      4  6089							;
      5  6089							; If a minikernel isn't listed, it won't be compiled into your program, and
      6  6089							; it won't use any rom space.
      7  6089
      8  6089					      MAC	titlescreenlayout
      9  6089					      draw_96x2_1
     10  6089					      draw_48x1_1
     11  6089					      draw_96x2_2
     12  6089					      draw_96x2_4
     13  6089					      draw_96x2_5
     14  6089					      draw_gameselect
     15  6089					      draw_score
     16  6089					      ENDM
     17  6089
     18  6089							; minikernel choices are:
     19  6089							;
     20  6089							; draw_48x1_1, draw_48x1_2, draw_48x1_3
     21  6089							;	The first, second, and third 48-wide single-line bitmap minikernels
     22  6089							;
     23  6089							; draw_48x2_1, draw_48x2_2, draw_48x2_3
     24  6089							;	The first, second, and third 48-wide double-line bitmap minikernels
     25  6089							;
     26  6089							; draw_96x2_1, draw_96x2_2, draw_96x2_3
     27  6089							;	The first, second, and third 96-wide double-line bitmap minikernels
     28  6089							;
     29  6089							; draw_gameselect
     30  6089							;	The game selection display minikernel
     31  6089							;
     32  6089							; draw_score
     33  6089							;	A minikernel that draws the score
     34  6089							;
     35  6089							; draw_space 10
     36  6089							;	A minikernel used to add blank space between other minikernels
------- FILE titlescreen/asm/titlescreen.asm
      5  6089
      6  6089				   .titledrawscreen
      7  6089				   title_eat_overscan
      8  6089							;bB runs in overscan. Wait for the overscan to run out...
      9  6089		       18		      clc
     10  608a		       ad 84 02 	      lda	INTIM
     11  608d		       30 fa		      bmi	title_eat_overscan
     12  608f		       4c 92 b0 	      jmp	title_do_vertical_sync
     13  6092
     14  6092				   title_do_vertical_sync
     15  6092		       a9 02		      lda	#2
     16  6094		       85 02		      sta	WSYNC	;one line with VSYNC
     17  6096		       85 00		      sta	VSYNC	;enable VSYNC
     18  6098		       85 02		      sta	WSYNC	;one line with VSYNC
     19  609a		       85 02		      sta	WSYNC	;one line with VSYNC
     20  609c		       a9 00		      lda	#0
     21  609e		       85 02		      sta	WSYNC	;one line with VSYNC
     22  60a0		       85 00		      sta	VSYNC	;turn off VSYNC
     23  60a2
     24  60a2							;lda #42+128
     25  60a2				  -	      ifnconst	vblank_time
     26  60a2				  -	      lda	#42+128
     27  60a2					      else
     28  60a2		       a9 ab		      lda	#vblank_time+128
     29  60a4					      endif
     30  60a4
     31  60a4		       8d 96 02 	      sta	TIM64T
     32  60a7
     33  60a7		       00 82	   titleframe =	missile0x
     34  60a7		       e6 82		      inc	titleframe	; increment the frame counter
     35  60a9
     36  60a9				  -	      ifconst	.title_vblank
     37  60a9				  -	      jsr	.title_vblank
     38  60a9					      endif
     39  60a9
     40  60a9				   title_vblank_loop
     41  60a9		       ad 84 02 	      lda	INTIM
     42  60ac		       30 fb		      bmi	title_vblank_loop
     43  60ae		       a9 00		      lda	#0
     44  60b0		       85 02		      sta	WSYNC
     45  60b2		       85 01		      sta	VBLANK
     46  60b4		       85 1d		      sta	ENAM0
     47  60b6		       85 1f		      sta	ENABL
     48  60b8
     49  60b8				   title_playfield
     50  60b8
     51  60b8							; ======== BEGIN of the custom kernel!!!!! All of the work is done in the playfield.
     52  60b8
     53  60b8		       a9 e6		      lda	#230
     54  60ba		       8d 96 02 	      sta	TIM64T
     55  60bd
     56  60bd		       a9 01		      lda	#1
     57  60bf		       85 0a		      sta	CTRLPF
     58  60c1		       18		      clc
     59  60c2
     60  60c2		       a9 00		      lda	#0
     61  60c4		       85 0b		      sta	REFP0
     62  60c6		       85 0c		      sta	REFP1
     63  60c8		       85 02		      sta	WSYNC
     64  60ca		       ad 0f b1 	      lda	titlescreencolor
     65  60cd		       85 09		      sta	COLUBK
     66  60cf
      0  60cf					      titlescreenlayout
      0  60cf					      draw_96x2_1
      1  60cf		       00 01	   mk_96x2_1_on =	1
      2  60cf		       20 d3 b1 	      jsr	draw_bmp_96x2_1
      0  60d2					      draw_48x1_1
      1  60d2		       00 01	   mk_48x1_X_on =	1
      2  60d2		       00 01	   mk_48x1_1_on =	1
      3  60d2		       20 10 b1 	      jsr	draw_bmp_48x1_1
      0  60d5					      draw_96x2_2
      1  60d5		       00 01	   mk_96x2_2_on =	1
      2  60d5		       20 71 b3 	      jsr	draw_bmp_96x2_2
      0  60d8					      draw_96x2_4
      1  60d8		       00 01	   mk_96x2_4_on =	1
      2  60d8		       20 71 b5 	      jsr	draw_bmp_96x2_4
      0  60db					      draw_96x2_5
      1  60db		       00 01	   mk_96x2_5_on =	1
      2  60db		       20 71 b7 	      jsr	draw_bmp_96x2_5
      0  60de					      draw_gameselect
      1  60de		       00 01	   mk_gameselect_on =	1
      2  60de		       00 01	   mk_48x1_X_on =	1
      3  60de		       20 53 ba 	      jsr	draw_gameselect_display
      0  60e1					      draw_score
      1  60e1		       00 01	   mk_score_on =	1
      2  60e1		       00 01	   mk_48x1_X_on =	1
      3  60e1		       20 71 b9 	      jsr	draw_score_display
     68  60e4
     69  60e4		       4c c9 ba 	      jmp	PFWAIT	; kernel is done. Finish off the screen
     70  60e7
------- FILE titlescreen/asm/position48.asm LEVEL 3 PASS 4
      0  60e7					      include	"titlescreen/asm/position48.asm"
      1  60e7
      2  60e7				   position48
      3  60e7
      4  60e7							;postion P0 and P1
      5  60e7
      6  60e7		       85 02		      sta	WSYNC
      7  60e9
      8  60e9		       a9 90		      lda	#$90	;2
      9  60eb		       85 20		      sta	HMP0	;3
     10  60ed		       a9 a0		      lda	#$A0	;2
     11  60ef		       85 21		      sta	HMP1	;3
     12  60f1
     13  60f1		       e6 cb		      inc	temp1
     14  60f3		       c6 cb		      dec	temp1
     15  60f5		       e6 cb		      inc	temp1
     16  60f7		       c6 cb		      dec	temp1
     17  60f9		       e6 cb		      inc	temp1
      0  60fb					      sleep	2
      1  60fb				   .CYCLES    SET	2
      2  60fb
      3  60fb				  -	      IF	.CYCLES < 2
      4  60fb				  -	      ECHO	"MACRO ERROR: 'SLEEP': Duration must be > 1"
      5  60fb				  -	      ERR
      6  60fb					      ENDIF
      7  60fb
      8  60fb				  -	      IF	.CYCLES & 1
      9  60fb				  -	      IFNCONST	NO_ILLEGAL_OPCODES
     10  60fb				  -	      nop	0
     11  60fb				  -	      ELSE
     12  60fb				  -	      bit	VSYNC
     13  60fb				  -	      ENDIF
     14  60fb				  -.CYCLES    SET	.CYCLES - 3
     15  60fb					      ENDIF
     16  60fb
     17  60fb					      REPEAT	.CYCLES / 2
     18  60fb		       ea		      nop
     19  60fc					      REPEND
     19  60fc		       85 10		      sta	RESP0	;  +3
     20  60fe		       85 11		      sta	RESP1	;  +3
     21  6100		       c6 cb		      dec	temp1	;  +5
     22  6102		       e6 cb		      inc	temp1	;  +5
     23  6104		       c6 cb		      dec	temp1	;  +5
     24  6106		       e6 cb		      inc	temp1	;  +5
     25  6108		       c6 cb		      dec	temp1	;  +5
      0  610a					      sleep	3
      1  610a				   .CYCLES    SET	3
      2  610a
      3  610a				  -	      IF	.CYCLES < 2
      4  610a				  -	      ECHO	"MACRO ERROR: 'SLEEP': Duration must be > 1"
      5  610a				  -	      ERR
      6  610a					      ENDIF
      7  610a
      8  610a					      IF	.CYCLES & 1
      9  610a					      IFNCONST	NO_ILLEGAL_OPCODES
     10  610a		       04 00		      nop	0
     11  610c				  -	      ELSE
     12  610c				  -	      bit	VSYNC
     13  610c					      ENDIF
     14  610c				   .CYCLES    SET	.CYCLES - 3
     15  610c					      ENDIF
     16  610c
     17  610c				  -	      REPEAT	.CYCLES / 2
     18  610c				  -	      nop
     19  610c					      REPEND
     27  610c		       85 2a		      sta	HMOVE	; +76
     28  610e		       60		      RTS
     29  610f
------- FILE titlescreen/asm/titlescreen.asm
------- FILE titlescreen/titlescreen_color.asm LEVEL 3 PASS 4
      0  610f					      include	"titlescreen/titlescreen_color.asm"
      1  610f							; This is where the titlescreen background color gets set.
      2  610f							; You can also do a "dim titlescreencolor=[letter]" in bB
      3  610f							; if you want to change the color on the fly.
      4  610f
      5  610f				  -	      ifnconst	titlescreencolor
      6  610f				  -titlescreencolor
      7  610f					      endif
      8  610f		       00		      .byte.b	$00
      9  6110
------- FILE titlescreen/asm/titlescreen.asm
     73  6110
     74  6110					      ifconst	mk_48x1_1_on
------- FILE titlescreen/asm/48x1_1_kernel.asm LEVEL 3 PASS 4
      0  6110					      include	"titlescreen/asm/48x1_1_kernel.asm"
      1  6110
      2  6110				   draw_bmp_48x1_1
      3  6110
      4  6110		       a9 00		      lda	#0
      5  6112		       85 1b		      sta	GRP0
      6  6114		       85 1c		      sta	GRP1
      7  6116
      8  6116		       a0 0b		      ldy	#11
      9  6118				   bmp_48x1_1_pointersetup
     10  6118		       b9 4c b1 	      lda	bmp_48x1_1_values,y
     11  611b		       99 ab 00 	      sta	scorepointers,y
     12  611e		       88		      dey
     13  611f		       b9 4c b1 	      lda	bmp_48x1_1_values,y
     14  6122				  -	      ifconst	bmp_48x1_1_index
     15  6122				  -	      sec
     16  6122				  -	      sbc	bmp_48x1_1_index
     17  6122					      endif
     18  6122		       99 ab 00 	      sta	scorepointers,y
     19  6125		       88		      dey
     20  6126		       10 f0		      bpl	bmp_48x1_1_pointersetup
     21  6128
     22  6128		       a0 31		      ldy	(#bmp_48x1_1_window-1)
     23  612a		       84 91		      sty	aux2
     24  612c
     25  612c					      ifconst	bmp_48x1_1_background
     26  612c		       ad ef ba 	      lda	bmp_48x1_1_background
     27  612f				  -	      else
     28  612f				  -	      lda	titlescreencolor
     29  612f					      endif
     30  612f		       85 c7		      sta	aux4
     31  6131
     32  6131		       ad f0 ba 	      lda	bmp_48x1_1_color
     33  6134		       85 06		      sta	COLUP0	;3
     34  6136		       85 07		      sta	COLUP1	;3
     35  6138		       85 2b		      sta	HMCLR	;3
     36  613a
     37  613a		       ad 0f b1 	      lda	titlescreencolor
     38  613d		       85 08		      sta	COLUPF
     39  613f
     40  613f					      ifconst	bmp_48x1_1_PF1
     41  613f		       ad ed ba 	      lda	bmp_48x1_1_PF1
     42  6142				  -	      else
     43  6142				  -	      lda	#0
     44  6142				  -	      nop
     45  6142					      endif
     46  6142		       85 0e		      sta	PF1
     47  6144
     48  6144					      ifconst	bmp_48x1_1_PF2
     49  6144		       ad ee ba 	      lda	bmp_48x1_1_PF2
     50  6147				  -	      else
     51  6147				  -	      lda	#0
     52  6147				  -	      nop
     53  6147					      endif
     54  6147		       85 0f		      sta	PF2
     55  6149
     56  6149		       4c 58 b1 	      jmp	draw_bmp_48x1_X	; the common 1lk bitmap minikernel
     57  614c
     58  614c				   bmp_48x1_1_values
     59  614c		       00 bb		      .word.w	(bmp_48x1_1_00+#bmp_48x1_1_height-#bmp_48x1_1_window)
     60  614e		       32 bb		      .word.w	(bmp_48x1_1_01+#bmp_48x1_1_height-#bmp_48x1_1_window)
     61  6150		       64 bb		      .word.w	(bmp_48x1_1_02+#bmp_48x1_1_height-#bmp_48x1_1_window)
     62  6152		       96 bb		      .word.w	(bmp_48x1_1_03+#bmp_48x1_1_height-#bmp_48x1_1_window)
     63  6154		       c8 bb		      .word.w	(bmp_48x1_1_04+#bmp_48x1_1_height-#bmp_48x1_1_window)
     64  6156		       00 bc		      .word.w	(bmp_48x1_1_05+#bmp_48x1_1_height-#bmp_48x1_1_window)
     65  6158
------- FILE titlescreen/asm/titlescreen.asm
     76  6158					      endif		;mk_48x1_1_on
     77  6158
     78  6158				  -	      ifconst	mk_48x1_2_on
     79  6158				  -	      include	"titlescreen/asm/48x1_2_kernel.asm"
     80  6158					      endif		;mk_48x1_2_on
     81  6158
     82  6158				  -	      ifconst	mk_48x1_3_on
     83  6158				  -	      include	"titlescreen/asm/48x1_3_kernel.asm"
     84  6158					      endif		;mk_48x1_3_on
     85  6158
     86  6158				  -	      ifconst	mk_48x1_4_on
     87  6158				  -	      include	"titlescreen/asm/48x1_4_kernel.asm"
     88  6158					      endif		;mk_48x1_4_on
     89  6158
     90  6158				  -	      ifconst	mk_48x1_5_on
     91  6158				  -	      include	"titlescreen/asm/48x1_5_kernel.asm"
     92  6158					      endif		;mk_48x1_5_on
     93  6158
     94  6158				  -	      ifconst	mk_48x1_6_on
     95  6158				  -	      include	"titlescreen/asm/48x1_6_kernel.asm"
     96  6158					      endif		;mk_48x1_6_on
     97  6158
     98  6158				  -	      ifconst	mk_48x1_7_on
     99  6158				  -	      include	"titlescreen/asm/48x1_7_kernel.asm"
    100  6158					      endif		;mk_48x1_7_on
    101  6158
    102  6158				  -	      ifconst	mk_48x1_8_on
    103  6158				  -	      include	"titlescreen/asm/48x1_8_kernel.asm"
    104  6158					      endif		;mk_48x1_8_on
    105  6158
    106  6158				  -	      ifconst	mk_48x2_1_on
    107  6158				  -	      include	"titlescreen/asm/48x2_1_kernel.asm"
    108  6158					      endif		;mk_48x2_1_on
    109  6158
    110  6158				  -	      ifconst	mk_48x2_2_on
    111  6158				  -	      include	"titlescreen/asm/48x2_2_kernel.asm"
    112  6158					      endif		;mk_48x2_2_on
    113  6158
    114  6158				  -	      ifconst	mk_48x2_3_on
    115  6158				  -	      include	"titlescreen/asm/48x2_3_kernel.asm"
    116  6158					      endif		;mk_48x2_3_on
    117  6158
    118  6158				  -	      ifconst	mk_48x2_4_on
    119  6158				  -	      include	"titlescreen/asm/48x2_4_kernel.asm"
    120  6158					      endif		;mk_48x2_4_on
    121  6158
    122  6158				  -	      ifconst	mk_48x2_5_on
    123  6158				  -	      include	"titlescreen/asm/48x2_5_kernel.asm"
    124  6158					      endif		;mk_48x2_5_on
    125  6158
    126  6158				  -	      ifconst	mk_48x2_6_on
    127  6158				  -	      include	"titlescreen/asm/48x2_6_kernel.asm"
    128  6158					      endif		;mk_48x2_6_on
    129  6158
    130  6158				  -	      ifconst	mk_48x2_7_on
    131  6158				  -	      include	"titlescreen/asm/48x2_7_kernel.asm"
    132  6158					      endif		;mk_48x2_7_on
    133  6158
    134  6158				  -	      ifconst	mk_48x2_8_on
    135  6158				  -	      include	"titlescreen/asm/48x2_8_kernel.asm"
    136  6158					      endif		;mk_48x2_8_on
    137  6158
    138  6158					      ifconst	mk_48x1_X_on
------- FILE titlescreen/asm/48x1_X_kernel.asm LEVEL 3 PASS 4
      0  6158					      include	"titlescreen/asm/48x1_X_kernel.asm"
      1  6158				   draw_bmp_48x1_X
      2  6158
      3  6158		       a9 03		      lda	#3
      4  615a		       85 04		      sta	NUSIZ0	;3=Player and Missile are drawn twice 32 clocks apart
      5  615c		       85 05		      sta	NUSIZ1	;3=Player and Missile are drawn twice 32 clocks apart
      6  615e
      7  615e		       ba		      tsx
      8  615f		       86 f6		      stx	stack1	;save the stack pointer
      9  6161
     10  6161		       20 e7 b0 	      jsr	position48
     11  6164
     12  6164		       a9 03		      lda	#3	;2
     13  6166		       85 25		      sta	VDELP0	;3
     14  6168		       85 26		      sta	VDELP1	;3
     15  616a
     16  616a		       a9 01		      lda	#1	;2
     17  616c		       85 0a		      sta	CTRLPF	;3
     18  616e
     19  616e							;enough cycles have passed for the HMOV, so we can clear HMCLR
     20  616e		       85 2b		      sta	HMCLR
     21  6170
     22  6170		       85 02		      sta	WSYNC
     23  6172
     24  6172		       e6 cb		      inc	temp1	;5
     25  6174		       c6 cb		      dec	temp1	;5
     26  6176		       e6 cb		      inc	temp1	;5
     27  6178		       c6 cb		      dec	temp1	;5
     28  617a		       e6 cb		      inc	temp1	;5
     29  617c		       c6 cb		      dec	temp1	;5
     30  617e		       e6 cb		      inc	temp1	;5
     31  6180		       c6 cb		      dec	temp1	;5
     32  6182		       e6 cb		      inc	temp1	;5
     33  6184		       c6 cb		      dec	temp1	;5
     34  6186
      0  6186					      sleep	5
      1  6186				   .CYCLES    SET	5
      2  6186
      3  6186				  -	      IF	.CYCLES < 2
      4  6186				  -	      ECHO	"MACRO ERROR: 'SLEEP': Duration must be > 1"
      5  6186				  -	      ERR
      6  6186					      ENDIF
      7  6186
      8  6186					      IF	.CYCLES & 1
      9  6186					      IFNCONST	NO_ILLEGAL_OPCODES
     10  6186		       04 00		      nop	0
     11  6188				  -	      ELSE
     12  6188				  -	      bit	VSYNC
     13  6188					      ENDIF
     14  6188				   .CYCLES    SET	.CYCLES - 3
     15  6188					      ENDIF
     16  6188
     17  6188					      REPEAT	.CYCLES / 2
     18  6188		       ea		      nop
     19  6189					      REPEND
     36  6189
     37  6189		       c8		      iny
     38  618a
     39  618a		       4c 8d b1 	      jmp	pf48x1_X_loop_entry
     40  618d
     41  618d				  -	      if	>. != >[.+$2a]
     42  618d				  -	      align	256
     43  618d					      endif
     44  618d
     45  618d				   pf48x1_X_loop_entry
     46  618d				   pf48x1_X_loop
     47  618d		       88		      dey		;2
     48  618e		       84 91		      sty	aux2	;3
     49  6190		       b1 ab		      lda	(scorepointers+0),y	;5
     50  6192		       85 1b		      sta	GRP0	;3
     51  6194
     52  6194		       b1 ad		      lda	(scorepointers+2),y	;5
     53  6196		       85 1c		      sta	GRP1	;3
     54  6198		       b1 af		      lda	(scorepointers+4),y	;5
     55  619a		       85 1b		      sta	GRP0	;3
     56  619c
      0  619c					      sleep	2	; I could make this indirect, if we want to burn more rom
      1  619c				   .CYCLES    SET	2
      2  619c
      3  619c				  -	      IF	.CYCLES < 2
      4  619c				  -	      ECHO	"MACRO ERROR: 'SLEEP': Duration must be > 1"
      5  619c				  -	      ERR
      6  619c					      ENDIF
      7  619c
      8  619c				  -	      IF	.CYCLES & 1
      9  619c				  -	      IFNCONST	NO_ILLEGAL_OPCODES
     10  619c				  -	      nop	0
     11  619c				  -	      ELSE
     12  619c				  -	      bit	VSYNC
     13  619c				  -	      ENDIF
     14  619c				  -.CYCLES    SET	.CYCLES - 3
     15  619c					      ENDIF
     16  619c
     17  619c					      REPEAT	.CYCLES / 2
     18  619c		       ea		      nop
     19  619d					      REPEND
     58  619d		       a5 c7		      lda	aux4	;3
     59  619f		       85 08		      sta	COLUPF	;3 this is a big fat waste...
     60  61a1
     61  61a1		       b3 b5		      lax	(scorepointers+10),y	;5
     62  61a3		       b1 b3		      lda	(scorepointers+8),y	;5
     63  61a5		       85 f7		      sta	stack2	;3
     64  61a7		       b1 b1		      lda	(scorepointers+6),y	;5
     65  61a9		       a4 f7		      ldy	stack2	;3
     66  61ab
     67  61ab		       85 1c		      sta	GRP1	;3
     68  61ad		       84 1b		      sty	GRP0	;3
     69  61af		       86 1c		      stx	GRP1	;3
     70  61b1		       84 1b		      sty	GRP0	;3
     71  61b3
     72  61b3		       a4 91		      ldy	aux2	;3
     73  61b5		       d0 d6		      bne	pf48x1_X_loop	;2/3
     74  61b7
     75  61b7				   pf48x1_X_codeend
     76  61b7							;echo "critical code in 48x1 is ",(pf48x1_X_codeend-pf48x1_X_loop), " bytes long."
     77  61b7
     78  61b7		       a9 00		      lda	#0
     79  61b9		       85 1b		      sta	GRP0
     80  61bb		       85 1c		      sta	GRP1
     81  61bd		       85 1b		      sta	GRP0
     82  61bf		       85 1c		      sta	GRP1
     83  61c1		       85 1f		      sta	ENABL
     84  61c3		       85 1d		      sta	ENAM0
     85  61c5		       85 25		      sta	VDELP0
     86  61c7		       85 26		      sta	VDELP1
     87  61c9		       85 0d		      sta	PF0
     88  61cb		       85 0e		      sta	PF1
     89  61cd		       85 0f		      sta	PF2
     90  61cf
     91  61cf		       a6 f6		      ldx	stack1	;restore the stack pointer
     92  61d1		       9a		      txs
     93  61d2		       60		      rts
------- FILE titlescreen/asm/titlescreen.asm
    140  61d3					      endif		;mk_48x1_X_on
    141  61d3
    142  61d3				  -	      ifconst	mk_48x2_X_on
    143  61d3				  -	      include	"titlescreen/asm/48x2_X_kernel.asm"
    144  61d3					      endif		;mk_48x2_X_on
    145  61d3
    146  61d3
    147  61d3					      ifconst	mk_96x2_1_on
------- FILE titlescreen/asm/96x2_1_kernel.asm LEVEL 3 PASS 4
      0  61d3					      include	"titlescreen/asm/96x2_1_kernel.asm"
      1  61d3				   draw_bmp_96x2_1
      2  61d3
      3  61d3				  -	      ifconst	bmp_96x2_1_index
      4  61d3				  -	      lda	#(bmp_96x2_1_height-1)
      5  61d3				  -	      sec
      6  61d3				  -	      sbc	bmp_96x2_1_index
      7  61d3				  -	      tay
      8  61d3				  -	      sbc	#bmp_96x2_1_window
      9  61d3				  -	      sta	temp1
     10  61d3					      else
     11  61d3		       a0 13		      ldy	#(bmp_96x2_1_window-1)
     12  61d5		       a9 ff		      lda	#255
     13  61d7		       85 cb		      sta	temp1
     14  61d9					      endif
     15  61d9
     16  61d9		       a9 03		      lda	#3
     17  61db		       85 04		      sta	NUSIZ0	;3=Player and Missile are drawn twice 32 clocks apart
     18  61dd		       85 05		      sta	NUSIZ1	;3=Player and Missile are drawn twice 32 clocks apart
     19  61df		       a9 00		      lda	#0
     20  61e1
     21  61e1		       b9 33 bc 	      lda	bmp_96x2_1_colors,y	;4
     22  61e4				  -	      ifconst	bmp_96x2_1_fade
     23  61e4				  -	      and	bmp_96x2_1_fade
     24  61e4					      endif
     25  61e4		       85 06		      sta	COLUP0	;3
     26  61e6		       85 07		      sta	COLUP1	;3
     27  61e8		       85 2b		      sta	HMCLR	;3
     28  61ea
     29  61ea		       a5 82		      lda	titleframe
     30  61ec		       29 01		      and	#1
     31  61ee		       f0 03		      beq	jmp_pf96x2_1_frame0
     32  61f0		       4c 9a b2 	      jmp	pf96x2_1_frame1
     33  61f3				   jmp_pf96x2_1_frame0
     34  61f3		       4c f6 b1 	      jmp	pf96x2_1_frame0
     35  61f6
     36  61f6				   pf96x2_1_frame0
     37  61f6							;postion P0 and P1
     38  61f6		       85 02		      sta	WSYNC
     39  61f8		       a9 e0		      lda	#%11100000
     40  61fa		       85 20		      sta	HMP0
     41  61fc		       a9 10		      lda	#%00010000
     42  61fe		       85 21		      sta	HMP1
     43  6200		       85 02		      sta	WSYNC
      0  6202					      sleep	28
      1  6202				   .CYCLES    SET	28
      2  6202
      3  6202				  -	      IF	.CYCLES < 2
      4  6202				  -	      ECHO	"MACRO ERROR: 'SLEEP': Duration must be > 1"
      5  6202				  -	      ERR
      6  6202					      ENDIF
      7  6202
      8  6202				  -	      IF	.CYCLES & 1
      9  6202				  -	      IFNCONST	NO_ILLEGAL_OPCODES
     10  6202				  -	      nop	0
     11  6202				  -	      ELSE
     12  6202				  -	      bit	VSYNC
     13  6202				  -	      ENDIF
     14  6202				  -.CYCLES    SET	.CYCLES - 3
     15  6202					      ENDIF
     16  6202
     17  6202					      REPEAT	.CYCLES / 2
     18  6202		       ea		      nop
     17  6202					      REPEND
     18  6203		       ea		      nop
     17  6203					      REPEND
     18  6204		       ea		      nop
     17  6204					      REPEND
     18  6205		       ea		      nop
     17  6205					      REPEND
     18  6206		       ea		      nop
     17  6206					      REPEND
     18  6207		       ea		      nop
     17  6207					      REPEND
     18  6208		       ea		      nop
     17  6208					      REPEND
     18  6209		       ea		      nop
     17  6209					      REPEND
     18  620a		       ea		      nop
     17  620a					      REPEND
     18  620b		       ea		      nop
     17  620b					      REPEND
     18  620c		       ea		      nop
     17  620c					      REPEND
     18  620d		       ea		      nop
     17  620d					      REPEND
     18  620e		       ea		      nop
     17  620e					      REPEND
     18  620f		       ea		      nop
     19  6210					      REPEND
     45  6210		       85 10		      sta	RESP0
      0  6212					      sleep	14
      1  6212				   .CYCLES    SET	14
      2  6212
      3  6212				  -	      IF	.CYCLES < 2
      4  6212				  -	      ECHO	"MACRO ERROR: 'SLEEP': Duration must be > 1"
      5  6212				  -	      ERR
      6  6212					      ENDIF
      7  6212
      8  6212				  -	      IF	.CYCLES & 1
      9  6212				  -	      IFNCONST	NO_ILLEGAL_OPCODES
     10  6212				  -	      nop	0
     11  6212				  -	      ELSE
     12  6212				  -	      bit	VSYNC
     13  6212				  -	      ENDIF
     14  6212				  -.CYCLES    SET	.CYCLES - 3
     15  6212					      ENDIF
     16  6212
     17  6212					      REPEAT	.CYCLES / 2
     18  6212		       ea		      nop
     17  6212					      REPEND
     18  6213		       ea		      nop
     17  6213					      REPEND
     18  6214		       ea		      nop
     17  6214					      REPEND
     18  6215		       ea		      nop
     17  6215					      REPEND
     18  6216		       ea		      nop
     17  6216					      REPEND
     18  6217		       ea		      nop
     17  6217					      REPEND
     18  6218		       ea		      nop
     19  6219					      REPEND
     47  6219		       85 11		      sta	RESP1
     48  621b		       85 02		      sta	WSYNC
     49  621d		       85 2a		      sta	HMOVE
     50  621f
     51  621f		       85 02		      sta	WSYNC
     52  6221		       85 2b		      sta	HMCLR
     53  6223		       85 02		      sta	WSYNC
     54  6225
      0  6225					      sleep	4
      1  6225				   .CYCLES    SET	4
      2  6225
      3  6225				  -	      IF	.CYCLES < 2
      4  6225				  -	      ECHO	"MACRO ERROR: 'SLEEP': Duration must be > 1"
      5  6225				  -	      ERR
      6  6225					      ENDIF
      7  6225
      8  6225				  -	      IF	.CYCLES & 1
      9  6225				  -	      IFNCONST	NO_ILLEGAL_OPCODES
     10  6225				  -	      nop	0
     11  6225				  -	      ELSE
     12  6225				  -	      bit	VSYNC
     13  6225				  -	      ENDIF
     14  6225				  -.CYCLES    SET	.CYCLES - 3
     15  6225					      ENDIF
     16  6225
     17  6225					      REPEAT	.CYCLES / 2
     18  6225		       ea		      nop
     17  6225					      REPEND
     18  6226		       ea		      nop
     19  6227					      REPEND
     56  6227		       4c 2a b2 	      jmp	pfline_96x2_1_frame0
     57  622a							;align so our branch doesn't unexpectedly cross a page...
     58  622a				  -	      if	>. != >[.+$70]
     59  622a				  -	      align	256
     60  622a					      endif
     61  622a
     62  622a				   pfline_96x2_1_frame0
     63  622a		       a9 80		      lda	#$80	;2
     64  622c		       85 20		      sta	HMP0	;3
     65  622e		       85 21		      sta	HMP1	;3
     66  6230
     67  6230		       b9 bf bc 	      lda	bmp_96x2_1_06,y	;4
     68  6233		       85 1c		      sta	GRP1	;3
     69  6235
     70  6235		       b9 47 bc 	      lda	bmp_96x2_1_00,y
     71  6238		       85 1b		      sta	GRP0
     72  623a		       b9 6f bc 	      lda	bmp_96x2_1_02,y
     73  623d		       85 1b		      sta	GRP0
     74  623f		       b9 97 bc 	      lda	bmp_96x2_1_04,y
     75  6242		       85 1b		      sta	GRP0
     76  6244
      0  6244					      sleep	2
      1  6244				   .CYCLES    SET	2
      2  6244
      3  6244				  -	      IF	.CYCLES < 2
      4  6244				  -	      ECHO	"MACRO ERROR: 'SLEEP': Duration must be > 1"
      5  6244				  -	      ERR
      6  6244					      ENDIF
      7  6244
      8  6244				  -	      IF	.CYCLES & 1
      9  6244				  -	      IFNCONST	NO_ILLEGAL_OPCODES
     10  6244				  -	      nop	0
     11  6244				  -	      ELSE
     12  6244				  -	      bit	VSYNC
     13  6244				  -	      ENDIF
     14  6244				  -.CYCLES    SET	.CYCLES - 3
     15  6244					      ENDIF
     16  6244
     17  6244					      REPEAT	.CYCLES / 2
     18  6244		       ea		      nop
     19  6245					      REPEND
     78  6245
     79  6245		       b9 e7 bc 	      lda	bmp_96x2_1_08,y
     80  6248		       85 1c		      sta	GRP1
     81  624a		       b9 14 bd 	      lda	bmp_96x2_1_10,y
     82  624d		       85 1c		      sta	GRP1
     83  624f
     84  624f		       b9 5b bc 	      lda	bmp_96x2_1_01,y
     85  6252		       85 1b		      sta	GRP0
     86  6254
      0  6254					      sleep	8
      1  6254				   .CYCLES    SET	8
      2  6254
      3  6254				  -	      IF	.CYCLES < 2
      4  6254				  -	      ECHO	"MACRO ERROR: 'SLEEP': Duration must be > 1"
      5  6254				  -	      ERR
      6  6254					      ENDIF
      7  6254
      8  6254				  -	      IF	.CYCLES & 1
      9  6254				  -	      IFNCONST	NO_ILLEGAL_OPCODES
     10  6254				  -	      nop	0
     11  6254				  -	      ELSE
     12  6254				  -	      bit	VSYNC
     13  6254				  -	      ENDIF
     14  6254				  -.CYCLES    SET	.CYCLES - 3
     15  6254					      ENDIF
     16  6254
     17  6254					      REPEAT	.CYCLES / 2
     18  6254		       ea		      nop
     17  6254					      REPEND
     18  6255		       ea		      nop
     17  6255					      REPEND
     18  6256		       ea		      nop
     17  6256					      REPEND
     18  6257		       ea		      nop
     19  6258					      REPEND
     88  6258
     89  6258							;sta WSYNC	;=0
     90  6258		       85 2a		      sta	HMOVE	;3 - NORMAL HMOVE
     91  625a
     92  625a		       b9 32 bc 	      lda	bmp_96x2_1_colors-1,y	;4 - get the title color early and store it for later
     93  625d				  -	      ifconst	bmp_96x2_1_fade
     94  625d				  -	      and	bmp_96x2_1_fade
     95  625d					      else
      0  625d					      sleep	3
      1  625d				   .CYCLES    SET	3
      2  625d
      3  625d				  -	      IF	.CYCLES < 2
      4  625d				  -	      ECHO	"MACRO ERROR: 'SLEEP': Duration must be > 1"
      5  625d				  -	      ERR
      6  625d					      ENDIF
      7  625d
      8  625d					      IF	.CYCLES & 1
      9  625d					      IFNCONST	NO_ILLEGAL_OPCODES
     10  625d		       04 00		      nop	0
     11  625f				  -	      ELSE
     12  625f				  -	      bit	VSYNC
     13  625f					      ENDIF
     14  625f				   .CYCLES    SET	.CYCLES - 3
     15  625f					      ENDIF
     16  625f
     17  625f				  -	      REPEAT	.CYCLES / 2
     18  625f				  -	      nop
     19  625f					      REPEND
     97  625f					      endif
     98  625f		       aa		      tax
     99  6260
    100  6260		       a9 00		      lda	#0	;2
    101  6262		       85 20		      sta	HMP0	;3
    102  6264		       85 21		      sta	HMP1	;3
    103  6266
      0  6266					      sleep	7
      1  6266				   .CYCLES    SET	7
      2  6266
      3  6266				  -	      IF	.CYCLES < 2
      4  6266				  -	      ECHO	"MACRO ERROR: 'SLEEP': Duration must be > 1"
      5  6266				  -	      ERR
      6  6266					      ENDIF
      7  6266
      8  6266					      IF	.CYCLES & 1
      9  6266					      IFNCONST	NO_ILLEGAL_OPCODES
     10  6266		       04 00		      nop	0
     11  6268				  -	      ELSE
     12  6268				  -	      bit	VSYNC
     13  6268					      ENDIF
     14  6268				   .CYCLES    SET	.CYCLES - 3
     15  6268					      ENDIF
     16  6268
     17  6268					      REPEAT	.CYCLES / 2
     18  6268		       ea		      nop
     17  6268					      REPEND
     18  6269		       ea		      nop
     19  626a					      REPEND
    105  626a
    106  626a		       b9 d3 bc 	      lda	bmp_96x2_1_07,y
    107  626d		       85 1c		      sta	GRP1
    108  626f
    109  626f		       b9 83 bc 	      lda	bmp_96x2_1_03,y	;5
    110  6272		       85 1b		      sta	GRP0	;3 =  8
    111  6274		       b9 ab bc 	      lda	bmp_96x2_1_05,y	;5
    112  6277		       85 1b		      sta	GRP0	;3 =  8
    113  6279
      0  6279					      sleep	2
      1  6279				   .CYCLES    SET	2
      2  6279
      3  6279				  -	      IF	.CYCLES < 2
      4  6279				  -	      ECHO	"MACRO ERROR: 'SLEEP': Duration must be > 1"
      5  6279				  -	      ERR
      6  6279					      ENDIF
      7  6279
      8  6279				  -	      IF	.CYCLES & 1
      9  6279				  -	      IFNCONST	NO_ILLEGAL_OPCODES
     10  6279				  -	      nop	0
     11  6279				  -	      ELSE
     12  6279				  -	      bit	VSYNC
     13  6279				  -	      ENDIF
     14  6279				  -.CYCLES    SET	.CYCLES - 3
     15  6279					      ENDIF
     16  6279
     17  6279					      REPEAT	.CYCLES / 2
     18  6279		       ea		      nop
     19  627a					      REPEND
    115  627a
    116  627a		       b9 00 bd 	      lda	bmp_96x2_1_09,y	;5
    117  627d		       85 1c		      sta	GRP1	;3 =  8
    118  627f		       b9 28 bd 	      lda	bmp_96x2_1_11,y	;5
    119  6282		       85 1c		      sta	GRP1	;3 =  8
    120  6284
      0  6284					      sleep	2
      1  6284				   .CYCLES    SET	2
      2  6284
      3  6284				  -	      IF	.CYCLES < 2
      4  6284				  -	      ECHO	"MACRO ERROR: 'SLEEP': Duration must be > 1"
      5  6284				  -	      ERR
      6  6284					      ENDIF
      7  6284
      8  6284				  -	      IF	.CYCLES & 1
      9  6284				  -	      IFNCONST	NO_ILLEGAL_OPCODES
     10  6284				  -	      nop	0
     11  6284				  -	      ELSE
     12  6284				  -	      bit	VSYNC
     13  6284				  -	      ENDIF
     14  6284				  -.CYCLES    SET	.CYCLES - 3
     15  6284					      ENDIF
     16  6284
     17  6284					      REPEAT	.CYCLES / 2
     18  6284		       ea		      nop
     19  6285					      REPEND
    122  6285		       86 07		      stx	COLUP1
    123  6287		       86 06		      stx	COLUP0
    124  6289
    125  6289		       85 2a		      sta	HMOVE	;3 - CYCLE 74 HMOVE
      0  628b					      sleep	2
      1  628b				   .CYCLES    SET	2
      2  628b
      3  628b				  -	      IF	.CYCLES < 2
      4  628b				  -	      ECHO	"MACRO ERROR: 'SLEEP': Duration must be > 1"
      5  628b				  -	      ERR
      6  628b					      ENDIF
      7  628b
      8  628b				  -	      IF	.CYCLES & 1
      9  628b				  -	      IFNCONST	NO_ILLEGAL_OPCODES
     10  628b				  -	      nop	0
     11  628b				  -	      ELSE
     12  628b				  -	      bit	VSYNC
     13  628b				  -	      ENDIF
     14  628b				  -.CYCLES    SET	.CYCLES - 3
     15  628b					      ENDIF
     16  628b
     17  628b					      REPEAT	.CYCLES / 2
     18  628b		       ea		      nop
     19  628c					      REPEND
    127  628c		       88		      dey
    128  628d
    129  628d		       c4 cb		      cpy	temp1	;3
    130  628f		       d0 99		      bne	pfline_96x2_1_frame0	;2/3
    131  6291
    132  6291				   pf96x2_1_0codeend
    133  6291							;echo "critical code #1 in 96x2_1 is ",(pf96x2_1_0codeend-pfline_96x2_1_frame0), " bytes long."
    134  6291
    135  6291		       a9 00		      lda	#0
    136  6293		       85 1b		      sta	GRP0
    137  6295		       85 1c		      sta	GRP1
    138  6297		       4c 6e b3 	      jmp	pfdone_96x2_1
    139  629a
    140  629a
    141  629a				   pf96x2_1_frame1
    142  629a
    143  629a							;postion P0 and P1
    144  629a		       85 02		      sta	WSYNC
    145  629c		       a9 20		      lda	#%00100000
    146  629e		       85 20		      sta	HMP0
    147  62a0		       a9 00		      lda	#0
    148  62a2		       a9 f0		      lda	#%11110000
    149  62a4		       85 21		      sta	HMP1
    150  62a6		       85 02		      sta	WSYNC
      0  62a8					      sleep	32
      1  62a8				   .CYCLES    SET	32
      2  62a8
      3  62a8				  -	      IF	.CYCLES < 2
      4  62a8				  -	      ECHO	"MACRO ERROR: 'SLEEP': Duration must be > 1"
      5  62a8				  -	      ERR
      6  62a8					      ENDIF
      7  62a8
      8  62a8				  -	      IF	.CYCLES & 1
      9  62a8				  -	      IFNCONST	NO_ILLEGAL_OPCODES
     10  62a8				  -	      nop	0
     11  62a8				  -	      ELSE
     12  62a8				  -	      bit	VSYNC
     13  62a8				  -	      ENDIF
     14  62a8				  -.CYCLES    SET	.CYCLES - 3
     15  62a8					      ENDIF
     16  62a8
     17  62a8					      REPEAT	.CYCLES / 2
     18  62a8		       ea		      nop
     17  62a8					      REPEND
     18  62a9		       ea		      nop
     17  62a9					      REPEND
     18  62aa		       ea		      nop
     17  62aa					      REPEND
     18  62ab		       ea		      nop
     17  62ab					      REPEND
     18  62ac		       ea		      nop
     17  62ac					      REPEND
     18  62ad		       ea		      nop
     17  62ad					      REPEND
     18  62ae		       ea		      nop
     17  62ae					      REPEND
     18  62af		       ea		      nop
     17  62af					      REPEND
     18  62b0		       ea		      nop
     17  62b0					      REPEND
     18  62b1		       ea		      nop
     17  62b1					      REPEND
     18  62b2		       ea		      nop
     17  62b2					      REPEND
     18  62b3		       ea		      nop
     17  62b3					      REPEND
     18  62b4		       ea		      nop
     17  62b4					      REPEND
     18  62b5		       ea		      nop
     17  62b5					      REPEND
     18  62b6		       ea		      nop
     17  62b6					      REPEND
     18  62b7		       ea		      nop
     19  62b8					      REPEND
    152  62b8		       85 10		      sta	RESP0
      0  62ba					      sleep	12
      1  62ba				   .CYCLES    SET	12
      2  62ba
      3  62ba				  -	      IF	.CYCLES < 2
      4  62ba				  -	      ECHO	"MACRO ERROR: 'SLEEP': Duration must be > 1"
      5  62ba				  -	      ERR
      6  62ba					      ENDIF
      7  62ba
      8  62ba				  -	      IF	.CYCLES & 1
      9  62ba				  -	      IFNCONST	NO_ILLEGAL_OPCODES
     10  62ba				  -	      nop	0
     11  62ba				  -	      ELSE
     12  62ba				  -	      bit	VSYNC
     13  62ba				  -	      ENDIF
     14  62ba				  -.CYCLES    SET	.CYCLES - 3
     15  62ba					      ENDIF
     16  62ba
     17  62ba					      REPEAT	.CYCLES / 2
     18  62ba		       ea		      nop
     17  62ba					      REPEND
     18  62bb		       ea		      nop
     17  62bb					      REPEND
     18  62bc		       ea		      nop
     17  62bc					      REPEND
     18  62bd		       ea		      nop
     17  62bd					      REPEND
     18  62be		       ea		      nop
     17  62be					      REPEND
     18  62bf		       ea		      nop
     19  62c0					      REPEND
    154  62c0		       85 11		      sta	RESP1
    155  62c2		       85 02		      sta	WSYNC
    156  62c4		       85 2a		      sta	HMOVE
    157  62c6
    158  62c6		       85 02		      sta	WSYNC
    159  62c8		       85 2b		      sta	HMCLR
    160  62ca
    161  62ca
    162  62ca
    163  62ca		       85 02		      sta	WSYNC
      0  62cc					      sleep	3
      1  62cc				   .CYCLES    SET	3
      2  62cc
      3  62cc				  -	      IF	.CYCLES < 2
      4  62cc				  -	      ECHO	"MACRO ERROR: 'SLEEP': Duration must be > 1"
      5  62cc				  -	      ERR
      6  62cc					      ENDIF
      7  62cc
      8  62cc					      IF	.CYCLES & 1
      9  62cc					      IFNCONST	NO_ILLEGAL_OPCODES
     10  62cc		       04 00		      nop	0
     11  62ce				  -	      ELSE
     12  62ce				  -	      bit	VSYNC
     13  62ce					      ENDIF
     14  62ce				   .CYCLES    SET	.CYCLES - 3
     15  62ce					      ENDIF
     16  62ce
     17  62ce				  -	      REPEAT	.CYCLES / 2
     18  62ce				  -	      nop
     19  62ce					      REPEND
    165  62ce		       4c 00 b3 	      jmp	pfline_96x2_1_frame1
    166  62d1
    167  62d1							;align so our branch doesn't unexpectedly cross a page...
    168  62d1					      if	>. != >[.+$70]
    169  6300		       00 00 00 00*	      align	256
    170  6300					      endif
    171  6300
    172  6300				   pfline_96x2_1_frame1
    173  6300
    174  6300		       85 2a		      sta	HMOVE
    175  6302
    176  6302		       b9 d3 bc 	      lda	bmp_96x2_1_07,y	;4
    177  6305		       85 1c		      sta	GRP1	;3
    178  6307
    179  6307		       a9 00		      lda	#$0	;2
    180  6309		       85 20		      sta	HMP0	;3
    181  630b		       85 21		      sta	HMP1	;3
    182  630d
    183  630d		       b9 5b bc 	      lda	bmp_96x2_1_01,y
    184  6310		       8d 1b 00 	      sta.w	GRP0
    185  6313		       b9 83 bc 	      lda	bmp_96x2_1_03,y
    186  6316		       85 1b		      sta	GRP0
    187  6318		       b9 ab bc 	      lda	bmp_96x2_1_05,y
    188  631b		       85 1b		      sta	GRP0
    189  631d
      0  631d					      sleep	2
      1  631d				   .CYCLES    SET	2
      2  631d
      3  631d				  -	      IF	.CYCLES < 2
      4  631d				  -	      ECHO	"MACRO ERROR: 'SLEEP': Duration must be > 1"
      5  631d				  -	      ERR
      6  631d					      ENDIF
      7  631d
      8  631d				  -	      IF	.CYCLES & 1
      9  631d				  -	      IFNCONST	NO_ILLEGAL_OPCODES
     10  631d				  -	      nop	0
     11  631d				  -	      ELSE
     12  631d				  -	      bit	VSYNC
     13  631d				  -	      ENDIF
     14  631d				  -.CYCLES    SET	.CYCLES - 3
     15  631d					      ENDIF
     16  631d
     17  631d					      REPEAT	.CYCLES / 2
     18  631d		       ea		      nop
     19  631e					      REPEND
    191  631e
    192  631e		       b9 00 bd 	      lda	bmp_96x2_1_09,y
    193  6321		       85 1c		      sta	GRP1
    194  6323		       b9 28 bd 	      lda	bmp_96x2_1_11,y
    195  6326		       85 1c		      sta	GRP1
    196  6328
    197  6328		       b9 47 bc 	      lda	bmp_96x2_1_00,y
    198  632b		       85 1b		      sta	GRP0
    199  632d
    200  632d		       8d 2a 00 	      sta.w	HMOVE	;3 - cycle 74
    201  6330
    202  6330							;sta WSYNC	;=0 -----------------------------------------
    203  6330
    204  6330		       b9 bf bc 	      lda	bmp_96x2_1_06,y
    205  6333		       85 1c		      sta	GRP1
    206  6335
      0  6335					      sleep	8
      1  6335				   .CYCLES    SET	8
      2  6335
      3  6335				  -	      IF	.CYCLES < 2
      4  6335				  -	      ECHO	"MACRO ERROR: 'SLEEP': Duration must be > 1"
      5  6335				  -	      ERR
      6  6335					      ENDIF
      7  6335
      8  6335				  -	      IF	.CYCLES & 1
      9  6335				  -	      IFNCONST	NO_ILLEGAL_OPCODES
     10  6335				  -	      nop	0
     11  6335				  -	      ELSE
     12  6335				  -	      bit	VSYNC
     13  6335				  -	      ENDIF
     14  6335				  -.CYCLES    SET	.CYCLES - 3
     15  6335					      ENDIF
     16  6335
     17  6335					      REPEAT	.CYCLES / 2
     18  6335		       ea		      nop
     17  6335					      REPEND
     18  6336		       ea		      nop
     17  6336					      REPEND
     18  6337		       ea		      nop
     17  6337					      REPEND
     18  6338		       ea		      nop
     19  6339					      REPEND
    208  6339
    209  6339		       b9 32 bc 	      lda	bmp_96x2_1_colors-1,y	;get the title color early and store it for later
    210  633c		       aa		      tax		;2
    211  633d
      0  633d					      sleep	3
      1  633d				   .CYCLES    SET	3
      2  633d
      3  633d				  -	      IF	.CYCLES < 2
      4  633d				  -	      ECHO	"MACRO ERROR: 'SLEEP': Duration must be > 1"
      5  633d				  -	      ERR
      6  633d					      ENDIF
      7  633d
      8  633d					      IF	.CYCLES & 1
      9  633d					      IFNCONST	NO_ILLEGAL_OPCODES
     10  633d		       04 00		      nop	0
     11  633f				  -	      ELSE
     12  633f				  -	      bit	VSYNC
     13  633f					      ENDIF
     14  633f				   .CYCLES    SET	.CYCLES - 3
     15  633f					      ENDIF
     16  633f
     17  633f				  -	      REPEAT	.CYCLES / 2
     18  633f				  -	      nop
     19  633f					      REPEND
    213  633f
    214  633f		       a9 80		      lda	#$80	;2
    215  6341		       85 20		      sta	HMP0	;3
    216  6343		       85 21		      sta	HMP1	;3
    217  6345
    218  6345
    219  6345		       b9 6f bc 	      lda	bmp_96x2_1_02,y	;5
    220  6348		       85 1b		      sta	GRP0	;3 =  8
    221  634a
    222  634a		       b9 97 bc 	      lda	bmp_96x2_1_04,y	;5
    223  634d		       85 1b		      sta	GRP0	;3 =  8
    224  634f
      0  634f					      sleep	2
      1  634f				   .CYCLES    SET	2
      2  634f
      3  634f				  -	      IF	.CYCLES < 2
      4  634f				  -	      ECHO	"MACRO ERROR: 'SLEEP': Duration must be > 1"
      5  634f				  -	      ERR
      6  634f					      ENDIF
      7  634f
      8  634f				  -	      IF	.CYCLES & 1
      9  634f				  -	      IFNCONST	NO_ILLEGAL_OPCODES
     10  634f				  -	      nop	0
     11  634f				  -	      ELSE
     12  634f				  -	      bit	VSYNC
     13  634f				  -	      ENDIF
     14  634f				  -.CYCLES    SET	.CYCLES - 3
     15  634f					      ENDIF
     16  634f
     17  634f					      REPEAT	.CYCLES / 2
     18  634f		       ea		      nop
     19  6350					      REPEND
    226  6350
    227  6350		       b9 e7 bc 	      lda	bmp_96x2_1_08,y	;5
    228  6353		       85 1c		      sta	GRP1	;3 =  8
    229  6355
    230  6355		       b9 14 bd 	      lda	bmp_96x2_1_10,y	;5
    231  6358		       85 1c		      sta	GRP1	;3 =  8
    232  635a
      0  635a					      sleep	4
      1  635a				   .CYCLES    SET	4
      2  635a
      3  635a				  -	      IF	.CYCLES < 2
      4  635a				  -	      ECHO	"MACRO ERROR: 'SLEEP': Duration must be > 1"
      5  635a				  -	      ERR
      6  635a					      ENDIF
      7  635a
      8  635a				  -	      IF	.CYCLES & 1
      9  635a				  -	      IFNCONST	NO_ILLEGAL_OPCODES
     10  635a				  -	      nop	0
     11  635a				  -	      ELSE
     12  635a				  -	      bit	VSYNC
     13  635a				  -	      ENDIF
     14  635a				  -.CYCLES    SET	.CYCLES - 3
     15  635a					      ENDIF
     16  635a
     17  635a					      REPEAT	.CYCLES / 2
     18  635a		       ea		      nop
     17  635a					      REPEND
     18  635b		       ea		      nop
     19  635c					      REPEND
    234  635c
    235  635c		       88		      dey
    236  635d
    237  635d		       8a		      txa
    238  635e				  -	      ifconst	bmp_96x2_1_fade
    239  635e				  -	      and	bmp_96x2_1_fade
    240  635e					      else
      0  635e					      sleep	3
      1  635e				   .CYCLES    SET	3
      2  635e
      3  635e				  -	      IF	.CYCLES < 2
      4  635e				  -	      ECHO	"MACRO ERROR: 'SLEEP': Duration must be > 1"
      5  635e				  -	      ERR
      6  635e					      ENDIF
      7  635e
      8  635e					      IF	.CYCLES & 1
      9  635e					      IFNCONST	NO_ILLEGAL_OPCODES
     10  635e		       04 00		      nop	0
     11  6360				  -	      ELSE
     12  6360				  -	      bit	VSYNC
     13  6360					      ENDIF
     14  6360				   .CYCLES    SET	.CYCLES - 3
     15  6360					      ENDIF
     16  6360
     17  6360				  -	      REPEAT	.CYCLES / 2
     18  6360				  -	      nop
     19  6360					      REPEND
    242  6360					      endif
    243  6360		       85 07		      sta	COLUP1	;3
    244  6362		       85 06		      sta	COLUP0	;3
    245  6364
    246  6364		       c4 cb		      cpy	temp1	;2
    247  6366		       d0 98		      bne	pfline_96x2_1_frame1	;2/3
    248  6368
    249  6368				   pf96x2_1_1codeend
    250  6368							;echo "critical code #2 in 96x2_1 is ",(pf96x2_1_1codeend-pfline_96x2_1_frame1), " bytes long."
    251  6368
    252  6368		       a9 00		      lda	#0
    253  636a		       85 1b		      sta	GRP0
    254  636c		       85 1c		      sta	GRP1
    255  636e
    256  636e				   pfdone_96x2_1
    257  636e		       85 02		      sta	WSYNC	; debug
    258  6370
    259  6370		       60		      rts
------- FILE titlescreen/asm/titlescreen.asm
    149  6371					      endif		;mk_96x2_1_on
    150  6371
    151  6371					      ifconst	mk_96x2_2_on
------- FILE titlescreen/asm/96x2_2_kernel.asm LEVEL 3 PASS 4
      0  6371					      include	"titlescreen/asm/96x2_2_kernel.asm"
      1  6371				   draw_bmp_96x2_2
      2  6371
      3  6371				  -	      ifconst	bmp_96x2_2_index
      4  6371				  -	      lda	#(bmp_96x2_2_height-1)
      5  6371				  -	      sec
      6  6371				  -	      sbc	bmp_96x2_2_index
      7  6371				  -	      tay
      8  6371				  -	      sbc	#bmp_96x2_2_window
      9  6371				  -	      sta	temp1
     10  6371					      else
     11  6371		       a0 04		      ldy	#(bmp_96x2_2_window-1)
     12  6373		       a9 ff		      lda	#255
     13  6375		       85 cb		      sta	temp1
     14  6377					      endif
     15  6377
     16  6377		       a9 03		      lda	#3
     17  6379		       85 04		      sta	NUSIZ0	;3=Player and Missile are drawn twice 32 clocks apart
     18  637b		       85 05		      sta	NUSIZ1	;3=Player and Missile are drawn twice 32 clocks apart
     19  637d		       a9 00		      lda	#0
     20  637f
     21  637f		       b9 3d bd 	      lda	bmp_96x2_2_colors,y	;4
     22  6382				  -	      ifconst	bmp_96x2_2_fade
     23  6382				  -	      and	bmp_96x2_2_fade
     24  6382					      endif
     25  6382		       85 06		      sta	COLUP0	;3
     26  6384		       85 07		      sta	COLUP1	;3
     27  6386		       85 2b		      sta	HMCLR	;3
     28  6388
     29  6388		       a5 82		      lda	titleframe
     30  638a		       29 01		      and	#1
     31  638c		       f0 03		      beq	jmp_pf96x2_2_frame0
     32  638e		       4c 70 b4 	      jmp	pf96x2_2_frame1
     33  6391				   jmp_pf96x2_2_frame0
     34  6391		       4c 94 b3 	      jmp	pf96x2_2_frame0
     35  6394
     36  6394				   pf96x2_2_frame0
     37  6394							;postion P0 and P1
     38  6394		       85 02		      sta	WSYNC
     39  6396		       a9 e0		      lda	#%11100000
     40  6398		       85 20		      sta	HMP0
     41  639a		       a9 10		      lda	#%00010000
     42  639c		       85 21		      sta	HMP1
     43  639e		       85 02		      sta	WSYNC
      0  63a0					      sleep	28
      1  63a0				   .CYCLES    SET	28
      2  63a0
      3  63a0				  -	      IF	.CYCLES < 2
      4  63a0				  -	      ECHO	"MACRO ERROR: 'SLEEP': Duration must be > 1"
      5  63a0				  -	      ERR
      6  63a0					      ENDIF
      7  63a0
      8  63a0				  -	      IF	.CYCLES & 1
      9  63a0				  -	      IFNCONST	NO_ILLEGAL_OPCODES
     10  63a0				  -	      nop	0
     11  63a0				  -	      ELSE
     12  63a0				  -	      bit	VSYNC
     13  63a0				  -	      ENDIF
     14  63a0				  -.CYCLES    SET	.CYCLES - 3
     15  63a0					      ENDIF
     16  63a0
     17  63a0					      REPEAT	.CYCLES / 2
     18  63a0		       ea		      nop
     17  63a0					      REPEND
     18  63a1		       ea		      nop
     17  63a1					      REPEND
     18  63a2		       ea		      nop
     17  63a2					      REPEND
     18  63a3		       ea		      nop
     17  63a3					      REPEND
     18  63a4		       ea		      nop
     17  63a4					      REPEND
     18  63a5		       ea		      nop
     17  63a5					      REPEND
     18  63a6		       ea		      nop
     17  63a6					      REPEND
     18  63a7		       ea		      nop
     17  63a7					      REPEND
     18  63a8		       ea		      nop
     17  63a8					      REPEND
     18  63a9		       ea		      nop
     17  63a9					      REPEND
     18  63aa		       ea		      nop
     17  63aa					      REPEND
     18  63ab		       ea		      nop
     17  63ab					      REPEND
     18  63ac		       ea		      nop
     17  63ac					      REPEND
     18  63ad		       ea		      nop
     19  63ae					      REPEND
     45  63ae		       85 10		      sta	RESP0
      0  63b0					      sleep	14
      1  63b0				   .CYCLES    SET	14
      2  63b0
      3  63b0				  -	      IF	.CYCLES < 2
      4  63b0				  -	      ECHO	"MACRO ERROR: 'SLEEP': Duration must be > 1"
      5  63b0				  -	      ERR
      6  63b0					      ENDIF
      7  63b0
      8  63b0				  -	      IF	.CYCLES & 1
      9  63b0				  -	      IFNCONST	NO_ILLEGAL_OPCODES
     10  63b0				  -	      nop	0
     11  63b0				  -	      ELSE
     12  63b0				  -	      bit	VSYNC
     13  63b0				  -	      ENDIF
     14  63b0				  -.CYCLES    SET	.CYCLES - 3
     15  63b0					      ENDIF
     16  63b0
     17  63b0					      REPEAT	.CYCLES / 2
     18  63b0		       ea		      nop
     17  63b0					      REPEND
     18  63b1		       ea		      nop
     17  63b1					      REPEND
     18  63b2		       ea		      nop
     17  63b2					      REPEND
     18  63b3		       ea		      nop
     17  63b3					      REPEND
     18  63b4		       ea		      nop
     17  63b4					      REPEND
     18  63b5		       ea		      nop
     17  63b5					      REPEND
     18  63b6		       ea		      nop
     19  63b7					      REPEND
     47  63b7		       85 11		      sta	RESP1
     48  63b9		       85 02		      sta	WSYNC
     49  63bb		       85 2a		      sta	HMOVE
     50  63bd
     51  63bd		       85 02		      sta	WSYNC
     52  63bf		       85 2b		      sta	HMCLR
     53  63c1		       85 02		      sta	WSYNC
     54  63c3
      0  63c3					      sleep	4
      1  63c3				   .CYCLES    SET	4
      2  63c3
      3  63c3				  -	      IF	.CYCLES < 2
      4  63c3				  -	      ECHO	"MACRO ERROR: 'SLEEP': Duration must be > 1"
      5  63c3				  -	      ERR
      6  63c3					      ENDIF
      7  63c3
      8  63c3				  -	      IF	.CYCLES & 1
      9  63c3				  -	      IFNCONST	NO_ILLEGAL_OPCODES
     10  63c3				  -	      nop	0
     11  63c3				  -	      ELSE
     12  63c3				  -	      bit	VSYNC
     13  63c3				  -	      ENDIF
     14  63c3				  -.CYCLES    SET	.CYCLES - 3
     15  63c3					      ENDIF
     16  63c3
     17  63c3					      REPEAT	.CYCLES / 2
     18  63c3		       ea		      nop
     17  63c3					      REPEND
     18  63c4		       ea		      nop
     19  63c5					      REPEND
     56  63c5		       4c 00 b4 	      jmp	pfline_96x2_2_frame0
     57  63c8							;align so our branch doesn't unexpectedly cross a page...
     58  63c8					      if	>. != >[.+$70]
     59  6400		       00 00 00 00*	      align	256
     60  6400					      endif
     61  6400
     62  6400				   pfline_96x2_2_frame0
     63  6400		       a9 80		      lda	#$80	;2
     64  6402		       85 20		      sta	HMP0	;3
     65  6404		       85 21		      sta	HMP1	;3
     66  6406
     67  6406		       b9 60 bd 	      lda	bmp_96x2_2_06,y	;4
     68  6409		       85 1c		      sta	GRP1	;3
     69  640b
     70  640b		       b9 42 bd 	      lda	bmp_96x2_2_00,y
     71  640e		       85 1b		      sta	GRP0
     72  6410		       b9 4c bd 	      lda	bmp_96x2_2_02,y
     73  6413		       85 1b		      sta	GRP0
     74  6415		       b9 56 bd 	      lda	bmp_96x2_2_04,y
     75  6418		       85 1b		      sta	GRP0
     76  641a
      0  641a					      sleep	2
      1  641a				   .CYCLES    SET	2
      2  641a
      3  641a				  -	      IF	.CYCLES < 2
      4  641a				  -	      ECHO	"MACRO ERROR: 'SLEEP': Duration must be > 1"
      5  641a				  -	      ERR
      6  641a					      ENDIF
      7  641a
      8  641a				  -	      IF	.CYCLES & 1
      9  641a				  -	      IFNCONST	NO_ILLEGAL_OPCODES
     10  641a				  -	      nop	0
     11  641a				  -	      ELSE
     12  641a				  -	      bit	VSYNC
     13  641a				  -	      ENDIF
     14  641a				  -.CYCLES    SET	.CYCLES - 3
     15  641a					      ENDIF
     16  641a
     17  641a					      REPEAT	.CYCLES / 2
     18  641a		       ea		      nop
     19  641b					      REPEND
     78  641b
     79  641b		       b9 6a bd 	      lda	bmp_96x2_2_08,y
     80  641e		       85 1c		      sta	GRP1
     81  6420		       b9 74 bd 	      lda	bmp_96x2_2_10,y
     82  6423		       85 1c		      sta	GRP1
     83  6425
     84  6425		       b9 47 bd 	      lda	bmp_96x2_2_01,y
     85  6428		       85 1b		      sta	GRP0
     86  642a
      0  642a					      sleep	8
      1  642a				   .CYCLES    SET	8
      2  642a
      3  642a				  -	      IF	.CYCLES < 2
      4  642a				  -	      ECHO	"MACRO ERROR: 'SLEEP': Duration must be > 1"
      5  642a				  -	      ERR
      6  642a					      ENDIF
      7  642a
      8  642a				  -	      IF	.CYCLES & 1
      9  642a				  -	      IFNCONST	NO_ILLEGAL_OPCODES
     10  642a				  -	      nop	0
     11  642a				  -	      ELSE
     12  642a				  -	      bit	VSYNC
     13  642a				  -	      ENDIF
     14  642a				  -.CYCLES    SET	.CYCLES - 3
     15  642a					      ENDIF
     16  642a
     17  642a					      REPEAT	.CYCLES / 2
     18  642a		       ea		      nop
     17  642a					      REPEND
     18  642b		       ea		      nop
     17  642b					      REPEND
     18  642c		       ea		      nop
     17  642c					      REPEND
     18  642d		       ea		      nop
     19  642e					      REPEND
     88  642e
     89  642e							;sta WSYNC	;=0
     90  642e		       85 2a		      sta	HMOVE	;3 - NORMAL HMOVE
     91  6430
     92  6430		       b9 3c bd 	      lda	bmp_96x2_2_colors-1,y	;4 - get the title color early and store it for later
     93  6433				  -	      ifconst	bmp_96x2_2_fade
     94  6433				  -	      and	bmp_96x2_2_fade
     95  6433					      else
      0  6433					      sleep	3
      1  6433				   .CYCLES    SET	3
      2  6433
      3  6433				  -	      IF	.CYCLES < 2
      4  6433				  -	      ECHO	"MACRO ERROR: 'SLEEP': Duration must be > 1"
      5  6433				  -	      ERR
      6  6433					      ENDIF
      7  6433
      8  6433					      IF	.CYCLES & 1
      9  6433					      IFNCONST	NO_ILLEGAL_OPCODES
     10  6433		       04 00		      nop	0
     11  6435				  -	      ELSE
     12  6435				  -	      bit	VSYNC
     13  6435					      ENDIF
     14  6435				   .CYCLES    SET	.CYCLES - 3
     15  6435					      ENDIF
     16  6435
     17  6435				  -	      REPEAT	.CYCLES / 2
     18  6435				  -	      nop
     19  6435					      REPEND
     97  6435					      endif
     98  6435		       aa		      tax
     99  6436
    100  6436		       a9 00		      lda	#0	;2
    101  6438		       85 20		      sta	HMP0	;3
    102  643a		       85 21		      sta	HMP1	;3
    103  643c
      0  643c					      sleep	7
      1  643c				   .CYCLES    SET	7
      2  643c
      3  643c				  -	      IF	.CYCLES < 2
      4  643c				  -	      ECHO	"MACRO ERROR: 'SLEEP': Duration must be > 1"
      5  643c				  -	      ERR
      6  643c					      ENDIF
      7  643c
      8  643c					      IF	.CYCLES & 1
      9  643c					      IFNCONST	NO_ILLEGAL_OPCODES
     10  643c		       04 00		      nop	0
     11  643e				  -	      ELSE
     12  643e				  -	      bit	VSYNC
     13  643e					      ENDIF
     14  643e				   .CYCLES    SET	.CYCLES - 3
     15  643e					      ENDIF
     16  643e
     17  643e					      REPEAT	.CYCLES / 2
     18  643e		       ea		      nop
     17  643e					      REPEND
     18  643f		       ea		      nop
     19  6440					      REPEND
    105  6440
    106  6440		       b9 65 bd 	      lda	bmp_96x2_2_07,y
    107  6443		       85 1c		      sta	GRP1
    108  6445
    109  6445		       b9 51 bd 	      lda	bmp_96x2_2_03,y	;5
    110  6448		       85 1b		      sta	GRP0	;3 =  8
    111  644a		       b9 5b bd 	      lda	bmp_96x2_2_05,y	;5
    112  644d		       85 1b		      sta	GRP0	;3 =  8
    113  644f
      0  644f					      sleep	2
      1  644f				   .CYCLES    SET	2
      2  644f
      3  644f				  -	      IF	.CYCLES < 2
      4  644f				  -	      ECHO	"MACRO ERROR: 'SLEEP': Duration must be > 1"
      5  644f				  -	      ERR
      6  644f					      ENDIF
      7  644f
      8  644f				  -	      IF	.CYCLES & 1
      9  644f				  -	      IFNCONST	NO_ILLEGAL_OPCODES
     10  644f				  -	      nop	0
     11  644f				  -	      ELSE
     12  644f				  -	      bit	VSYNC
     13  644f				  -	      ENDIF
     14  644f				  -.CYCLES    SET	.CYCLES - 3
     15  644f					      ENDIF
     16  644f
     17  644f					      REPEAT	.CYCLES / 2
     18  644f		       ea		      nop
     19  6450					      REPEND
    115  6450
    116  6450		       b9 6f bd 	      lda	bmp_96x2_2_09,y	;5
    117  6453		       85 1c		      sta	GRP1	;3 =  8
    118  6455		       b9 75 bd 	      lda	bmp_96x2_2_11,y	;5
    119  6458		       85 1c		      sta	GRP1	;3 =  8
    120  645a
      0  645a					      sleep	2
      1  645a				   .CYCLES    SET	2
      2  645a
      3  645a				  -	      IF	.CYCLES < 2
      4  645a				  -	      ECHO	"MACRO ERROR: 'SLEEP': Duration must be > 1"
      5  645a				  -	      ERR
      6  645a					      ENDIF
      7  645a
      8  645a				  -	      IF	.CYCLES & 1
      9  645a				  -	      IFNCONST	NO_ILLEGAL_OPCODES
     10  645a				  -	      nop	0
     11  645a				  -	      ELSE
     12  645a				  -	      bit	VSYNC
     13  645a				  -	      ENDIF
     14  645a				  -.CYCLES    SET	.CYCLES - 3
     15  645a					      ENDIF
     16  645a
     17  645a					      REPEAT	.CYCLES / 2
     18  645a		       ea		      nop
     19  645b					      REPEND
    122  645b		       86 07		      stx	COLUP1
    123  645d		       86 06		      stx	COLUP0
    124  645f
    125  645f
    126  645f		       85 2a		      sta	HMOVE	;3 - CYCLE 74 HMOVE
      0  6461					      sleep	2
      1  6461				   .CYCLES    SET	2
      2  6461
      3  6461				  -	      IF	.CYCLES < 2
      4  6461				  -	      ECHO	"MACRO ERROR: 'SLEEP': Duration must be > 1"
      5  6461				  -	      ERR
      6  6461					      ENDIF
      7  6461
      8  6461				  -	      IF	.CYCLES & 1
      9  6461				  -	      IFNCONST	NO_ILLEGAL_OPCODES
     10  6461				  -	      nop	0
     11  6461				  -	      ELSE
     12  6461				  -	      bit	VSYNC
     13  6461				  -	      ENDIF
     14  6461				  -.CYCLES    SET	.CYCLES - 3
     15  6461					      ENDIF
     16  6461
     17  6461					      REPEAT	.CYCLES / 2
     18  6461		       ea		      nop
     19  6462					      REPEND
    128  6462		       88		      dey
    129  6463
    130  6463		       c4 cb		      cpy	temp1	;3
    131  6465		       d0 99		      bne	pfline_96x2_2_frame0	;2/3
    132  6467
    133  6467				   pf96x2_2_0codeend
    134  6467							;echo "critical code #1 in 96x2_2 is ",(pf96x2_2_0codeend-pfline_96x2_2_frame0), " bytes long."
    135  6467
    136  6467		       a9 00		      lda	#0
    137  6469		       85 1b		      sta	GRP0
    138  646b		       85 1c		      sta	GRP1
    139  646d		       4c 6e b5 	      jmp	pfdone_96x2_2
    140  6470
    141  6470
    142  6470				   pf96x2_2_frame1
    143  6470
    144  6470							;postion P0 and P1
    145  6470		       85 02		      sta	WSYNC
    146  6472		       a9 20		      lda	#%00100000
    147  6474		       85 20		      sta	HMP0
    148  6476		       a9 00		      lda	#0
    149  6478		       a9 f0		      lda	#%11110000
    150  647a		       85 21		      sta	HMP1
    151  647c		       85 02		      sta	WSYNC
      0  647e					      sleep	32
      1  647e				   .CYCLES    SET	32
      2  647e
      3  647e				  -	      IF	.CYCLES < 2
      4  647e				  -	      ECHO	"MACRO ERROR: 'SLEEP': Duration must be > 1"
      5  647e				  -	      ERR
      6  647e					      ENDIF
      7  647e
      8  647e				  -	      IF	.CYCLES & 1
      9  647e				  -	      IFNCONST	NO_ILLEGAL_OPCODES
     10  647e				  -	      nop	0
     11  647e				  -	      ELSE
     12  647e				  -	      bit	VSYNC
     13  647e				  -	      ENDIF
     14  647e				  -.CYCLES    SET	.CYCLES - 3
     15  647e					      ENDIF
     16  647e
     17  647e					      REPEAT	.CYCLES / 2
     18  647e		       ea		      nop
     17  647e					      REPEND
     18  647f		       ea		      nop
     17  647f					      REPEND
     18  6480		       ea		      nop
     17  6480					      REPEND
     18  6481		       ea		      nop
     17  6481					      REPEND
     18  6482		       ea		      nop
     17  6482					      REPEND
     18  6483		       ea		      nop
     17  6483					      REPEND
     18  6484		       ea		      nop
     17  6484					      REPEND
     18  6485		       ea		      nop
     17  6485					      REPEND
     18  6486		       ea		      nop
     17  6486					      REPEND
     18  6487		       ea		      nop
     17  6487					      REPEND
     18  6488		       ea		      nop
     17  6488					      REPEND
     18  6489		       ea		      nop
     17  6489					      REPEND
     18  648a		       ea		      nop
     17  648a					      REPEND
     18  648b		       ea		      nop
     17  648b					      REPEND
     18  648c		       ea		      nop
     17  648c					      REPEND
     18  648d		       ea		      nop
     19  648e					      REPEND
    153  648e		       85 10		      sta	RESP0
      0  6490					      sleep	12
      1  6490				   .CYCLES    SET	12
      2  6490
      3  6490				  -	      IF	.CYCLES < 2
      4  6490				  -	      ECHO	"MACRO ERROR: 'SLEEP': Duration must be > 1"
      5  6490				  -	      ERR
      6  6490					      ENDIF
      7  6490
      8  6490				  -	      IF	.CYCLES & 1
      9  6490				  -	      IFNCONST	NO_ILLEGAL_OPCODES
     10  6490				  -	      nop	0
     11  6490				  -	      ELSE
     12  6490				  -	      bit	VSYNC
     13  6490				  -	      ENDIF
     14  6490				  -.CYCLES    SET	.CYCLES - 3
     15  6490					      ENDIF
     16  6490
     17  6490					      REPEAT	.CYCLES / 2
     18  6490		       ea		      nop
     17  6490					      REPEND
     18  6491		       ea		      nop
     17  6491					      REPEND
     18  6492		       ea		      nop
     17  6492					      REPEND
     18  6493		       ea		      nop
     17  6493					      REPEND
     18  6494		       ea		      nop
     17  6494					      REPEND
     18  6495		       ea		      nop
     19  6496					      REPEND
    155  6496		       85 11		      sta	RESP1
    156  6498		       85 02		      sta	WSYNC
    157  649a		       85 2a		      sta	HMOVE
    158  649c
    159  649c		       85 02		      sta	WSYNC
    160  649e		       85 2b		      sta	HMCLR
    161  64a0
    162  64a0
    163  64a0
    164  64a0		       85 02		      sta	WSYNC
      0  64a2					      sleep	3
      1  64a2				   .CYCLES    SET	3
      2  64a2
      3  64a2				  -	      IF	.CYCLES < 2
      4  64a2				  -	      ECHO	"MACRO ERROR: 'SLEEP': Duration must be > 1"
      5  64a2				  -	      ERR
      6  64a2					      ENDIF
      7  64a2
      8  64a2					      IF	.CYCLES & 1
      9  64a2					      IFNCONST	NO_ILLEGAL_OPCODES
     10  64a2		       04 00		      nop	0
     11  64a4				  -	      ELSE
     12  64a4				  -	      bit	VSYNC
     13  64a4					      ENDIF
     14  64a4				   .CYCLES    SET	.CYCLES - 3
     15  64a4					      ENDIF
     16  64a4
     17  64a4				  -	      REPEAT	.CYCLES / 2
     18  64a4				  -	      nop
     19  64a4					      REPEND
    166  64a4		       4c 00 b5 	      jmp	pfline_96x2_2_frame1
    167  64a7
    168  64a7							;align so our branch doesn't unexpectedly cross a page...
    169  64a7					      if	>. != >[.+$70]
    170  6500		       00 00 00 00*	      align	256
    171  6500					      endif
    172  6500
    173  6500				   pfline_96x2_2_frame1
    174  6500
    175  6500		       85 2a		      sta	HMOVE
    176  6502
    177  6502		       b9 65 bd 	      lda	bmp_96x2_2_07,y	;4
    178  6505		       85 1c		      sta	GRP1	;3
    179  6507
    180  6507		       a9 00		      lda	#$0	;2
    181  6509		       85 20		      sta	HMP0	;3
    182  650b		       85 21		      sta	HMP1	;3
    183  650d
    184  650d		       b9 47 bd 	      lda	bmp_96x2_2_01,y
    185  6510		       8d 1b 00 	      sta.w	GRP0
    186  6513		       b9 51 bd 	      lda	bmp_96x2_2_03,y
    187  6516		       85 1b		      sta	GRP0
    188  6518		       b9 5b bd 	      lda	bmp_96x2_2_05,y
    189  651b		       85 1b		      sta	GRP0
    190  651d
      0  651d					      sleep	2
      1  651d				   .CYCLES    SET	2
      2  651d
      3  651d				  -	      IF	.CYCLES < 2
      4  651d				  -	      ECHO	"MACRO ERROR: 'SLEEP': Duration must be > 1"
      5  651d				  -	      ERR
      6  651d					      ENDIF
      7  651d
      8  651d				  -	      IF	.CYCLES & 1
      9  651d				  -	      IFNCONST	NO_ILLEGAL_OPCODES
     10  651d				  -	      nop	0
     11  651d				  -	      ELSE
     12  651d				  -	      bit	VSYNC
     13  651d				  -	      ENDIF
     14  651d				  -.CYCLES    SET	.CYCLES - 3
     15  651d					      ENDIF
     16  651d
     17  651d					      REPEAT	.CYCLES / 2
     18  651d		       ea		      nop
     19  651e					      REPEND
    192  651e
    193  651e		       b9 6f bd 	      lda	bmp_96x2_2_09,y
    194  6521		       85 1c		      sta	GRP1
    195  6523		       b9 75 bd 	      lda	bmp_96x2_2_11,y
    196  6526		       85 1c		      sta	GRP1
    197  6528
    198  6528		       b9 42 bd 	      lda	bmp_96x2_2_00,y
    199  652b		       85 1b		      sta	GRP0
    200  652d
    201  652d		       8d 2a 00 	      sta.w	HMOVE	;3 - cycle 74
    202  6530
    203  6530							;sta WSYNC	;=0 -----------------------------------------
    204  6530
    205  6530		       b9 60 bd 	      lda	bmp_96x2_2_06,y
    206  6533		       85 1c		      sta	GRP1
    207  6535
      0  6535					      sleep	8
      1  6535				   .CYCLES    SET	8
      2  6535
      3  6535				  -	      IF	.CYCLES < 2
      4  6535				  -	      ECHO	"MACRO ERROR: 'SLEEP': Duration must be > 1"
      5  6535				  -	      ERR
      6  6535					      ENDIF
      7  6535
      8  6535				  -	      IF	.CYCLES & 1
      9  6535				  -	      IFNCONST	NO_ILLEGAL_OPCODES
     10  6535				  -	      nop	0
     11  6535				  -	      ELSE
     12  6535				  -	      bit	VSYNC
     13  6535				  -	      ENDIF
     14  6535				  -.CYCLES    SET	.CYCLES - 3
     15  6535					      ENDIF
     16  6535
     17  6535					      REPEAT	.CYCLES / 2
     18  6535		       ea		      nop
     17  6535					      REPEND
     18  6536		       ea		      nop
     17  6536					      REPEND
     18  6537		       ea		      nop
     17  6537					      REPEND
     18  6538		       ea		      nop
     19  6539					      REPEND
    209  6539
    210  6539		       b9 3c bd 	      lda	bmp_96x2_2_colors-1,y	;get the title color early and store it for later
    211  653c		       aa		      tax		;2
    212  653d
      0  653d					      sleep	3
      1  653d				   .CYCLES    SET	3
      2  653d
      3  653d				  -	      IF	.CYCLES < 2
      4  653d				  -	      ECHO	"MACRO ERROR: 'SLEEP': Duration must be > 1"
      5  653d				  -	      ERR
      6  653d					      ENDIF
      7  653d
      8  653d					      IF	.CYCLES & 1
      9  653d					      IFNCONST	NO_ILLEGAL_OPCODES
     10  653d		       04 00		      nop	0
     11  653f				  -	      ELSE
     12  653f				  -	      bit	VSYNC
     13  653f					      ENDIF
     14  653f				   .CYCLES    SET	.CYCLES - 3
     15  653f					      ENDIF
     16  653f
     17  653f				  -	      REPEAT	.CYCLES / 2
     18  653f				  -	      nop
     19  653f					      REPEND
    214  653f
    215  653f		       a9 80		      lda	#$80	;2
    216  6541		       85 20		      sta	HMP0	;3
    217  6543		       85 21		      sta	HMP1	;3
    218  6545
    219  6545
    220  6545		       b9 4c bd 	      lda	bmp_96x2_2_02,y	;5
    221  6548		       85 1b		      sta	GRP0	;3 =  8
    222  654a
    223  654a		       b9 56 bd 	      lda	bmp_96x2_2_04,y	;5
    224  654d		       85 1b		      sta	GRP0	;3 =  8
    225  654f
      0  654f					      sleep	2
      1  654f				   .CYCLES    SET	2
      2  654f
      3  654f				  -	      IF	.CYCLES < 2
      4  654f				  -	      ECHO	"MACRO ERROR: 'SLEEP': Duration must be > 1"
      5  654f				  -	      ERR
      6  654f					      ENDIF
      7  654f
      8  654f				  -	      IF	.CYCLES & 1
      9  654f				  -	      IFNCONST	NO_ILLEGAL_OPCODES
     10  654f				  -	      nop	0
     11  654f				  -	      ELSE
     12  654f				  -	      bit	VSYNC
     13  654f				  -	      ENDIF
     14  654f				  -.CYCLES    SET	.CYCLES - 3
     15  654f					      ENDIF
     16  654f
     17  654f					      REPEAT	.CYCLES / 2
     18  654f		       ea		      nop
     19  6550					      REPEND
    227  6550
    228  6550		       b9 6a bd 	      lda	bmp_96x2_2_08,y	;5
    229  6553		       85 1c		      sta	GRP1	;3 =  8
    230  6555
    231  6555		       b9 74 bd 	      lda	bmp_96x2_2_10,y	;5
    232  6558		       85 1c		      sta	GRP1	;3 =  8
    233  655a
      0  655a					      sleep	4
      1  655a				   .CYCLES    SET	4
      2  655a
      3  655a				  -	      IF	.CYCLES < 2
      4  655a				  -	      ECHO	"MACRO ERROR: 'SLEEP': Duration must be > 1"
      5  655a				  -	      ERR
      6  655a					      ENDIF
      7  655a
      8  655a				  -	      IF	.CYCLES & 1
      9  655a				  -	      IFNCONST	NO_ILLEGAL_OPCODES
     10  655a				  -	      nop	0
     11  655a				  -	      ELSE
     12  655a				  -	      bit	VSYNC
     13  655a				  -	      ENDIF
     14  655a				  -.CYCLES    SET	.CYCLES - 3
     15  655a					      ENDIF
     16  655a
     17  655a					      REPEAT	.CYCLES / 2
     18  655a		       ea		      nop
     17  655a					      REPEND
     18  655b		       ea		      nop
     19  655c					      REPEND
    235  655c
    236  655c		       88		      dey
    237  655d
    238  655d		       8a		      txa
    239  655e				  -	      ifconst	bmp_96x2_2_fade
    240  655e				  -	      and	bmp_96x2_2_fade
    241  655e					      else
      0  655e					      sleep	3
      1  655e				   .CYCLES    SET	3
      2  655e
      3  655e				  -	      IF	.CYCLES < 2
      4  655e				  -	      ECHO	"MACRO ERROR: 'SLEEP': Duration must be > 1"
      5  655e				  -	      ERR
      6  655e					      ENDIF
      7  655e
      8  655e					      IF	.CYCLES & 1
      9  655e					      IFNCONST	NO_ILLEGAL_OPCODES
     10  655e		       04 00		      nop	0
     11  6560				  -	      ELSE
     12  6560				  -	      bit	VSYNC
     13  6560					      ENDIF
     14  6560				   .CYCLES    SET	.CYCLES - 3
     15  6560					      ENDIF
     16  6560
     17  6560				  -	      REPEAT	.CYCLES / 2
     18  6560				  -	      nop
     19  6560					      REPEND
    243  6560					      endif
    244  6560		       85 07		      sta	COLUP1	;3
    245  6562		       85 06		      sta	COLUP0	;3
    246  6564
    247  6564		       c4 cb		      cpy	temp1	;2
    248  6566		       d0 98		      bne	pfline_96x2_2_frame1	;2/3
    249  6568
    250  6568				   pf96x2_2_1codeend
    251  6568							;echo "critical code #2 in 96x2_2 is ",(pf96x2_2_1codeend-pfline_96x2_2_frame1), " bytes long."
    252  6568
    253  6568		       a9 00		      lda	#0
    254  656a		       85 1b		      sta	GRP0
    255  656c		       85 1c		      sta	GRP1
    256  656e
    257  656e				   pfdone_96x2_2
    258  656e		       85 02		      sta	WSYNC	; debug
    259  6570
    260  6570		       60		      rts
------- FILE titlescreen/asm/titlescreen.asm
    153  6571					      endif		;mk_96x2_2_on
    154  6571
    155  6571				  -	      ifconst	mk_96x2_3_on
    156  6571				  -	      include	"titlescreen/asm/96x2_3_kernel.asm"
    157  6571					      endif		;mk_96x2_3_on
    158  6571
    159  6571					      ifconst	mk_96x2_4_on
------- FILE titlescreen/asm/96x2_4_kernel.asm LEVEL 3 PASS 4
      0  6571					      include	"titlescreen/asm/96x2_4_kernel.asm"
      1  6571				   draw_bmp_96x2_4
      2  6571
      3  6571				  -	      ifconst	bmp_96x2_4_index
      4  6571				  -	      lda	#(bmp_96x2_4_height-1)
      5  6571				  -	      sec
      6  6571				  -	      sbc	bmp_96x2_4_index
      7  6571				  -	      tay
      8  6571				  -	      sbc	#bmp_96x2_4_window
      9  6571				  -	      sta	temp1
     10  6571					      else
     11  6571		       a0 04		      ldy	#(bmp_96x2_4_window-1)
     12  6573		       a9 ff		      lda	#255
     13  6575		       85 cb		      sta	temp1
     14  6577					      endif
     15  6577
     16  6577		       a9 03		      lda	#3
     17  6579		       85 04		      sta	NUSIZ0	;3=Player and Missile are drawn twice 32 clocks apart
     18  657b		       85 05		      sta	NUSIZ1	;3=Player and Missile are drawn twice 32 clocks apart
     19  657d		       a9 00		      lda	#0
     20  657f
     21  657f		       b9 7b bd 	      lda	bmp_96x2_4_colors,y	;4
     22  6582				  -	      ifconst	bmp_96x2_4_fade
     23  6582				  -	      and	bmp_96x2_4_fade
     24  6582					      endif
     25  6582		       85 06		      sta	COLUP0	;3
     26  6584		       85 07		      sta	COLUP1	;3
     27  6586		       85 2b		      sta	HMCLR	;3
     28  6588
     29  6588		       a5 82		      lda	titleframe
     30  658a		       29 01		      and	#1
     31  658c		       f0 03		      beq	jmp_pf96x2_4_frame0
     32  658e		       4c 70 b6 	      jmp	pf96x2_4_frame1
     33  6591				   jmp_pf96x2_4_frame0
     34  6591		       4c 94 b5 	      jmp	pf96x2_4_frame0
     35  6594
     36  6594				   pf96x2_4_frame0
     37  6594							;postion P0 and P1
     38  6594		       85 02		      sta	WSYNC
     39  6596		       a9 e0		      lda	#%11100000
     40  6598		       85 20		      sta	HMP0
     41  659a		       a9 10		      lda	#%00010000
     42  659c		       85 21		      sta	HMP1
     43  659e		       85 02		      sta	WSYNC
      0  65a0					      sleep	28
      1  65a0				   .CYCLES    SET	28
      2  65a0
      3  65a0				  -	      IF	.CYCLES < 2
      4  65a0				  -	      ECHO	"MACRO ERROR: 'SLEEP': Duration must be > 1"
      5  65a0				  -	      ERR
      6  65a0					      ENDIF
      7  65a0
      8  65a0				  -	      IF	.CYCLES & 1
      9  65a0				  -	      IFNCONST	NO_ILLEGAL_OPCODES
     10  65a0				  -	      nop	0
     11  65a0				  -	      ELSE
     12  65a0				  -	      bit	VSYNC
     13  65a0				  -	      ENDIF
     14  65a0				  -.CYCLES    SET	.CYCLES - 3
     15  65a0					      ENDIF
     16  65a0
     17  65a0					      REPEAT	.CYCLES / 2
     18  65a0		       ea		      nop
     17  65a0					      REPEND
     18  65a1		       ea		      nop
     17  65a1					      REPEND
     18  65a2		       ea		      nop
     17  65a2					      REPEND
     18  65a3		       ea		      nop
     17  65a3					      REPEND
     18  65a4		       ea		      nop
     17  65a4					      REPEND
     18  65a5		       ea		      nop
     17  65a5					      REPEND
     18  65a6		       ea		      nop
     17  65a6					      REPEND
     18  65a7		       ea		      nop
     17  65a7					      REPEND
     18  65a8		       ea		      nop
     17  65a8					      REPEND
     18  65a9		       ea		      nop
     17  65a9					      REPEND
     18  65aa		       ea		      nop
     17  65aa					      REPEND
     18  65ab		       ea		      nop
     17  65ab					      REPEND
     18  65ac		       ea		      nop
     17  65ac					      REPEND
     18  65ad		       ea		      nop
     19  65ae					      REPEND
     45  65ae		       85 10		      sta	RESP0
      0  65b0					      sleep	14
      1  65b0				   .CYCLES    SET	14
      2  65b0
      3  65b0				  -	      IF	.CYCLES < 2
      4  65b0				  -	      ECHO	"MACRO ERROR: 'SLEEP': Duration must be > 1"
      5  65b0				  -	      ERR
      6  65b0					      ENDIF
      7  65b0
      8  65b0				  -	      IF	.CYCLES & 1
      9  65b0				  -	      IFNCONST	NO_ILLEGAL_OPCODES
     10  65b0				  -	      nop	0
     11  65b0				  -	      ELSE
     12  65b0				  -	      bit	VSYNC
     13  65b0				  -	      ENDIF
     14  65b0				  -.CYCLES    SET	.CYCLES - 3
     15  65b0					      ENDIF
     16  65b0
     17  65b0					      REPEAT	.CYCLES / 2
     18  65b0		       ea		      nop
     17  65b0					      REPEND
     18  65b1		       ea		      nop
     17  65b1					      REPEND
     18  65b2		       ea		      nop
     17  65b2					      REPEND
     18  65b3		       ea		      nop
     17  65b3					      REPEND
     18  65b4		       ea		      nop
     17  65b4					      REPEND
     18  65b5		       ea		      nop
     17  65b5					      REPEND
     18  65b6		       ea		      nop
     19  65b7					      REPEND
     47  65b7		       85 11		      sta	RESP1
     48  65b9		       85 02		      sta	WSYNC
     49  65bb		       85 2a		      sta	HMOVE
     50  65bd
     51  65bd		       85 02		      sta	WSYNC
     52  65bf		       85 2b		      sta	HMCLR
     53  65c1		       85 02		      sta	WSYNC
     54  65c3
      0  65c3					      sleep	4
      1  65c3				   .CYCLES    SET	4
      2  65c3
      3  65c3				  -	      IF	.CYCLES < 2
      4  65c3				  -	      ECHO	"MACRO ERROR: 'SLEEP': Duration must be > 1"
      5  65c3				  -	      ERR
      6  65c3					      ENDIF
      7  65c3
      8  65c3				  -	      IF	.CYCLES & 1
      9  65c3				  -	      IFNCONST	NO_ILLEGAL_OPCODES
     10  65c3				  -	      nop	0
     11  65c3				  -	      ELSE
     12  65c3				  -	      bit	VSYNC
     13  65c3				  -	      ENDIF
     14  65c3				  -.CYCLES    SET	.CYCLES - 3
     15  65c3					      ENDIF
     16  65c3
     17  65c3					      REPEAT	.CYCLES / 2
     18  65c3		       ea		      nop
     17  65c3					      REPEND
     18  65c4		       ea		      nop
     19  65c5					      REPEND
     56  65c5		       4c 00 b6 	      jmp	pfline_96x2_4_frame0
     57  65c8							;align so our branch doesn't unexpectedly cross a page...
     58  65c8					      if	>. != >[.+$70]
     59  6600		       00 00 00 00*	      align	256
     60  6600					      endif
     61  6600
     62  6600				   pfline_96x2_4_frame0
     63  6600		       a9 80		      lda	#$80	;2
     64  6602		       85 20		      sta	HMP0	;3
     65  6604		       85 21		      sta	HMP1	;3
     66  6606
     67  6606		       b9 9e bd 	      lda	bmp_96x2_4_06,y	;4
     68  6609		       85 1c		      sta	GRP1	;3
     69  660b
     70  660b		       b9 80 bd 	      lda	bmp_96x2_4_00,y
     71  660e		       85 1b		      sta	GRP0
     72  6610		       b9 8a bd 	      lda	bmp_96x2_4_02,y
     73  6613		       85 1b		      sta	GRP0
     74  6615		       b9 94 bd 	      lda	bmp_96x2_4_04,y
     75  6618		       85 1b		      sta	GRP0
     76  661a
      0  661a					      sleep	2
      1  661a				   .CYCLES    SET	2
      2  661a
      3  661a				  -	      IF	.CYCLES < 2
      4  661a				  -	      ECHO	"MACRO ERROR: 'SLEEP': Duration must be > 1"
      5  661a				  -	      ERR
      6  661a					      ENDIF
      7  661a
      8  661a				  -	      IF	.CYCLES & 1
      9  661a				  -	      IFNCONST	NO_ILLEGAL_OPCODES
     10  661a				  -	      nop	0
     11  661a				  -	      ELSE
     12  661a				  -	      bit	VSYNC
     13  661a				  -	      ENDIF
     14  661a				  -.CYCLES    SET	.CYCLES - 3
     15  661a					      ENDIF
     16  661a
     17  661a					      REPEAT	.CYCLES / 2
     18  661a		       ea		      nop
     19  661b					      REPEND
     78  661b
     79  661b		       b9 a8 bd 	      lda	bmp_96x2_4_08,y
     80  661e		       85 1c		      sta	GRP1
     81  6620		       b9 b2 bd 	      lda	bmp_96x2_4_10,y
     82  6623		       85 1c		      sta	GRP1
     83  6625
     84  6625		       b9 85 bd 	      lda	bmp_96x2_4_01,y
     85  6628		       85 1b		      sta	GRP0
     86  662a
      0  662a					      sleep	8
      1  662a				   .CYCLES    SET	8
      2  662a
      3  662a				  -	      IF	.CYCLES < 2
      4  662a				  -	      ECHO	"MACRO ERROR: 'SLEEP': Duration must be > 1"
      5  662a				  -	      ERR
      6  662a					      ENDIF
      7  662a
      8  662a				  -	      IF	.CYCLES & 1
      9  662a				  -	      IFNCONST	NO_ILLEGAL_OPCODES
     10  662a				  -	      nop	0
     11  662a				  -	      ELSE
     12  662a				  -	      bit	VSYNC
     13  662a				  -	      ENDIF
     14  662a				  -.CYCLES    SET	.CYCLES - 3
     15  662a					      ENDIF
     16  662a
     17  662a					      REPEAT	.CYCLES / 2
     18  662a		       ea		      nop
     17  662a					      REPEND
     18  662b		       ea		      nop
     17  662b					      REPEND
     18  662c		       ea		      nop
     17  662c					      REPEND
     18  662d		       ea		      nop
     19  662e					      REPEND
     88  662e
     89  662e							;sta WSYNC	;=0
     90  662e		       85 2a		      sta	HMOVE	;3 - NORMAL HMOVE
     91  6630
     92  6630		       b9 7a bd 	      lda	bmp_96x2_4_colors-1,y	;4 - get the title color early and store it for later
     93  6633				  -	      ifconst	bmp_96x2_4_fade
     94  6633				  -	      and	bmp_96x2_4_fade
     95  6633					      else
      0  6633					      sleep	3
      1  6633				   .CYCLES    SET	3
      2  6633
      3  6633				  -	      IF	.CYCLES < 2
      4  6633				  -	      ECHO	"MACRO ERROR: 'SLEEP': Duration must be > 1"
      5  6633				  -	      ERR
      6  6633					      ENDIF
      7  6633
      8  6633					      IF	.CYCLES & 1
      9  6633					      IFNCONST	NO_ILLEGAL_OPCODES
     10  6633		       04 00		      nop	0
     11  6635				  -	      ELSE
     12  6635				  -	      bit	VSYNC
     13  6635					      ENDIF
     14  6635				   .CYCLES    SET	.CYCLES - 3
     15  6635					      ENDIF
     16  6635
     17  6635				  -	      REPEAT	.CYCLES / 2
     18  6635				  -	      nop
     19  6635					      REPEND
     97  6635					      endif
     98  6635		       aa		      tax
     99  6636
    100  6636		       a9 00		      lda	#0	;2
    101  6638		       85 20		      sta	HMP0	;3
    102  663a		       85 21		      sta	HMP1	;3
    103  663c
      0  663c					      sleep	7
      1  663c				   .CYCLES    SET	7
      2  663c
      3  663c				  -	      IF	.CYCLES < 2
      4  663c				  -	      ECHO	"MACRO ERROR: 'SLEEP': Duration must be > 1"
      5  663c				  -	      ERR
      6  663c					      ENDIF
      7  663c
      8  663c					      IF	.CYCLES & 1
      9  663c					      IFNCONST	NO_ILLEGAL_OPCODES
     10  663c		       04 00		      nop	0
     11  663e				  -	      ELSE
     12  663e				  -	      bit	VSYNC
     13  663e					      ENDIF
     14  663e				   .CYCLES    SET	.CYCLES - 3
     15  663e					      ENDIF
     16  663e
     17  663e					      REPEAT	.CYCLES / 2
     18  663e		       ea		      nop
     17  663e					      REPEND
     18  663f		       ea		      nop
     19  6640					      REPEND
    105  6640
    106  6640		       b9 a3 bd 	      lda	bmp_96x2_4_07,y
    107  6643		       85 1c		      sta	GRP1
    108  6645
    109  6645		       b9 8f bd 	      lda	bmp_96x2_4_03,y	;5
    110  6648		       85 1b		      sta	GRP0	;3 =  8
    111  664a		       b9 99 bd 	      lda	bmp_96x2_4_05,y	;5
    112  664d		       85 1b		      sta	GRP0	;3 =  8
    113  664f
      0  664f					      sleep	2
      1  664f				   .CYCLES    SET	2
      2  664f
      3  664f				  -	      IF	.CYCLES < 2
      4  664f				  -	      ECHO	"MACRO ERROR: 'SLEEP': Duration must be > 1"
      5  664f				  -	      ERR
      6  664f					      ENDIF
      7  664f
      8  664f				  -	      IF	.CYCLES & 1
      9  664f				  -	      IFNCONST	NO_ILLEGAL_OPCODES
     10  664f				  -	      nop	0
     11  664f				  -	      ELSE
     12  664f				  -	      bit	VSYNC
     13  664f				  -	      ENDIF
     14  664f				  -.CYCLES    SET	.CYCLES - 3
     15  664f					      ENDIF
     16  664f
     17  664f					      REPEAT	.CYCLES / 2
     18  664f		       ea		      nop
     19  6650					      REPEND
    115  6650
    116  6650		       b9 ad bd 	      lda	bmp_96x2_4_09,y	;5
    117  6653		       85 1c		      sta	GRP1	;3 =  8
    118  6655		       b9 b7 bd 	      lda	bmp_96x2_4_11,y	;5
    119  6658		       85 1c		      sta	GRP1	;3 =  8
    120  665a
      0  665a					      sleep	2
      1  665a				   .CYCLES    SET	2
      2  665a
      3  665a				  -	      IF	.CYCLES < 2
      4  665a				  -	      ECHO	"MACRO ERROR: 'SLEEP': Duration must be > 1"
      5  665a				  -	      ERR
      6  665a					      ENDIF
      7  665a
      8  665a				  -	      IF	.CYCLES & 1
      9  665a				  -	      IFNCONST	NO_ILLEGAL_OPCODES
     10  665a				  -	      nop	0
     11  665a				  -	      ELSE
     12  665a				  -	      bit	VSYNC
     13  665a				  -	      ENDIF
     14  665a				  -.CYCLES    SET	.CYCLES - 3
     15  665a					      ENDIF
     16  665a
     17  665a					      REPEAT	.CYCLES / 2
     18  665a		       ea		      nop
     19  665b					      REPEND
    122  665b		       86 07		      stx	COLUP1
    123  665d		       86 06		      stx	COLUP0
    124  665f
    125  665f
    126  665f		       85 2a		      sta	HMOVE	;3 - CYCLE 74 HMOVE
      0  6661					      sleep	2
      1  6661				   .CYCLES    SET	2
      2  6661
      3  6661				  -	      IF	.CYCLES < 2
      4  6661				  -	      ECHO	"MACRO ERROR: 'SLEEP': Duration must be > 1"
      5  6661				  -	      ERR
      6  6661					      ENDIF
      7  6661
      8  6661				  -	      IF	.CYCLES & 1
      9  6661				  -	      IFNCONST	NO_ILLEGAL_OPCODES
     10  6661				  -	      nop	0
     11  6661				  -	      ELSE
     12  6661				  -	      bit	VSYNC
     13  6661				  -	      ENDIF
     14  6661				  -.CYCLES    SET	.CYCLES - 3
     15  6661					      ENDIF
     16  6661
     17  6661					      REPEAT	.CYCLES / 2
     18  6661		       ea		      nop
     19  6662					      REPEND
    128  6662		       88		      dey
    129  6663
    130  6663		       c4 cb		      cpy	temp1	;3
    131  6665		       d0 99		      bne	pfline_96x2_4_frame0	;2/3
    132  6667
    133  6667				   pf96x2_4_0codeend
    134  6667							;echo "critical code #1 in 96x2_4 is ",(pf96x2_4_0codeend-pfline_96x2_4_frame0), " bytes long."
    135  6667
    136  6667		       a9 00		      lda	#0
    137  6669		       85 1b		      sta	GRP0
    138  666b		       85 1c		      sta	GRP1
    139  666d		       4c 6e b7 	      jmp	pfdone_96x2_4
    140  6670
    141  6670
    142  6670				   pf96x2_4_frame1
    143  6670
    144  6670							;postion P0 and P1
    145  6670		       85 02		      sta	WSYNC
    146  6672		       a9 20		      lda	#%00100000
    147  6674		       85 20		      sta	HMP0
    148  6676		       a9 00		      lda	#0
    149  6678		       a9 f0		      lda	#%11110000
    150  667a		       85 21		      sta	HMP1
    151  667c		       85 02		      sta	WSYNC
      0  667e					      sleep	32
      1  667e				   .CYCLES    SET	32
      2  667e
      3  667e				  -	      IF	.CYCLES < 2
      4  667e				  -	      ECHO	"MACRO ERROR: 'SLEEP': Duration must be > 1"
      5  667e				  -	      ERR
      6  667e					      ENDIF
      7  667e
      8  667e				  -	      IF	.CYCLES & 1
      9  667e				  -	      IFNCONST	NO_ILLEGAL_OPCODES
     10  667e				  -	      nop	0
     11  667e				  -	      ELSE
     12  667e				  -	      bit	VSYNC
     13  667e				  -	      ENDIF
     14  667e				  -.CYCLES    SET	.CYCLES - 3
     15  667e					      ENDIF
     16  667e
     17  667e					      REPEAT	.CYCLES / 2
     18  667e		       ea		      nop
     17  667e					      REPEND
     18  667f		       ea		      nop
     17  667f					      REPEND
     18  6680		       ea		      nop
     17  6680					      REPEND
     18  6681		       ea		      nop
     17  6681					      REPEND
     18  6682		       ea		      nop
     17  6682					      REPEND
     18  6683		       ea		      nop
     17  6683					      REPEND
     18  6684		       ea		      nop
     17  6684					      REPEND
     18  6685		       ea		      nop
     17  6685					      REPEND
     18  6686		       ea		      nop
     17  6686					      REPEND
     18  6687		       ea		      nop
     17  6687					      REPEND
     18  6688		       ea		      nop
     17  6688					      REPEND
     18  6689		       ea		      nop
     17  6689					      REPEND
     18  668a		       ea		      nop
     17  668a					      REPEND
     18  668b		       ea		      nop
     17  668b					      REPEND
     18  668c		       ea		      nop
     17  668c					      REPEND
     18  668d		       ea		      nop
     19  668e					      REPEND
    153  668e		       85 10		      sta	RESP0
      0  6690					      sleep	12
      1  6690				   .CYCLES    SET	12
      2  6690
      3  6690				  -	      IF	.CYCLES < 2
      4  6690				  -	      ECHO	"MACRO ERROR: 'SLEEP': Duration must be > 1"
      5  6690				  -	      ERR
      6  6690					      ENDIF
      7  6690
      8  6690				  -	      IF	.CYCLES & 1
      9  6690				  -	      IFNCONST	NO_ILLEGAL_OPCODES
     10  6690				  -	      nop	0
     11  6690				  -	      ELSE
     12  6690				  -	      bit	VSYNC
     13  6690				  -	      ENDIF
     14  6690				  -.CYCLES    SET	.CYCLES - 3
     15  6690					      ENDIF
     16  6690
     17  6690					      REPEAT	.CYCLES / 2
     18  6690		       ea		      nop
     17  6690					      REPEND
     18  6691		       ea		      nop
     17  6691					      REPEND
     18  6692		       ea		      nop
     17  6692					      REPEND
     18  6693		       ea		      nop
     17  6693					      REPEND
     18  6694		       ea		      nop
     17  6694					      REPEND
     18  6695		       ea		      nop
     19  6696					      REPEND
    155  6696		       85 11		      sta	RESP1
    156  6698		       85 02		      sta	WSYNC
    157  669a		       85 2a		      sta	HMOVE
    158  669c
    159  669c		       85 02		      sta	WSYNC
    160  669e		       85 2b		      sta	HMCLR
    161  66a0
    162  66a0
    163  66a0
    164  66a0		       85 02		      sta	WSYNC
      0  66a2					      sleep	3
      1  66a2				   .CYCLES    SET	3
      2  66a2
      3  66a2				  -	      IF	.CYCLES < 2
      4  66a2				  -	      ECHO	"MACRO ERROR: 'SLEEP': Duration must be > 1"
      5  66a2				  -	      ERR
      6  66a2					      ENDIF
      7  66a2
      8  66a2					      IF	.CYCLES & 1
      9  66a2					      IFNCONST	NO_ILLEGAL_OPCODES
     10  66a2		       04 00		      nop	0
     11  66a4				  -	      ELSE
     12  66a4				  -	      bit	VSYNC
     13  66a4					      ENDIF
     14  66a4				   .CYCLES    SET	.CYCLES - 3
     15  66a4					      ENDIF
     16  66a4
     17  66a4				  -	      REPEAT	.CYCLES / 2
     18  66a4				  -	      nop
     19  66a4					      REPEND
    166  66a4		       4c 00 b7 	      jmp	pfline_96x2_4_frame1
    167  66a7
    168  66a7							;align so our branch doesn't unexpectedly cross a page...
    169  66a7					      if	>. != >[.+$70]
    170  6700		       00 00 00 00*	      align	256
    171  6700					      endif
    172  6700
    173  6700				   pfline_96x2_4_frame1
    174  6700
    175  6700		       85 2a		      sta	HMOVE
    176  6702
    177  6702		       b9 a3 bd 	      lda	bmp_96x2_4_07,y	;4
    178  6705		       85 1c		      sta	GRP1	;3
    179  6707
    180  6707		       a9 00		      lda	#$0	;2
    181  6709		       85 20		      sta	HMP0	;3
    182  670b		       85 21		      sta	HMP1	;3
    183  670d
    184  670d		       b9 85 bd 	      lda	bmp_96x2_4_01,y
    185  6710		       8d 1b 00 	      sta.w	GRP0
    186  6713		       b9 8f bd 	      lda	bmp_96x2_4_03,y
    187  6716		       85 1b		      sta	GRP0
    188  6718		       b9 99 bd 	      lda	bmp_96x2_4_05,y
    189  671b		       85 1b		      sta	GRP0
    190  671d
      0  671d					      sleep	2
      1  671d				   .CYCLES    SET	2
      2  671d
      3  671d				  -	      IF	.CYCLES < 2
      4  671d				  -	      ECHO	"MACRO ERROR: 'SLEEP': Duration must be > 1"
      5  671d				  -	      ERR
      6  671d					      ENDIF
      7  671d
      8  671d				  -	      IF	.CYCLES & 1
      9  671d				  -	      IFNCONST	NO_ILLEGAL_OPCODES
     10  671d				  -	      nop	0
     11  671d				  -	      ELSE
     12  671d				  -	      bit	VSYNC
     13  671d				  -	      ENDIF
     14  671d				  -.CYCLES    SET	.CYCLES - 3
     15  671d					      ENDIF
     16  671d
     17  671d					      REPEAT	.CYCLES / 2
     18  671d		       ea		      nop
     19  671e					      REPEND
    192  671e
    193  671e		       b9 ad bd 	      lda	bmp_96x2_4_09,y
    194  6721		       85 1c		      sta	GRP1
    195  6723		       b9 b7 bd 	      lda	bmp_96x2_4_11,y
    196  6726		       85 1c		      sta	GRP1
    197  6728
    198  6728		       b9 80 bd 	      lda	bmp_96x2_4_00,y
    199  672b		       85 1b		      sta	GRP0
    200  672d
    201  672d		       8d 2a 00 	      sta.w	HMOVE	;3 - cycle 74
    202  6730
    203  6730							;sta WSYNC	;=0 -----------------------------------------
    204  6730
    205  6730		       b9 9e bd 	      lda	bmp_96x2_4_06,y
    206  6733		       85 1c		      sta	GRP1
    207  6735
      0  6735					      sleep	8
      1  6735				   .CYCLES    SET	8
      2  6735
      3  6735				  -	      IF	.CYCLES < 2
      4  6735				  -	      ECHO	"MACRO ERROR: 'SLEEP': Duration must be > 1"
      5  6735				  -	      ERR
      6  6735					      ENDIF
      7  6735
      8  6735				  -	      IF	.CYCLES & 1
      9  6735				  -	      IFNCONST	NO_ILLEGAL_OPCODES
     10  6735				  -	      nop	0
     11  6735				  -	      ELSE
     12  6735				  -	      bit	VSYNC
     13  6735				  -	      ENDIF
     14  6735				  -.CYCLES    SET	.CYCLES - 3
     15  6735					      ENDIF
     16  6735
     17  6735					      REPEAT	.CYCLES / 2
     18  6735		       ea		      nop
     17  6735					      REPEND
     18  6736		       ea		      nop
     17  6736					      REPEND
     18  6737		       ea		      nop
     17  6737					      REPEND
     18  6738		       ea		      nop
     19  6739					      REPEND
    209  6739
    210  6739		       b9 7a bd 	      lda	bmp_96x2_4_colors-1,y	;get the title color early and store it for later
    211  673c		       aa		      tax		;2
    212  673d
      0  673d					      sleep	3
      1  673d				   .CYCLES    SET	3
      2  673d
      3  673d				  -	      IF	.CYCLES < 2
      4  673d				  -	      ECHO	"MACRO ERROR: 'SLEEP': Duration must be > 1"
      5  673d				  -	      ERR
      6  673d					      ENDIF
      7  673d
      8  673d					      IF	.CYCLES & 1
      9  673d					      IFNCONST	NO_ILLEGAL_OPCODES
     10  673d		       04 00		      nop	0
     11  673f				  -	      ELSE
     12  673f				  -	      bit	VSYNC
     13  673f					      ENDIF
     14  673f				   .CYCLES    SET	.CYCLES - 3
     15  673f					      ENDIF
     16  673f
     17  673f				  -	      REPEAT	.CYCLES / 2
     18  673f				  -	      nop
     19  673f					      REPEND
    214  673f
    215  673f		       a9 80		      lda	#$80	;2
    216  6741		       85 20		      sta	HMP0	;3
    217  6743		       85 21		      sta	HMP1	;3
    218  6745
    219  6745
    220  6745		       b9 8a bd 	      lda	bmp_96x2_4_02,y	;5
    221  6748		       85 1b		      sta	GRP0	;3 =  8
    222  674a
    223  674a		       b9 94 bd 	      lda	bmp_96x2_4_04,y	;5
    224  674d		       85 1b		      sta	GRP0	;3 =  8
    225  674f
      0  674f					      sleep	2
      1  674f				   .CYCLES    SET	2
      2  674f
      3  674f				  -	      IF	.CYCLES < 2
      4  674f				  -	      ECHO	"MACRO ERROR: 'SLEEP': Duration must be > 1"
      5  674f				  -	      ERR
      6  674f					      ENDIF
      7  674f
      8  674f				  -	      IF	.CYCLES & 1
      9  674f				  -	      IFNCONST	NO_ILLEGAL_OPCODES
     10  674f				  -	      nop	0
     11  674f				  -	      ELSE
     12  674f				  -	      bit	VSYNC
     13  674f				  -	      ENDIF
     14  674f				  -.CYCLES    SET	.CYCLES - 3
     15  674f					      ENDIF
     16  674f
     17  674f					      REPEAT	.CYCLES / 2
     18  674f		       ea		      nop
     19  6750					      REPEND
    227  6750
    228  6750		       b9 a8 bd 	      lda	bmp_96x2_4_08,y	;5
    229  6753		       85 1c		      sta	GRP1	;3 =  8
    230  6755
    231  6755		       b9 b2 bd 	      lda	bmp_96x2_4_10,y	;5
    232  6758		       85 1c		      sta	GRP1	;3 =  8
    233  675a
      0  675a					      sleep	4
      1  675a				   .CYCLES    SET	4
      2  675a
      3  675a				  -	      IF	.CYCLES < 2
      4  675a				  -	      ECHO	"MACRO ERROR: 'SLEEP': Duration must be > 1"
      5  675a				  -	      ERR
      6  675a					      ENDIF
      7  675a
      8  675a				  -	      IF	.CYCLES & 1
      9  675a				  -	      IFNCONST	NO_ILLEGAL_OPCODES
     10  675a				  -	      nop	0
     11  675a				  -	      ELSE
     12  675a				  -	      bit	VSYNC
     13  675a				  -	      ENDIF
     14  675a				  -.CYCLES    SET	.CYCLES - 3
     15  675a					      ENDIF
     16  675a
     17  675a					      REPEAT	.CYCLES / 2
     18  675a		       ea		      nop
     17  675a					      REPEND
     18  675b		       ea		      nop
     19  675c					      REPEND
    235  675c
    236  675c		       88		      dey
    237  675d
    238  675d		       8a		      txa
    239  675e				  -	      ifconst	bmp_96x2_4_fade
    240  675e				  -	      and	bmp_96x2_4_fade
    241  675e					      else
      0  675e					      sleep	3
      1  675e				   .CYCLES    SET	3
      2  675e
      3  675e				  -	      IF	.CYCLES < 2
      4  675e				  -	      ECHO	"MACRO ERROR: 'SLEEP': Duration must be > 1"
      5  675e				  -	      ERR
      6  675e					      ENDIF
      7  675e
      8  675e					      IF	.CYCLES & 1
      9  675e					      IFNCONST	NO_ILLEGAL_OPCODES
     10  675e		       04 00		      nop	0
     11  6760				  -	      ELSE
     12  6760				  -	      bit	VSYNC
     13  6760					      ENDIF
     14  6760				   .CYCLES    SET	.CYCLES - 3
     15  6760					      ENDIF
     16  6760
     17  6760				  -	      REPEAT	.CYCLES / 2
     18  6760				  -	      nop
     19  6760					      REPEND
    243  6760					      endif
    244  6760		       85 07		      sta	COLUP1	;3
    245  6762		       85 06		      sta	COLUP0	;3
    246  6764
    247  6764		       c4 cb		      cpy	temp1	;2
    248  6766		       d0 98		      bne	pfline_96x2_4_frame1	;2/3
    249  6768
    250  6768				   pf96x2_4_1codeend
    251  6768							;echo "critical code #2 in 96x2_4 is ",(pf96x2_4_1codeend-pfline_96x2_4_frame1), " bytes long."
    252  6768
    253  6768		       a9 00		      lda	#0
    254  676a		       85 1b		      sta	GRP0
    255  676c		       85 1c		      sta	GRP1
    256  676e
    257  676e				   pfdone_96x2_4
    258  676e		       85 02		      sta	WSYNC	; debug
    259  6770
    260  6770		       60		      rts
------- FILE titlescreen/asm/titlescreen.asm
    161  6771					      endif		;mk_96x2_4_on
    162  6771
    163  6771					      ifconst	mk_96x2_5_on
------- FILE titlescreen/asm/96x2_5_kernel.asm LEVEL 3 PASS 4
      0  6771					      include	"titlescreen/asm/96x2_5_kernel.asm"
      1  6771				   draw_bmp_96x2_5
      2  6771
      3  6771				  -	      ifconst	bmp_96x2_5_index
      4  6771				  -	      lda	#(bmp_96x2_5_height-1)
      5  6771				  -	      sec
      6  6771				  -	      sbc	bmp_96x2_5_index
      7  6771				  -	      tay
      8  6771				  -	      sbc	#bmp_96x2_5_window
      9  6771				  -	      sta	temp1
     10  6771					      else
     11  6771		       a0 04		      ldy	#(bmp_96x2_5_window-1)
     12  6773		       a9 ff		      lda	#255
     13  6775		       85 cb		      sta	temp1
     14  6777					      endif
     15  6777
     16  6777		       a9 03		      lda	#3
     17  6779		       85 04		      sta	NUSIZ0	;3=Player and Missile are drawn twice 32 clocks apart
     18  677b		       85 05		      sta	NUSIZ1	;3=Player and Missile are drawn twice 32 clocks apart
     19  677d		       a9 00		      lda	#0
     20  677f
     21  677f		       b9 bd bd 	      lda	bmp_96x2_5_colors,y	;4
     22  6782				  -	      ifconst	bmp_96x2_5_fade
     23  6782				  -	      and	bmp_96x2_5_fade
     24  6782					      endif
     25  6782		       85 06		      sta	COLUP0	;3
     26  6784		       85 07		      sta	COLUP1	;3
     27  6786		       85 2b		      sta	HMCLR	;3
     28  6788
     29  6788		       a5 82		      lda	titleframe
     30  678a		       29 01		      and	#1
     31  678c		       f0 03		      beq	jmp_pf96x2_5_frame0
     32  678e		       4c 70 b8 	      jmp	pf96x2_5_frame1
     33  6791				   jmp_pf96x2_5_frame0
     34  6791		       4c 94 b7 	      jmp	pf96x2_5_frame0
     35  6794
     36  6794				   pf96x2_5_frame0
     37  6794							;postion P0 and P1
     38  6794		       85 02		      sta	WSYNC
     39  6796		       a9 e0		      lda	#%11100000
     40  6798		       85 20		      sta	HMP0
     41  679a		       a9 10		      lda	#%00010000
     42  679c		       85 21		      sta	HMP1
     43  679e		       85 02		      sta	WSYNC
      0  67a0					      sleep	28
      1  67a0				   .CYCLES    SET	28
      2  67a0
      3  67a0				  -	      IF	.CYCLES < 2
      4  67a0				  -	      ECHO	"MACRO ERROR: 'SLEEP': Duration must be > 1"
      5  67a0				  -	      ERR
      6  67a0					      ENDIF
      7  67a0
      8  67a0				  -	      IF	.CYCLES & 1
      9  67a0				  -	      IFNCONST	NO_ILLEGAL_OPCODES
     10  67a0				  -	      nop	0
     11  67a0				  -	      ELSE
     12  67a0				  -	      bit	VSYNC
     13  67a0				  -	      ENDIF
     14  67a0				  -.CYCLES    SET	.CYCLES - 3
     15  67a0					      ENDIF
     16  67a0
     17  67a0					      REPEAT	.CYCLES / 2
     18  67a0		       ea		      nop
     17  67a0					      REPEND
     18  67a1		       ea		      nop
     17  67a1					      REPEND
     18  67a2		       ea		      nop
     17  67a2					      REPEND
     18  67a3		       ea		      nop
     17  67a3					      REPEND
     18  67a4		       ea		      nop
     17  67a4					      REPEND
     18  67a5		       ea		      nop
     17  67a5					      REPEND
     18  67a6		       ea		      nop
     17  67a6					      REPEND
     18  67a7		       ea		      nop
     17  67a7					      REPEND
     18  67a8		       ea		      nop
     17  67a8					      REPEND
     18  67a9		       ea		      nop
     17  67a9					      REPEND
     18  67aa		       ea		      nop
     17  67aa					      REPEND
     18  67ab		       ea		      nop
     17  67ab					      REPEND
     18  67ac		       ea		      nop
     17  67ac					      REPEND
     18  67ad		       ea		      nop
     19  67ae					      REPEND
     45  67ae		       85 10		      sta	RESP0
      0  67b0					      sleep	14
      1  67b0				   .CYCLES    SET	14
      2  67b0
      3  67b0				  -	      IF	.CYCLES < 2
      4  67b0				  -	      ECHO	"MACRO ERROR: 'SLEEP': Duration must be > 1"
      5  67b0				  -	      ERR
      6  67b0					      ENDIF
      7  67b0
      8  67b0				  -	      IF	.CYCLES & 1
      9  67b0				  -	      IFNCONST	NO_ILLEGAL_OPCODES
     10  67b0				  -	      nop	0
     11  67b0				  -	      ELSE
     12  67b0				  -	      bit	VSYNC
     13  67b0				  -	      ENDIF
     14  67b0				  -.CYCLES    SET	.CYCLES - 3
     15  67b0					      ENDIF
     16  67b0
     17  67b0					      REPEAT	.CYCLES / 2
     18  67b0		       ea		      nop
     17  67b0					      REPEND
     18  67b1		       ea		      nop
     17  67b1					      REPEND
     18  67b2		       ea		      nop
     17  67b2					      REPEND
     18  67b3		       ea		      nop
     17  67b3					      REPEND
     18  67b4		       ea		      nop
     17  67b4					      REPEND
     18  67b5		       ea		      nop
     17  67b5					      REPEND
     18  67b6		       ea		      nop
     19  67b7					      REPEND
     47  67b7		       85 11		      sta	RESP1
     48  67b9		       85 02		      sta	WSYNC
     49  67bb		       85 2a		      sta	HMOVE
     50  67bd
     51  67bd		       85 02		      sta	WSYNC
     52  67bf		       85 2b		      sta	HMCLR
     53  67c1		       85 02		      sta	WSYNC
     54  67c3
      0  67c3					      sleep	4
      1  67c3				   .CYCLES    SET	4
      2  67c3
      3  67c3				  -	      IF	.CYCLES < 2
      4  67c3				  -	      ECHO	"MACRO ERROR: 'SLEEP': Duration must be > 1"
      5  67c3				  -	      ERR
      6  67c3					      ENDIF
      7  67c3
      8  67c3				  -	      IF	.CYCLES & 1
      9  67c3				  -	      IFNCONST	NO_ILLEGAL_OPCODES
     10  67c3				  -	      nop	0
     11  67c3				  -	      ELSE
     12  67c3				  -	      bit	VSYNC
     13  67c3				  -	      ENDIF
     14  67c3				  -.CYCLES    SET	.CYCLES - 3
     15  67c3					      ENDIF
     16  67c3
     17  67c3					      REPEAT	.CYCLES / 2
     18  67c3		       ea		      nop
     17  67c3					      REPEND
     18  67c4		       ea		      nop
     19  67c5					      REPEND
     56  67c5		       4c 00 b8 	      jmp	pfline_96x2_5_frame0
     57  67c8							;align so our branch doesn't unexpectedly cross a page...
     58  67c8					      if	>. != >[.+$70]
     59  6800		       00 00 00 00*	      align	256
     60  6800					      endif
     61  6800
     62  6800				   pfline_96x2_5_frame0
     63  6800		       a9 80		      lda	#$80	;2
     64  6802		       85 20		      sta	HMP0	;3
     65  6804		       85 21		      sta	HMP1	;3
     66  6806
     67  6806		       b9 e0 bd 	      lda	bmp_96x2_5_06,y	;4
     68  6809		       85 1c		      sta	GRP1	;3
     69  680b
     70  680b		       b9 c2 bd 	      lda	bmp_96x2_5_00,y
     71  680e		       85 1b		      sta	GRP0
     72  6810		       b9 cc bd 	      lda	bmp_96x2_5_02,y
     73  6813		       85 1b		      sta	GRP0
     74  6815		       b9 d6 bd 	      lda	bmp_96x2_5_04,y
     75  6818		       85 1b		      sta	GRP0
     76  681a
      0  681a					      sleep	2
      1  681a				   .CYCLES    SET	2
      2  681a
      3  681a				  -	      IF	.CYCLES < 2
      4  681a				  -	      ECHO	"MACRO ERROR: 'SLEEP': Duration must be > 1"
      5  681a				  -	      ERR
      6  681a					      ENDIF
      7  681a
      8  681a				  -	      IF	.CYCLES & 1
      9  681a				  -	      IFNCONST	NO_ILLEGAL_OPCODES
     10  681a				  -	      nop	0
     11  681a				  -	      ELSE
     12  681a				  -	      bit	VSYNC
     13  681a				  -	      ENDIF
     14  681a				  -.CYCLES    SET	.CYCLES - 3
     15  681a					      ENDIF
     16  681a
     17  681a					      REPEAT	.CYCLES / 2
     18  681a		       ea		      nop
     19  681b					      REPEND
     78  681b
     79  681b		       b9 ea bd 	      lda	bmp_96x2_5_08,y
     80  681e		       85 1c		      sta	GRP1
     81  6820		       b9 f4 bd 	      lda	bmp_96x2_5_10,y
     82  6823		       85 1c		      sta	GRP1
     83  6825
     84  6825		       b9 c7 bd 	      lda	bmp_96x2_5_01,y
     85  6828		       85 1b		      sta	GRP0
     86  682a
      0  682a					      sleep	8
      1  682a				   .CYCLES    SET	8
      2  682a
      3  682a				  -	      IF	.CYCLES < 2
      4  682a				  -	      ECHO	"MACRO ERROR: 'SLEEP': Duration must be > 1"
      5  682a				  -	      ERR
      6  682a					      ENDIF
      7  682a
      8  682a				  -	      IF	.CYCLES & 1
      9  682a				  -	      IFNCONST	NO_ILLEGAL_OPCODES
     10  682a				  -	      nop	0
     11  682a				  -	      ELSE
     12  682a				  -	      bit	VSYNC
     13  682a				  -	      ENDIF
     14  682a				  -.CYCLES    SET	.CYCLES - 3
     15  682a					      ENDIF
     16  682a
     17  682a					      REPEAT	.CYCLES / 2
     18  682a		       ea		      nop
     17  682a					      REPEND
     18  682b		       ea		      nop
     17  682b					      REPEND
     18  682c		       ea		      nop
     17  682c					      REPEND
     18  682d		       ea		      nop
     19  682e					      REPEND
     88  682e
     89  682e							;sta WSYNC	;=0
     90  682e		       85 2a		      sta	HMOVE	;3 - NORMAL HMOVE
     91  6830
     92  6830		       b9 bc bd 	      lda	bmp_96x2_5_colors-1,y	;4 - get the title color early and store it for later
     93  6833				  -	      ifconst	bmp_96x2_5_fade
     94  6833				  -	      and	bmp_96x2_5_fade
     95  6833					      else
      0  6833					      sleep	3
      1  6833				   .CYCLES    SET	3
      2  6833
      3  6833				  -	      IF	.CYCLES < 2
      4  6833				  -	      ECHO	"MACRO ERROR: 'SLEEP': Duration must be > 1"
      5  6833				  -	      ERR
      6  6833					      ENDIF
      7  6833
      8  6833					      IF	.CYCLES & 1
      9  6833					      IFNCONST	NO_ILLEGAL_OPCODES
     10  6833		       04 00		      nop	0
     11  6835				  -	      ELSE
     12  6835				  -	      bit	VSYNC
     13  6835					      ENDIF
     14  6835				   .CYCLES    SET	.CYCLES - 3
     15  6835					      ENDIF
     16  6835
     17  6835				  -	      REPEAT	.CYCLES / 2
     18  6835				  -	      nop
     19  6835					      REPEND
     97  6835					      endif
     98  6835		       aa		      tax
     99  6836
    100  6836		       a9 00		      lda	#0	;2
    101  6838		       85 20		      sta	HMP0	;3
    102  683a		       85 21		      sta	HMP1	;3
    103  683c
      0  683c					      sleep	7
      1  683c				   .CYCLES    SET	7
      2  683c
      3  683c				  -	      IF	.CYCLES < 2
      4  683c				  -	      ECHO	"MACRO ERROR: 'SLEEP': Duration must be > 1"
      5  683c				  -	      ERR
      6  683c					      ENDIF
      7  683c
      8  683c					      IF	.CYCLES & 1
      9  683c					      IFNCONST	NO_ILLEGAL_OPCODES
     10  683c		       04 00		      nop	0
     11  683e				  -	      ELSE
     12  683e				  -	      bit	VSYNC
     13  683e					      ENDIF
     14  683e				   .CYCLES    SET	.CYCLES - 3
     15  683e					      ENDIF
     16  683e
     17  683e					      REPEAT	.CYCLES / 2
     18  683e		       ea		      nop
     17  683e					      REPEND
     18  683f		       ea		      nop
     19  6840					      REPEND
    105  6840
    106  6840		       b9 e5 bd 	      lda	bmp_96x2_5_07,y
    107  6843		       85 1c		      sta	GRP1
    108  6845
    109  6845		       b9 d1 bd 	      lda	bmp_96x2_5_03,y	;5
    110  6848		       85 1b		      sta	GRP0	;3 =  8
    111  684a		       b9 db bd 	      lda	bmp_96x2_5_05,y	;5
    112  684d		       85 1b		      sta	GRP0	;3 =  8
    113  684f
      0  684f					      sleep	2
      1  684f				   .CYCLES    SET	2
      2  684f
      3  684f				  -	      IF	.CYCLES < 2
      4  684f				  -	      ECHO	"MACRO ERROR: 'SLEEP': Duration must be > 1"
      5  684f				  -	      ERR
      6  684f					      ENDIF
      7  684f
      8  684f				  -	      IF	.CYCLES & 1
      9  684f				  -	      IFNCONST	NO_ILLEGAL_OPCODES
     10  684f				  -	      nop	0
     11  684f				  -	      ELSE
     12  684f				  -	      bit	VSYNC
     13  684f				  -	      ENDIF
     14  684f				  -.CYCLES    SET	.CYCLES - 3
     15  684f					      ENDIF
     16  684f
     17  684f					      REPEAT	.CYCLES / 2
     18  684f		       ea		      nop
     19  6850					      REPEND
    115  6850
    116  6850		       b9 ef bd 	      lda	bmp_96x2_5_09,y	;5
    117  6853		       85 1c		      sta	GRP1	;3 =  8
    118  6855		       b9 f9 bd 	      lda	bmp_96x2_5_11,y	;5
    119  6858		       85 1c		      sta	GRP1	;3 =  8
    120  685a
      0  685a					      sleep	2
      1  685a				   .CYCLES    SET	2
      2  685a
      3  685a				  -	      IF	.CYCLES < 2
      4  685a				  -	      ECHO	"MACRO ERROR: 'SLEEP': Duration must be > 1"
      5  685a				  -	      ERR
      6  685a					      ENDIF
      7  685a
      8  685a				  -	      IF	.CYCLES & 1
      9  685a				  -	      IFNCONST	NO_ILLEGAL_OPCODES
     10  685a				  -	      nop	0
     11  685a				  -	      ELSE
     12  685a				  -	      bit	VSYNC
     13  685a				  -	      ENDIF
     14  685a				  -.CYCLES    SET	.CYCLES - 3
     15  685a					      ENDIF
     16  685a
     17  685a					      REPEAT	.CYCLES / 2
     18  685a		       ea		      nop
     19  685b					      REPEND
    122  685b		       86 07		      stx	COLUP1
    123  685d		       86 06		      stx	COLUP0
    124  685f
    125  685f
    126  685f		       85 2a		      sta	HMOVE	;3 - CYCLE 74 HMOVE
      0  6861					      sleep	2
      1  6861				   .CYCLES    SET	2
      2  6861
      3  6861				  -	      IF	.CYCLES < 2
      4  6861				  -	      ECHO	"MACRO ERROR: 'SLEEP': Duration must be > 1"
      5  6861				  -	      ERR
      6  6861					      ENDIF
      7  6861
      8  6861				  -	      IF	.CYCLES & 1
      9  6861				  -	      IFNCONST	NO_ILLEGAL_OPCODES
     10  6861				  -	      nop	0
     11  6861				  -	      ELSE
     12  6861				  -	      bit	VSYNC
     13  6861				  -	      ENDIF
     14  6861				  -.CYCLES    SET	.CYCLES - 3
     15  6861					      ENDIF
     16  6861
     17  6861					      REPEAT	.CYCLES / 2
     18  6861		       ea		      nop
     19  6862					      REPEND
    128  6862		       88		      dey
    129  6863
    130  6863		       c4 cb		      cpy	temp1	;3
    131  6865		       d0 99		      bne	pfline_96x2_5_frame0	;2/3
    132  6867
    133  6867				   pf96x2_5_0codeend
    134  6867							;echo "critical code #1 in 96x2_5 is ",(pf96x2_5_0codeend-pfline_96x2_5_frame0), " bytes long."
    135  6867
    136  6867		       a9 00		      lda	#0
    137  6869		       85 1b		      sta	GRP0
    138  686b		       85 1c		      sta	GRP1
    139  686d		       4c 6e b9 	      jmp	pfdone_96x2_5
    140  6870
    141  6870
    142  6870				   pf96x2_5_frame1
    143  6870
    144  6870							;postion P0 and P1
    145  6870		       85 02		      sta	WSYNC
    146  6872		       a9 20		      lda	#%00100000
    147  6874		       85 20		      sta	HMP0
    148  6876		       a9 00		      lda	#0
    149  6878		       a9 f0		      lda	#%11110000
    150  687a		       85 21		      sta	HMP1
    151  687c		       85 02		      sta	WSYNC
      0  687e					      sleep	32
      1  687e				   .CYCLES    SET	32
      2  687e
      3  687e				  -	      IF	.CYCLES < 2
      4  687e				  -	      ECHO	"MACRO ERROR: 'SLEEP': Duration must be > 1"
      5  687e				  -	      ERR
      6  687e					      ENDIF
      7  687e
      8  687e				  -	      IF	.CYCLES & 1
      9  687e				  -	      IFNCONST	NO_ILLEGAL_OPCODES
     10  687e				  -	      nop	0
     11  687e				  -	      ELSE
     12  687e				  -	      bit	VSYNC
     13  687e				  -	      ENDIF
     14  687e				  -.CYCLES    SET	.CYCLES - 3
     15  687e					      ENDIF
     16  687e
     17  687e					      REPEAT	.CYCLES / 2
     18  687e		       ea		      nop
     17  687e					      REPEND
     18  687f		       ea		      nop
     17  687f					      REPEND
     18  6880		       ea		      nop
     17  6880					      REPEND
     18  6881		       ea		      nop
     17  6881					      REPEND
     18  6882		       ea		      nop
     17  6882					      REPEND
     18  6883		       ea		      nop
     17  6883					      REPEND
     18  6884		       ea		      nop
     17  6884					      REPEND
     18  6885		       ea		      nop
     17  6885					      REPEND
     18  6886		       ea		      nop
     17  6886					      REPEND
     18  6887		       ea		      nop
     17  6887					      REPEND
     18  6888		       ea		      nop
     17  6888					      REPEND
     18  6889		       ea		      nop
     17  6889					      REPEND
     18  688a		       ea		      nop
     17  688a					      REPEND
     18  688b		       ea		      nop
     17  688b					      REPEND
     18  688c		       ea		      nop
     17  688c					      REPEND
     18  688d		       ea		      nop
     19  688e					      REPEND
    153  688e		       85 10		      sta	RESP0
      0  6890					      sleep	12
      1  6890				   .CYCLES    SET	12
      2  6890
      3  6890				  -	      IF	.CYCLES < 2
      4  6890				  -	      ECHO	"MACRO ERROR: 'SLEEP': Duration must be > 1"
      5  6890				  -	      ERR
      6  6890					      ENDIF
      7  6890
      8  6890				  -	      IF	.CYCLES & 1
      9  6890				  -	      IFNCONST	NO_ILLEGAL_OPCODES
     10  6890				  -	      nop	0
     11  6890				  -	      ELSE
     12  6890				  -	      bit	VSYNC
     13  6890				  -	      ENDIF
     14  6890				  -.CYCLES    SET	.CYCLES - 3
     15  6890					      ENDIF
     16  6890
     17  6890					      REPEAT	.CYCLES / 2
     18  6890		       ea		      nop
     17  6890					      REPEND
     18  6891		       ea		      nop
     17  6891					      REPEND
     18  6892		       ea		      nop
     17  6892					      REPEND
     18  6893		       ea		      nop
     17  6893					      REPEND
     18  6894		       ea		      nop
     17  6894					      REPEND
     18  6895		       ea		      nop
     19  6896					      REPEND
    155  6896		       85 11		      sta	RESP1
    156  6898		       85 02		      sta	WSYNC
    157  689a		       85 2a		      sta	HMOVE
    158  689c
    159  689c		       85 02		      sta	WSYNC
    160  689e		       85 2b		      sta	HMCLR
    161  68a0
    162  68a0
    163  68a0
    164  68a0		       85 02		      sta	WSYNC
      0  68a2					      sleep	3
      1  68a2				   .CYCLES    SET	3
      2  68a2
      3  68a2				  -	      IF	.CYCLES < 2
      4  68a2				  -	      ECHO	"MACRO ERROR: 'SLEEP': Duration must be > 1"
      5  68a2				  -	      ERR
      6  68a2					      ENDIF
      7  68a2
      8  68a2					      IF	.CYCLES & 1
      9  68a2					      IFNCONST	NO_ILLEGAL_OPCODES
     10  68a2		       04 00		      nop	0
     11  68a4				  -	      ELSE
     12  68a4				  -	      bit	VSYNC
     13  68a4					      ENDIF
     14  68a4				   .CYCLES    SET	.CYCLES - 3
     15  68a4					      ENDIF
     16  68a4
     17  68a4				  -	      REPEAT	.CYCLES / 2
     18  68a4				  -	      nop
     19  68a4					      REPEND
    166  68a4		       4c 00 b9 	      jmp	pfline_96x2_5_frame1
    167  68a7
    168  68a7							;align so our branch doesn't unexpectedly cross a page...
    169  68a7					      if	>. != >[.+$70]
    170  6900		       00 00 00 00*	      align	256
    171  6900					      endif
    172  6900
    173  6900				   pfline_96x2_5_frame1
    174  6900
    175  6900		       85 2a		      sta	HMOVE
    176  6902
    177  6902		       b9 e5 bd 	      lda	bmp_96x2_5_07,y	;4
    178  6905		       85 1c		      sta	GRP1	;3
    179  6907
    180  6907		       a9 00		      lda	#$0	;2
    181  6909		       85 20		      sta	HMP0	;3
    182  690b		       85 21		      sta	HMP1	;3
    183  690d
    184  690d		       b9 c7 bd 	      lda	bmp_96x2_5_01,y
    185  6910		       8d 1b 00 	      sta.w	GRP0
    186  6913		       b9 d1 bd 	      lda	bmp_96x2_5_03,y
    187  6916		       85 1b		      sta	GRP0
    188  6918		       b9 db bd 	      lda	bmp_96x2_5_05,y
    189  691b		       85 1b		      sta	GRP0
    190  691d
      0  691d					      sleep	2
      1  691d				   .CYCLES    SET	2
      2  691d
      3  691d				  -	      IF	.CYCLES < 2
      4  691d				  -	      ECHO	"MACRO ERROR: 'SLEEP': Duration must be > 1"
      5  691d				  -	      ERR
      6  691d					      ENDIF
      7  691d
      8  691d				  -	      IF	.CYCLES & 1
      9  691d				  -	      IFNCONST	NO_ILLEGAL_OPCODES
     10  691d				  -	      nop	0
     11  691d				  -	      ELSE
     12  691d				  -	      bit	VSYNC
     13  691d				  -	      ENDIF
     14  691d				  -.CYCLES    SET	.CYCLES - 3
     15  691d					      ENDIF
     16  691d
     17  691d					      REPEAT	.CYCLES / 2
     18  691d		       ea		      nop
     19  691e					      REPEND
    192  691e
    193  691e		       b9 ef bd 	      lda	bmp_96x2_5_09,y
    194  6921		       85 1c		      sta	GRP1
    195  6923		       b9 f9 bd 	      lda	bmp_96x2_5_11,y
    196  6926		       85 1c		      sta	GRP1
    197  6928
    198  6928		       b9 c2 bd 	      lda	bmp_96x2_5_00,y
    199  692b		       85 1b		      sta	GRP0
    200  692d
    201  692d		       8d 2a 00 	      sta.w	HMOVE	;3 - cycle 74
    202  6930
    203  6930							;sta WSYNC	;=0 -----------------------------------------
    204  6930
    205  6930		       b9 e0 bd 	      lda	bmp_96x2_5_06,y
    206  6933		       85 1c		      sta	GRP1
    207  6935
      0  6935					      sleep	8
      1  6935				   .CYCLES    SET	8
      2  6935
      3  6935				  -	      IF	.CYCLES < 2
      4  6935				  -	      ECHO	"MACRO ERROR: 'SLEEP': Duration must be > 1"
      5  6935				  -	      ERR
      6  6935					      ENDIF
      7  6935
      8  6935				  -	      IF	.CYCLES & 1
      9  6935				  -	      IFNCONST	NO_ILLEGAL_OPCODES
     10  6935				  -	      nop	0
     11  6935				  -	      ELSE
     12  6935				  -	      bit	VSYNC
     13  6935				  -	      ENDIF
     14  6935				  -.CYCLES    SET	.CYCLES - 3
     15  6935					      ENDIF
     16  6935
     17  6935					      REPEAT	.CYCLES / 2
     18  6935		       ea		      nop
     17  6935					      REPEND
     18  6936		       ea		      nop
     17  6936					      REPEND
     18  6937		       ea		      nop
     17  6937					      REPEND
     18  6938		       ea		      nop
     19  6939					      REPEND
    209  6939
    210  6939		       b9 bc bd 	      lda	bmp_96x2_5_colors-1,y	;get the title color early and store it for later
    211  693c		       aa		      tax		;2
    212  693d
      0  693d					      sleep	3
      1  693d				   .CYCLES    SET	3
      2  693d
      3  693d				  -	      IF	.CYCLES < 2
      4  693d				  -	      ECHO	"MACRO ERROR: 'SLEEP': Duration must be > 1"
      5  693d				  -	      ERR
      6  693d					      ENDIF
      7  693d
      8  693d					      IF	.CYCLES & 1
      9  693d					      IFNCONST	NO_ILLEGAL_OPCODES
     10  693d		       04 00		      nop	0
     11  693f				  -	      ELSE
     12  693f				  -	      bit	VSYNC
     13  693f					      ENDIF
     14  693f				   .CYCLES    SET	.CYCLES - 3
     15  693f					      ENDIF
     16  693f
     17  693f				  -	      REPEAT	.CYCLES / 2
     18  693f				  -	      nop
     19  693f					      REPEND
    214  693f
    215  693f		       a9 80		      lda	#$80	;2
    216  6941		       85 20		      sta	HMP0	;3
    217  6943		       85 21		      sta	HMP1	;3
    218  6945
    219  6945
    220  6945		       b9 cc bd 	      lda	bmp_96x2_5_02,y	;5
    221  6948		       85 1b		      sta	GRP0	;3 =  8
    222  694a
    223  694a		       b9 d6 bd 	      lda	bmp_96x2_5_04,y	;5
    224  694d		       85 1b		      sta	GRP0	;3 =  8
    225  694f
      0  694f					      sleep	2
      1  694f				   .CYCLES    SET	2
      2  694f
      3  694f				  -	      IF	.CYCLES < 2
      4  694f				  -	      ECHO	"MACRO ERROR: 'SLEEP': Duration must be > 1"
      5  694f				  -	      ERR
      6  694f					      ENDIF
      7  694f
      8  694f				  -	      IF	.CYCLES & 1
      9  694f				  -	      IFNCONST	NO_ILLEGAL_OPCODES
     10  694f				  -	      nop	0
     11  694f				  -	      ELSE
     12  694f				  -	      bit	VSYNC
     13  694f				  -	      ENDIF
     14  694f				  -.CYCLES    SET	.CYCLES - 3
     15  694f					      ENDIF
     16  694f
     17  694f					      REPEAT	.CYCLES / 2
     18  694f		       ea		      nop
     19  6950					      REPEND
    227  6950
    228  6950		       b9 ea bd 	      lda	bmp_96x2_5_08,y	;5
    229  6953		       85 1c		      sta	GRP1	;3 =  8
    230  6955
    231  6955		       b9 f4 bd 	      lda	bmp_96x2_5_10,y	;5
    232  6958		       85 1c		      sta	GRP1	;3 =  8
    233  695a
      0  695a					      sleep	4
      1  695a				   .CYCLES    SET	4
      2  695a
      3  695a				  -	      IF	.CYCLES < 2
      4  695a				  -	      ECHO	"MACRO ERROR: 'SLEEP': Duration must be > 1"
      5  695a				  -	      ERR
      6  695a					      ENDIF
      7  695a
      8  695a				  -	      IF	.CYCLES & 1
      9  695a				  -	      IFNCONST	NO_ILLEGAL_OPCODES
     10  695a				  -	      nop	0
     11  695a				  -	      ELSE
     12  695a				  -	      bit	VSYNC
     13  695a				  -	      ENDIF
     14  695a				  -.CYCLES    SET	.CYCLES - 3
     15  695a					      ENDIF
     16  695a
     17  695a					      REPEAT	.CYCLES / 2
     18  695a		       ea		      nop
     17  695a					      REPEND
     18  695b		       ea		      nop
     19  695c					      REPEND
    235  695c
    236  695c		       88		      dey
    237  695d
    238  695d		       8a		      txa
    239  695e				  -	      ifconst	bmp_96x2_5_fade
    240  695e				  -	      and	bmp_96x2_5_fade
    241  695e					      else
      0  695e					      sleep	3
      1  695e				   .CYCLES    SET	3
      2  695e
      3  695e				  -	      IF	.CYCLES < 2
      4  695e				  -	      ECHO	"MACRO ERROR: 'SLEEP': Duration must be > 1"
      5  695e				  -	      ERR
      6  695e					      ENDIF
      7  695e
      8  695e					      IF	.CYCLES & 1
      9  695e					      IFNCONST	NO_ILLEGAL_OPCODES
     10  695e		       04 00		      nop	0
     11  6960				  -	      ELSE
     12  6960				  -	      bit	VSYNC
     13  6960					      ENDIF
     14  6960				   .CYCLES    SET	.CYCLES - 3
     15  6960					      ENDIF
     16  6960
     17  6960				  -	      REPEAT	.CYCLES / 2
     18  6960				  -	      nop
     19  6960					      REPEND
    243  6960					      endif
    244  6960		       85 07		      sta	COLUP1	;3
    245  6962		       85 06		      sta	COLUP0	;3
    246  6964
    247  6964		       c4 cb		      cpy	temp1	;2
    248  6966		       d0 98		      bne	pfline_96x2_5_frame1	;2/3
    249  6968
    250  6968				   pf96x2_5_1codeend
    251  6968							;echo "critical code #2 in 96x2_5 is ",(pf96x2_5_1codeend-pfline_96x2_5_frame1), " bytes long."
    252  6968
    253  6968		       a9 00		      lda	#0
    254  696a		       85 1b		      sta	GRP0
    255  696c		       85 1c		      sta	GRP1
    256  696e
    257  696e				   pfdone_96x2_5
    258  696e		       85 02		      sta	WSYNC	; debug
    259  6970
    260  6970		       60		      rts
------- FILE titlescreen/asm/titlescreen.asm
    165  6971					      endif		;mk_96x2_5_on
    166  6971
    167  6971				  -	      ifconst	mk_96x2_6_on
    168  6971				  -	      include	"titlescreen/asm/96x2_6_kernel.asm"
    169  6971					      endif		;mk_96x2_6_on
    170  6971
    171  6971				  -	      ifconst	mk_96x2_7_on
    172  6971				  -	      include	"titlescreen/asm/96x2_7_kernel.asm"
    173  6971					      endif		;mk_96x2_7_on
    174  6971
    175  6971				  -	      ifconst	mk_96x2_8_on
    176  6971				  -	      include	"titlescreen/asm/96x2_8_kernel.asm"
    177  6971					      endif		;mk_96x2_8_on
    178  6971
    179  6971					      ifconst	mk_score_on
------- FILE titlescreen/asm/score_kernel.asm LEVEL 3 PASS 4
      0  6971					      include	"titlescreen/asm/score_kernel.asm"
      1  6971							; The batari Basic score kernel
      2  6971							; This minikernel is not under the same license as the rest of the
      3  6971							; titlescreen code. Refer to the bB license before you use this in
      4  6971							; a non-bB program.
      5  6971
      6  6971				   draw_score_display
      7  6971
      8  6971		       a7 b8		      lax	score+0
      9  6973		       20 43 ba 	      jsr	miniscorepointerset
     10  6976		       84 b3		      sty	scorepointers+8
     11  6978		       86 ab		      stx	scorepointers+0
     12  697a		       a7 b9		      lax	score+1
     13  697c		       20 43 ba 	      jsr	miniscorepointerset
     14  697f		       84 af		      sty	scorepointers+4
     15  6981		       86 b1		      stx	scorepointers+6
     16  6983		       a7 ba		      lax	score+2
     17  6985		       20 43 ba 	      jsr	miniscorepointerset
     18  6988		       84 b5		      sty	scorepointers+10
     19  698a		       86 ad		      stx	scorepointers+2
     20  698c
     21  698c		       85 2b		      sta	HMCLR
     22  698e		       ba		      tsx
     23  698f		       86 f6		      stx	stack1
     24  6991							;ldx #$20
     25  6991		       a2 60		      ldx	#$60
     26  6993		       86 20		      stx	HMP0
     27  6995
     28  6995		       a2 00		      ldx	#0
     29  6997		       85 02		      sta	WSYNC	;   0
     30  6999		       86 1b		      STx	GRP0	; 3 3
     31  699b		       86 1c		      STx	GRP1	; 3 6 seems to be needed because of vdel
     32  699d
      0  699d					      sleep	7	; 7 13
      1  699d				   .CYCLES    SET	7
      2  699d
      3  699d				  -	      IF	.CYCLES < 2
      4  699d				  -	      ECHO	"MACRO ERROR: 'SLEEP': Duration must be > 1"
      5  699d				  -	      ERR
      6  699d					      ENDIF
      7  699d
      8  699d					      IF	.CYCLES & 1
      9  699d					      IFNCONST	NO_ILLEGAL_OPCODES
     10  699d		       04 00		      nop	0
     11  699f				  -	      ELSE
     12  699f				  -	      bit	VSYNC
     13  699f					      ENDIF
     14  699f				   .CYCLES    SET	.CYCLES - 3
     15  699f					      ENDIF
     16  699f
     17  699f					      REPEAT	.CYCLES / 2
     18  699f		       ea		      nop
     17  699f					      REPEND
     18  69a0		       ea		      nop
     19  69a1					      REPEND
     34  69a1
     35  69a1		       a9 be		      lda	#>miniscoretable	; 2 15
     36  69a3		       95 ac		      sta	scorepointers+1,x	; 4 19
     37  69a5		       95 ae		      sta	scorepointers+3,x	; 4 23
     38  69a7		       95 b0		      sta	scorepointers+5,x	; 4 27
     39  69a9		       95 b2		      sta	scorepointers+7,x	; 4 31
     40  69ab		       95 b4		      sta	scorepointers+9,x	; 4 35
     41  69ad		       95 b6		      sta	scorepointers+11,x	; 4 39
     42  69af
     43  69af		       a0 07		      LDY	#7	; 2 41
     44  69b1		       85 10		      STA	RESP0	; 3 44
     45  69b3		       85 11		      STA	RESP1	; 3 47
     46  69b5
     47  69b5		       a9 03		      LDA	#$03	; 2 49
     48  69b7		       85 04		      STA	NUSIZ0	; 3 52
     49  69b9		       95 05		      STA	NUSIZ1,x	; 4 56
     50  69bb		       85 25		      STA	VDELP0	; 3 59
     51  69bd		       85 26		      STA	VDELP1	; 3 62
     52  69bf							;LDA #$30		; 2 64
     53  69bf		       a9 70		      LDA	#$70	; 2 64
     54  69c1		       85 21		      STA	HMP1	; 3 67
     55  69c3		       a5 eb		      LDA	scorecolor	; 3 70
     56  69c5		       85 2a		      STA	HMOVE	; cycle 73 ?
     57  69c7				  -	      ifconst	score_kernel_fade
     58  69c7				  -	      and	score_kernel_fade
     59  69c7					      endif
     60  69c7
     61  69c7		       85 06		      STA	COLUP0
     62  69c9		       85 07		      STA	COLUP1
     63  69cb				  -	      ifconst	scorefade
     64  69cb				  -	      STA	stack2	; scorefade
     65  69cb					      endif
     66  69cb		       b1 ab		      lda	(scorepointers),y
     67  69cd		       85 1b		      sta	GRP0
     68  69cf		       b1 b3		      lda	(scorepointers+8),y
     69  69d1		       85 02		      sta	WSYNC
      0  69d3					      sleep	2
      1  69d3				   .CYCLES    SET	2
      2  69d3
      3  69d3				  -	      IF	.CYCLES < 2
      4  69d3				  -	      ECHO	"MACRO ERROR: 'SLEEP': Duration must be > 1"
      5  69d3				  -	      ERR
      6  69d3					      ENDIF
      7  69d3
      8  69d3				  -	      IF	.CYCLES & 1
      9  69d3				  -	      IFNCONST	NO_ILLEGAL_OPCODES
     10  69d3				  -	      nop	0
     11  69d3				  -	      ELSE
     12  69d3				  -	      bit	VSYNC
     13  69d3				  -	      ENDIF
     14  69d3				  -.CYCLES    SET	.CYCLES - 3
     15  69d3					      ENDIF
     16  69d3
     17  69d3					      REPEAT	.CYCLES / 2
     18  69d3		       ea		      nop
     19  69d4					      REPEND
     71  69d4		       4c 0b ba 	      jmp	beginscoreloop
     72  69d7
     73  69d7					      if	((<*)>$28)
     74  6a00		       00 00 00 00*	      align	256	; kludge that potentially wastes space!  should be fixed!
     75  6a00					      endif
     76  6a00
     77  6a00				   scoreloop2
     78  6a00				  -	      ifconst	scorefade
     79  6a00				  -	      lda	stack2
     80  6a00				  -	      sta	COLUP0
     81  6a00				  -	      sta	COLUP1
     82  6a00					      else
      0  6a00					      sleep	9
      1  6a00				   .CYCLES    SET	9
      2  6a00
      3  6a00				  -	      IF	.CYCLES < 2
      4  6a00				  -	      ECHO	"MACRO ERROR: 'SLEEP': Duration must be > 1"
      5  6a00				  -	      ERR
      6  6a00					      ENDIF
      7  6a00
      8  6a00					      IF	.CYCLES & 1
      9  6a00					      IFNCONST	NO_ILLEGAL_OPCODES
     10  6a00		       04 00		      nop	0
     11  6a02				  -	      ELSE
     12  6a02				  -	      bit	VSYNC
     13  6a02					      ENDIF
     14  6a02				   .CYCLES    SET	.CYCLES - 3
     15  6a02					      ENDIF
     16  6a02
     17  6a02					      REPEAT	.CYCLES / 2
     18  6a02		       ea		      nop
     17  6a02					      REPEND
     18  6a03		       ea		      nop
     17  6a03					      REPEND
     18  6a04		       ea		      nop
     19  6a05					      REPEND
     84  6a05					      endif
     85  6a05		       b1 ab		      lda	(scorepointers),y	;+5  68  204
     86  6a07		       85 1b		      sta	GRP0	;+3  71  213	   D1	  --	  --	 --
     87  6a09		       b1 b3		      lda	(scorepointers+$8),y	;+5   5   15
     88  6a0b							; cycle 0
     89  6a0b				   beginscoreloop
     90  6a0b		       85 1c		      sta	GRP1	;+3   8   24	   D1	  D1	  D2	 --
     91  6a0d		       b1 b1		      lda	(scorepointers+$6),y	;+5  13   39
     92  6a0f		       85 1b		      sta	GRP0	;+3  16   48	   D3	  D1	  D2	 D2
     93  6a11		       b3 ad		      lax	(scorepointers+$2),y	;+5  29   87
     94  6a13		       9a		      txs
     95  6a14		       b3 af		      lax	(scorepointers+$4),y	;+5  36  108
     96  6a16
     97  6a16				  -	      ifconst	scorefade
     98  6a16				  -	      dec	stack2
     99  6a16					      else
      0  6a16					      sleep	5
      1  6a16				   .CYCLES    SET	5
      2  6a16
      3  6a16				  -	      IF	.CYCLES < 2
      4  6a16				  -	      ECHO	"MACRO ERROR: 'SLEEP': Duration must be > 1"
      5  6a16				  -	      ERR
      6  6a16					      ENDIF
      7  6a16
      8  6a16					      IF	.CYCLES & 1
      9  6a16					      IFNCONST	NO_ILLEGAL_OPCODES
     10  6a16		       04 00		      nop	0
     11  6a18				  -	      ELSE
     12  6a18				  -	      bit	VSYNC
     13  6a18					      ENDIF
     14  6a18				   .CYCLES    SET	.CYCLES - 3
     15  6a18					      ENDIF
     16  6a18
     17  6a18					      REPEAT	.CYCLES / 2
     18  6a18		       ea		      nop
     19  6a19					      REPEND
    101  6a19					      endif
      0  6a19					      sleep	2
      1  6a19				   .CYCLES    SET	2
      2  6a19
      3  6a19				  -	      IF	.CYCLES < 2
      4  6a19				  -	      ECHO	"MACRO ERROR: 'SLEEP': Duration must be > 1"
      5  6a19				  -	      ERR
      6  6a19					      ENDIF
      7  6a19
      8  6a19				  -	      IF	.CYCLES & 1
      9  6a19				  -	      IFNCONST	NO_ILLEGAL_OPCODES
     10  6a19				  -	      nop	0
     11  6a19				  -	      ELSE
     12  6a19				  -	      bit	VSYNC
     13  6a19				  -	      ENDIF
     14  6a19				  -.CYCLES    SET	.CYCLES - 3
     15  6a19					      ENDIF
     16  6a19
     17  6a19					      REPEAT	.CYCLES / 2
     18  6a19		       ea		      nop
     19  6a1a					      REPEND
    103  6a1a
    104  6a1a		       b1 b5		      lda	(scorepointers+$A),y	;+5  21   63 DIGIT 6
    105  6a1c		       86 1c		      stx	GRP1	;+3  44  132	   D3	  D3	  D4	 D2!
    106  6a1e		       ba		      tsx
    107  6a1f		       86 1b		      stx	GRP0	;+3  47  141	   D5	  D3!	  D4	 D4
    108  6a21		       85 1c		      sta	GRP1	;+3  50  150	   D5	  D5	  D6	 D4!
    109  6a23
    110  6a23		       84 1b		      sty	GRP0	;+3  53  159	   D4*	  D5!	  D6	 D6
    111  6a25		       88		      dey
    112  6a26		       10 d8		      bpl	scoreloop2	;+2  60  180
    113  6a28				   scoreloop2end
    114  6a28
    115  6a28							;echo "critical size: ",(scoreloop2end-scoreloop2)
    116  6a28
    117  6a28
    118  6a28		       a6 f6		      ldx	stack1
    119  6a2a		       9a		      txs
    120  6a2b
    121  6a2b		       a9 00		      LDA	#0
    122  6a2d		       85 0e		      sta	PF1
    123  6a2f		       85 1b		      STA	GRP0
    124  6a31		       85 1c		      STA	GRP1
    125  6a33		       85 25		      STA	VDELP0
    126  6a35		       85 26		      STA	VDELP1
    127  6a37		       85 04		      STA	NUSIZ0
    128  6a39		       85 05		      STA	NUSIZ1
    129  6a3b
    130  6a3b							; clear out the score pointers in case they're stolen DPC variables...
    131  6a3b		       a2 0b		      ldx	#11
    132  6a3d				   clearscoreploop
    133  6a3d		       95 ab		      sta	scorepointers,x
    134  6a3f		       ca		      dex
    135  6a40		       10 fb		      bpl	clearscoreploop
    136  6a42
    137  6a42
    138  6a42							;;ldy temp3
    139  6a42							;ldy scorepointers+8
    140  6a42							;sty scorepointers+3
    141  6a42
    142  6a42							;;ldy temp5
    143  6a42							;ldy scorepointers+10
    144  6a42							;sty scorepointers+5
    145  6a42		       60		      rts
    146  6a43
    147  6a43				   miniscorepointerset
    148  6a43		       29 0f		      and	#$0F
    149  6a45		       0a		      asl
    150  6a46		       0a		      asl
    151  6a47		       0a		      asl
    152  6a48		       69 00		      adc	#<miniscoretable
    153  6a4a		       a8		      tay
    154  6a4b		       8a		      txa
    155  6a4c		       29 f0		      and	#$F0
    156  6a4e		       4a		      lsr
    157  6a4f		       69 00		      adc	#<miniscoretable
    158  6a51		       aa		      tax
    159  6a52		       60		      rts
    160  6a53
------- FILE titlescreen/asm/titlescreen.asm
    181  6a53					      endif		;mk_score_on
    182  6a53
    183  6a53					      ifconst	mk_gameselect_on
------- FILE titlescreen/asm/gameselect_kernel.asm LEVEL 3 PASS 4
      0  6a53					      include	"titlescreen/asm/gameselect_kernel.asm"
      1  6a53
      2  6a53				   draw_gameselect_display
      3  6a53		       a9 00		      lda	#0
      4  6a55		       85 1b		      sta	GRP0
      5  6a57		       85 1c		      sta	GRP1
      6  6a59
      7  6a59		       a0 04		      ldy	#4
      8  6a5b		       84 91		      sty	aux2
      9  6a5d
     10  6a5d		       ad 50 be 	      lda	bmp_gameselect_color
     11  6a60		       85 06		      sta	COLUP0
     12  6a62		       85 07		      sta	COLUP1
     13  6a64
     14  6a64							;change gamenumber to a BCD number and stick it in temp5
     15  6a64		       a5 e5		      lda	gamenumber
     16  6a66		       85 cd		      sta	temp3
     17  6a68		       a9 00		      lda	#0
     18  6a6a		       85 ce		      sta	temp4
     19  6a6c		       a2 08		      ldx	#8
     20  6a6e		       18		      clc
     21  6a6f		       f8		      sed
     22  6a70				   converttobcd
     23  6a70		       06 cd		      asl	temp3
     24  6a72		       a5 ce		      lda	temp4
     25  6a74		       65 ce		      adc	temp4
     26  6a76		       85 ce		      sta	temp4
     27  6a78		       ca		      dex
     28  6a79		       d0 f5		      bne	converttobcd
     29  6a7b		       d8		      cld
     30  6a7c
     31  6a7c		       a5 ce		      lda	temp4
     32  6a7e		       29 0f		      and	#$0f
     33  6a80		       85 cd		      sta	temp3
     34  6a82		       0a		      asl
     35  6a83		       0a		      asl
     36  6a84		       18		      clc
     37  6a85		       65 cd		      adc	temp3	; *5
     38  6a87		       18		      clc
     39  6a88		       69 65		      adc	#<(font_gameselect_img)
     40  6a8a		       85 b5		      sta	scorepointers+10
     41  6a8c
     42  6a8c		       a5 ce		      lda	temp4
     43  6a8e		       29 f0		      and	#$f0
     44  6a90		       4a		      lsr
     45  6a91		       4a		      lsr
     46  6a92		       85 cd		      sta	temp3
     47  6a94		       4a		      lsr
     48  6a95		       4a		      lsr
     49  6a96		       18		      clc
     50  6a97		       65 cd		      adc	temp3	; *5
     51  6a99		       18		      clc
     52  6a9a		       69 65		      adc	#<(font_gameselect_img)
     53  6a9c		       85 b3		      sta	scorepointers+8
     54  6a9e
     55  6a9e
     56  6a9e							;setup score pointers to point at my bitmap slices instead
     57  6a9e		       a9 51		      lda	#<(bmp_gameselect_CHAR0)
     58  6aa0		       85 ab		      sta	scorepointers+0
     59  6aa2		       a9 be		      lda	#>(bmp_gameselect_CHAR0)
     60  6aa4		       85 ac		      sta	scorepointers+1
     61  6aa6		       a9 56		      lda	#<(bmp_gameselect_CHAR1)
     62  6aa8		       85 ad		      sta	scorepointers+2
     63  6aaa		       a9 be		      lda	#>(bmp_gameselect_CHAR1)
     64  6aac		       85 ae		      sta	scorepointers+3
     65  6aae		       a9 5b		      lda	#<(bmp_gameselect_CHAR2)
     66  6ab0		       85 af		      sta	scorepointers+4
     67  6ab2		       a9 be		      lda	#>(bmp_gameselect_CHAR2)
     68  6ab4		       85 b0		      sta	scorepointers+5
     69  6ab6		       a9 60		      lda	#<(bmp_gameselect_CHAR3)
     70  6ab8		       85 b1		      sta	scorepointers+6
     71  6aba		       a9 be		      lda	#>(bmp_gameselect_CHAR3)
     72  6abc		       85 b2		      sta	scorepointers+7
     73  6abe
     74  6abe		       a9 be		      lda	#>(font_gameselect_img)
     75  6ac0		       85 b4		      sta	scorepointers+9
     76  6ac2
     77  6ac2		       a9 be		      lda	#>(font_gameselect_img)
     78  6ac4		       85 b6		      sta	scorepointers+11
     79  6ac6
     80  6ac6		       4c 58 b1 	      jmp	draw_bmp_48x1_X
------- FILE titlescreen/asm/titlescreen.asm
    185  6ac9					      endif		;mk_gameselect_on
    186  6ac9
    187  6ac9				   PFWAIT
    188  6ac9		       ad 84 02 	      lda	INTIM
    189  6acc		       d0 fb		      bne	PFWAIT
    190  6ace		       85 02		      sta	WSYNC
    191  6ad0
    192  6ad0				   OVERSCAN
    193  6ad0				  -	      ifnconst	overscan_time
    194  6ad0				  -	      lda	#34+128
    195  6ad0					      else
    196  6ad0		       a9 a0		      lda	#overscan_time+128-5
    197  6ad2					      endif
    198  6ad2		       8d 96 02 	      sta	TIM64T
    199  6ad5
    200  6ad5							;fix height variables we borrowed, so DPC doesn't crash on drawscreen...
    201  6ad5					      ifconst	player9height
    202  6ad5		       a0 08		      ldy	#8
    203  6ad7		       a9 00		      lda	#0
    204  6ad9		       85 a5		      sta	player0height
    205  6adb				   .playerheightfixloop
    206  6adb		       99 a6 00 	      sta	player1height,y
    207  6ade					      ifconst	_NUSIZ1
    208  6ade		       99 af 00 	      sta	_NUSIZ1,y
    209  6ae1					      endif
    210  6ae1		       88		      dey
    211  6ae2		       10 f7		      bpl	.playerheightfixloop
    212  6ae4					      endif
    213  6ae4
    214  6ae4		       a9 c2		      lda	#%11000010
    215  6ae6		       85 02		      sta	WSYNC
    216  6ae8		       85 01		      sta	VBLANK
      0  6aea					      RETURN
      1  6aea				  -	      ifnconst	bankswitch
      2  6aea				  -	      rts
      3  6aea					      else
      4  6aea		       4c e0 df 	      jmp	BS_return
      5  6aed					      endif
    218  6aed
    219  6aed					      ifconst	mk_48x1_1_on
------- FILE titlescreen/48x1_1_image.asm LEVEL 3 PASS 4
      0  6aed					      include	"titlescreen/48x1_1_image.asm"
      1  6aed
      2  6aed							;*** The height of the displayed data...
      3  6aed		       00 32	   bmp_48x1_1_window =	50
      4  6aed
      5  6aed							;*** The height of the bitmap data. This can be larger than
      6  6aed							;*** the displayed data height, if you're scrolling or animating
      7  6aed							;*** the data...
      8  6aed		       00 32	   bmp_48x1_1_height =	50
      9  6aed
     10  6aed				  -	      ifnconst	bmp_48x1_1_PF1
     11  6aed				  -bmp_48x1_1_PF1
     12  6aed					      endif
     13  6aed		       00		      BYTE.b	%00000000
     14  6aee				  -	      ifnconst	bmp_48x1_1_PF2
     15  6aee				  -bmp_48x1_1_PF2
     16  6aee					      endif
     17  6aee		       00		      BYTE.b	%00000000
     18  6aef				  -	      ifnconst	bmp_48x1_1_background
     19  6aef				  -bmp_48x1_1_background
     20  6aef					      endif
     21  6aef		       c2		      BYTE.b	$c2
     22  6af0
     23  6af0				  -	      ifnconst	bmp_48x1_1_color
     24  6af0				  -bmp_48x1_1_color
     25  6af0					      endif
     26  6af0							; *** this is the bitmap color. If you want to change it in a
     27  6af0							; *** variable instead, dim one in bB called "bmp_48x1_1_color"
     28  6af0		       c6		      .byte.b	$C6
     29  6af1
     30  6af1
     31  6af1					      if	>. != >[.+bmp_48x1_1_height]
     32  6b00		       00 00 00 00*	      align	256
     33  6b00					      endif
     34  6b00
     35  6b00				   bmp_48x1_1_00
     36  6b00							; *** replace this block with your bimap_00 data block...
     37  6b00		       00		      BYTE.b	%00000000
     38  6b01		       00		      BYTE.b	%00000000
     39  6b02		       01		      BYTE.b	%00000001
     40  6b03		       03		      BYTE.b	%00000011
     41  6b04		       07		      BYTE.b	%00000111
     42  6b05		       07		      BYTE.b	%00000111
     43  6b06		       0f		      BYTE.b	%00001111
     44  6b07		       1f		      BYTE.b	%00011111
     45  6b08		       1f		      BYTE.b	%00011111
     46  6b09		       1f		      BYTE.b	%00011111
     47  6b0a		       3f		      BYTE.b	%00111111
     48  6b0b		       3f		      BYTE.b	%00111111
     49  6b0c		       3f		      BYTE.b	%00111111
     50  6b0d		       3f		      BYTE.b	%00111111
     51  6b0e		       7f		      BYTE.b	%01111111
     52  6b0f		       7f		      BYTE.b	%01111111
     53  6b10		       7f		      BYTE.b	%01111111
     54  6b11		       7f		      BYTE.b	%01111111
     55  6b12		       7f		      BYTE.b	%01111111
     56  6b13		       7f		      BYTE.b	%01111111
     57  6b14		       7f		      BYTE.b	%01111111
     58  6b15		       7f		      BYTE.b	%01111111
     59  6b16		       7f		      BYTE.b	%01111111
     60  6b17		       7f		      BYTE.b	%01111111
     61  6b18		       7f		      BYTE.b	%01111111
     62  6b19		       7f		      BYTE.b	%01111111
     63  6b1a		       7f		      BYTE.b	%01111111
     64  6b1b		       3f		      BYTE.b	%00111111
     65  6b1c		       3f		      BYTE.b	%00111111
     66  6b1d		       3f		      BYTE.b	%00111111
     67  6b1e		       3f		      BYTE.b	%00111111
     68  6b1f		       1f		      BYTE.b	%00011111
     69  6b20		       1f		      BYTE.b	%00011111
     70  6b21		       1f		      BYTE.b	%00011111
     71  6b22		       0f		      BYTE.b	%00001111
     72  6b23		       0f		      BYTE.b	%00001111
     73  6b24		       07		      BYTE.b	%00000111
     74  6b25		       03		      BYTE.b	%00000011
     75  6b26		       01		      BYTE.b	%00000001
     76  6b27		       00		      BYTE.b	%00000000
     77  6b28		       00		      BYTE.b	%00000000
     78  6b29		       00		      BYTE.b	%00000000
     79  6b2a		       00		      BYTE.b	%00000000
     80  6b2b		       00		      BYTE.b	%00000000
     81  6b2c		       00		      BYTE.b	%00000000
     82  6b2d		       00		      BYTE.b	%00000000
     83  6b2e		       00		      BYTE.b	%00000000
     84  6b2f		       00		      BYTE.b	%00000000
     85  6b30		       00		      BYTE.b	%00000000
     86  6b31		       00		      BYTE.b	%00000000
     87  6b32
     88  6b32
     89  6b32
     90  6b32				  -	      if	>. != >[.+bmp_48x1_1_height]
     91  6b32				  -	      align	256
     92  6b32					      endif
     93  6b32
     94  6b32
     95  6b32				   bmp_48x1_1_01
     96  6b32							; *** replace this block with your bimap_01 data block...
     97  6b32		       00		      BYTE.b	%00000000
     98  6b33		       20		      BYTE.b	%00100000
     99  6b34		       f8		      BYTE.b	%11111000
    100  6b35		       fc		      BYTE.b	%11111100
    101  6b36		       fe		      BYTE.b	%11111110
    102  6b37		       ff		      BYTE.b	%11111111
    103  6b38		       ff		      BYTE.b	%11111111
    104  6b39		       ff		      BYTE.b	%11111111
    105  6b3a		       ff		      BYTE.b	%11111111
    106  6b3b		       ff		      BYTE.b	%11111111
    107  6b3c		       ff		      BYTE.b	%11111111
    108  6b3d		       ff		      BYTE.b	%11111111
    109  6b3e		       ff		      BYTE.b	%11111111
    110  6b3f		       ff		      BYTE.b	%11111111
    111  6b40		       ff		      BYTE.b	%11111111
    112  6b41		       ff		      BYTE.b	%11111111
    113  6b42		       ff		      BYTE.b	%11111111
    114  6b43		       ff		      BYTE.b	%11111111
    115  6b44		       ff		      BYTE.b	%11111111
    116  6b45		       ff		      BYTE.b	%11111111
    117  6b46		       ff		      BYTE.b	%11111111
    118  6b47		       ff		      BYTE.b	%11111111
    119  6b48		       ff		      BYTE.b	%11111111
    120  6b49		       ff		      BYTE.b	%11111111
    121  6b4a		       ff		      BYTE.b	%11111111
    122  6b4b		       ff		      BYTE.b	%11111111
    123  6b4c		       ff		      BYTE.b	%11111111
    124  6b4d		       ff		      BYTE.b	%11111111
    125  6b4e		       ff		      BYTE.b	%11111111
    126  6b4f		       ff		      BYTE.b	%11111111
    127  6b50		       ff		      BYTE.b	%11111111
    128  6b51		       ff		      BYTE.b	%11111111
    129  6b52		       ff		      BYTE.b	%11111111
    130  6b53		       ff		      BYTE.b	%11111111
    131  6b54		       ff		      BYTE.b	%11111111
    132  6b55		       ff		      BYTE.b	%11111111
    133  6b56		       fe		      BYTE.b	%11111110
    134  6b57		       f8		      BYTE.b	%11111000
    135  6b58		       68		      BYTE.b	%01101000
    136  6b59		       60		      BYTE.b	%01100000
    137  6b5a		       00		      BYTE.b	%00000000
    138  6b5b		       00		      BYTE.b	%00000000
    139  6b5c		       00		      BYTE.b	%00000000
    140  6b5d		       00		      BYTE.b	%00000000
    141  6b5e		       00		      BYTE.b	%00000000
    142  6b5f		       00		      BYTE.b	%00000000
    143  6b60		       00		      BYTE.b	%00000000
    144  6b61		       00		      BYTE.b	%00000000
    145  6b62		       00		      BYTE.b	%00000000
    146  6b63		       00		      BYTE.b	%00000000
    147  6b64
    148  6b64
    149  6b64
    150  6b64				  -	      if	>. != >[.+bmp_48x1_1_height]
    151  6b64				  -	      align	256
    152  6b64					      endif
    153  6b64
    154  6b64
    155  6b64				   bmp_48x1_1_02
    156  6b64							; *** replace this block with your bimap_02 data block...
    157  6b64		       00		      BYTE.b	%00000000
    158  6b65		       00		      BYTE.b	%00000000
    159  6b66		       00		      BYTE.b	%00000000
    160  6b67		       00		      BYTE.b	%00000000
    161  6b68		       00		      BYTE.b	%00000000
    162  6b69		       00		      BYTE.b	%00000000
    163  6b6a		       00		      BYTE.b	%00000000
    164  6b6b		       80		      BYTE.b	%10000000
    165  6b6c		       80		      BYTE.b	%10000000
    166  6b6d		       c0		      BYTE.b	%11000000
    167  6b6e		       c0		      BYTE.b	%11000000
    168  6b6f		       c0		      BYTE.b	%11000000
    169  6b70		       c0		      BYTE.b	%11000000
    170  6b71		       e0		      BYTE.b	%11100000
    171  6b72		       e0		      BYTE.b	%11100000
    172  6b73		       e0		      BYTE.b	%11100000
    173  6b74		       e0		      BYTE.b	%11100000
    174  6b75		       e0		      BYTE.b	%11100000
    175  6b76		       ff		      BYTE.b	%11111111
    176  6b77		       ff		      BYTE.b	%11111111
    177  6b78		       ff		      BYTE.b	%11111111
    178  6b79		       e0		      BYTE.b	%11100000
    179  6b7a		       e0		      BYTE.b	%11100000
    180  6b7b		       e0		      BYTE.b	%11100000
    181  6b7c		       e0		      BYTE.b	%11100000
    182  6b7d		       e0		      BYTE.b	%11100000
    183  6b7e		       e0		      BYTE.b	%11100000
    184  6b7f		       e0		      BYTE.b	%11100000
    185  6b80		       c0		      BYTE.b	%11000000
    186  6b81		       c0		      BYTE.b	%11000000
    187  6b82		       c0		      BYTE.b	%11000000
    188  6b83		       e0		      BYTE.b	%11100000
    189  6b84		       f0		      BYTE.b	%11110000
    190  6b85		       b8		      BYTE.b	%10111000
    191  6b86		       1c		      BYTE.b	%00011100
    192  6b87		       0e		      BYTE.b	%00001110
    193  6b88		       07		      BYTE.b	%00000111
    194  6b89		       03		      BYTE.b	%00000011
    195  6b8a		       01		      BYTE.b	%00000001
    196  6b8b		       01		      BYTE.b	%00000001
    197  6b8c		       01		      BYTE.b	%00000001
    198  6b8d		       01		      BYTE.b	%00000001
    199  6b8e		       01		      BYTE.b	%00000001
    200  6b8f		       00		      BYTE.b	%00000000
    201  6b90		       00		      BYTE.b	%00000000
    202  6b91		       00		      BYTE.b	%00000000
    203  6b92		       00		      BYTE.b	%00000000
    204  6b93		       00		      BYTE.b	%00000000
    205  6b94		       00		      BYTE.b	%00000000
    206  6b95		       00		      BYTE.b	%00000000
    207  6b96
    208  6b96
    209  6b96
    210  6b96				  -	      if	>. != >[.+bmp_48x1_1_height]
    211  6b96				  -	      align	256
    212  6b96					      endif
    213  6b96
    214  6b96
    215  6b96				   bmp_48x1_1_03
    216  6b96							; *** replace this block with your bimap_03 data block...
    217  6b96		       00		      BYTE.b	%00000000
    218  6b97		       00		      BYTE.b	%00000000
    219  6b98		       00		      BYTE.b	%00000000
    220  6b99		       00		      BYTE.b	%00000000
    221  6b9a		       00		      BYTE.b	%00000000
    222  6b9b		       00		      BYTE.b	%00000000
    223  6b9c		       00		      BYTE.b	%00000000
    224  6b9d		       00		      BYTE.b	%00000000
    225  6b9e		       00		      BYTE.b	%00000000
    226  6b9f		       00		      BYTE.b	%00000000
    227  6ba0		       00		      BYTE.b	%00000000
    228  6ba1		       00		      BYTE.b	%00000000
    229  6ba2		       00		      BYTE.b	%00000000
    230  6ba3		       00		      BYTE.b	%00000000
    231  6ba4		       00		      BYTE.b	%00000000
    232  6ba5		       00		      BYTE.b	%00000000
    233  6ba6		       00		      BYTE.b	%00000000
    234  6ba7		       00		      BYTE.b	%00000000
    235  6ba8		       ff		      BYTE.b	%11111111
    236  6ba9		       ff		      BYTE.b	%11111111
    237  6baa		       ff		      BYTE.b	%11111111
    238  6bab		       00		      BYTE.b	%00000000
    239  6bac		       00		      BYTE.b	%00000000
    240  6bad		       00		      BYTE.b	%00000000
    241  6bae		       00		      BYTE.b	%00000000
    242  6baf		       00		      BYTE.b	%00000000
    243  6bb0		       00		      BYTE.b	%00000000
    244  6bb1		       00		      BYTE.b	%00000000
    245  6bb2		       00		      BYTE.b	%00000000
    246  6bb3		       00		      BYTE.b	%00000000
    247  6bb4		       00		      BYTE.b	%00000000
    248  6bb5		       00		      BYTE.b	%00000000
    249  6bb6		       00		      BYTE.b	%00000000
    250  6bb7		       20		      BYTE.b	%00100000
    251  6bb8		       70		      BYTE.b	%01110000
    252  6bb9		       f8		      BYTE.b	%11111000
    253  6bba		       f8		      BYTE.b	%11111000
    254  6bbb		       fc		      BYTE.b	%11111100
    255  6bbc		       fc		      BYTE.b	%11111100
    256  6bbd		       fc		      BYTE.b	%11111100
    257  6bbe		       fc		      BYTE.b	%11111100
    258  6bbf		       fc		      BYTE.b	%11111100
    259  6bc0		       fc		      BYTE.b	%11111100
    260  6bc1		       fc		      BYTE.b	%11111100
    261  6bc2		       f8		      BYTE.b	%11111000
    262  6bc3		       f8		      BYTE.b	%11111000
    263  6bc4		       70		      BYTE.b	%01110000
    264  6bc5		       00		      BYTE.b	%00000000
    265  6bc6		       00		      BYTE.b	%00000000
    266  6bc7		       00		      BYTE.b	%00000000
    267  6bc8
    268  6bc8
    269  6bc8
    270  6bc8				  -	      if	>. != >[.+bmp_48x1_1_height]
    271  6bc8				  -	      align	256
    272  6bc8					      endif
    273  6bc8
    274  6bc8
    275  6bc8				   bmp_48x1_1_04
    276  6bc8							; *** replace this block with your bimap_04 data block...
    277  6bc8		       00		      BYTE.b	%00000000
    278  6bc9		       00		      BYTE.b	%00000000
    279  6bca		       00		      BYTE.b	%00000000
    280  6bcb		       00		      BYTE.b	%00000000
    281  6bcc		       00		      BYTE.b	%00000000
    282  6bcd		       00		      BYTE.b	%00000000
    283  6bce		       03		      BYTE.b	%00000011
    284  6bcf		       07		      BYTE.b	%00000111
    285  6bd0		       0f		      BYTE.b	%00001111
    286  6bd1		       1f		      BYTE.b	%00011111
    287  6bd2		       1f		      BYTE.b	%00011111
    288  6bd3		       3f		      BYTE.b	%00111111
    289  6bd4		       3f		      BYTE.b	%00111111
    290  6bd5		       3f		      BYTE.b	%00111111
    291  6bd6		       3f		      BYTE.b	%00111111
    292  6bd7		       3f		      BYTE.b	%00111111
    293  6bd8		       7f		      BYTE.b	%01111111
    294  6bd9		       7f		      BYTE.b	%01111111
    295  6bda		       ff		      BYTE.b	%11111111
    296  6bdb		       ff		      BYTE.b	%11111111
    297  6bdc		       ff		      BYTE.b	%11111111
    298  6bdd		       7f		      BYTE.b	%01111111
    299  6bde		       7f		      BYTE.b	%01111111
    300  6bdf		       7f		      BYTE.b	%01111111
    301  6be0		       3f		      BYTE.b	%00111111
    302  6be1		       3f		      BYTE.b	%00111111
    303  6be2		       3f		      BYTE.b	%00111111
    304  6be3		       3f		      BYTE.b	%00111111
    305  6be4		       1f		      BYTE.b	%00011111
    306  6be5		       1f		      BYTE.b	%00011111
    307  6be6		       0f		      BYTE.b	%00001111
    308  6be7		       0f		      BYTE.b	%00001111
    309  6be8		       07		      BYTE.b	%00000111
    310  6be9		       03		      BYTE.b	%00000011
    311  6bea		       00		      BYTE.b	%00000000
    312  6beb		       00		      BYTE.b	%00000000
    313  6bec		       00		      BYTE.b	%00000000
    314  6bed		       00		      BYTE.b	%00000000
    315  6bee		       00		      BYTE.b	%00000000
    316  6bef		       00		      BYTE.b	%00000000
    317  6bf0		       00		      BYTE.b	%00000000
    318  6bf1		       00		      BYTE.b	%00000000
    319  6bf2		       00		      BYTE.b	%00000000
    320  6bf3		       00		      BYTE.b	%00000000
    321  6bf4		       00		      BYTE.b	%00000000
    322  6bf5		       00		      BYTE.b	%00000000
    323  6bf6		       00		      BYTE.b	%00000000
    324  6bf7		       00		      BYTE.b	%00000000
    325  6bf8		       00		      BYTE.b	%00000000
    326  6bf9		       00		      BYTE.b	%00000000
    327  6bfa
    328  6bfa
    329  6bfa
    330  6bfa					      if	>. != >[.+bmp_48x1_1_height]
    331  6c00		       00 00 00 00*	      align	256
    332  6c00					      endif
    333  6c00
    334  6c00
    335  6c00				   bmp_48x1_1_05
    336  6c00							; *** replace this block with your bimap_05 data block...
    337  6c00		       00		      BYTE.b	%00000000
    338  6c01		       00		      BYTE.b	%00000000
    339  6c02		       00		      BYTE.b	%00000000
    340  6c03		       00		      BYTE.b	%00000000
    341  6c04		       00		      BYTE.b	%00000000
    342  6c05		       00		      BYTE.b	%00000000
    343  6c06		       e0		      BYTE.b	%11100000
    344  6c07		       f0		      BYTE.b	%11110000
    345  6c08		       f0		      BYTE.b	%11110000
    346  6c09		       f8		      BYTE.b	%11111000
    347  6c0a		       f8		      BYTE.b	%11111000
    348  6c0b		       fc		      BYTE.b	%11111100
    349  6c0c		       fc		      BYTE.b	%11111100
    350  6c0d		       fc		      BYTE.b	%11111100
    351  6c0e		       fe		      BYTE.b	%11111110
    352  6c0f		       fe		      BYTE.b	%11111110
    353  6c10		       fe		      BYTE.b	%11111110
    354  6c11		       fe		      BYTE.b	%11111110
    355  6c12		       fe		      BYTE.b	%11111110
    356  6c13		       fe		      BYTE.b	%11111110
    357  6c14		       fe		      BYTE.b	%11111110
    358  6c15		       fe		      BYTE.b	%11111110
    359  6c16		       fe		      BYTE.b	%11111110
    360  6c17		       fe		      BYTE.b	%11111110
    361  6c18		       fe		      BYTE.b	%11111110
    362  6c19		       fc		      BYTE.b	%11111100
    363  6c1a		       fc		      BYTE.b	%11111100
    364  6c1b		       fc		      BYTE.b	%11111100
    365  6c1c		       fc		      BYTE.b	%11111100
    366  6c1d		       f8		      BYTE.b	%11111000
    367  6c1e		       f8		      BYTE.b	%11111000
    368  6c1f		       f0		      BYTE.b	%11110000
    369  6c20		       e0		      BYTE.b	%11100000
    370  6c21		       c0		      BYTE.b	%11000000
    371  6c22		       00		      BYTE.b	%00000000
    372  6c23		       00		      BYTE.b	%00000000
    373  6c24		       00		      BYTE.b	%00000000
    374  6c25		       00		      BYTE.b	%00000000
    375  6c26		       00		      BYTE.b	%00000000
    376  6c27		       00		      BYTE.b	%00000000
    377  6c28		       00		      BYTE.b	%00000000
    378  6c29		       00		      BYTE.b	%00000000
    379  6c2a		       00		      BYTE.b	%00000000
    380  6c2b		       00		      BYTE.b	%00000000
    381  6c2c		       00		      BYTE.b	%00000000
    382  6c2d		       00		      BYTE.b	%00000000
    383  6c2e		       00		      BYTE.b	%00000000
    384  6c2f		       00		      BYTE.b	%00000000
    385  6c30		       00		      BYTE.b	%00000000
    386  6c31		       00		      BYTE.b	%00000000
    387  6c32
    388  6c32
------- FILE titlescreen/asm/titlescreen.asm
    221  6c32					      endif
    222  6c32				  -	      ifconst	mk_48x1_2_on
    223  6c32				  -	      include	"titlescreen/48x1_2_image.asm"
    224  6c32					      endif
    225  6c32				  -	      ifconst	mk_48x1_3_on
    226  6c32				  -	      include	"titlescreen/48x1_3_image.asm"
    227  6c32					      endif
    228  6c32				  -	      ifconst	mk_48x1_4_on
    229  6c32				  -	      include	"titlescreen/48x1_4_image.asm"
    230  6c32					      endif
    231  6c32				  -	      ifconst	mk_48x1_5_on
    232  6c32				  -	      include	"titlescreen/48x1_5_image.asm"
    233  6c32					      endif
    234  6c32				  -	      ifconst	mk_48x1_6_on
    235  6c32				  -	      include	"titlescreen/48x1_6_image.asm"
    236  6c32					      endif
    237  6c32				  -	      ifconst	mk_48x1_7_on
    238  6c32				  -	      include	"titlescreen/48x1_7_image.asm"
    239  6c32					      endif
    240  6c32				  -	      ifconst	mk_48x1_8_on
    241  6c32				  -	      include	"titlescreen/48x1_8_image.asm"
    242  6c32					      endif
    243  6c32
    244  6c32
    245  6c32				  -	      ifconst	mk_48x2_1_on
    246  6c32				  -	      include	"titlescreen/48x2_1_image.asm"
    247  6c32					      endif
    248  6c32				  -	      ifconst	mk_48x2_2_on
    249  6c32				  -	      include	"titlescreen/48x2_2_image.asm"
    250  6c32					      endif
    251  6c32				  -	      ifconst	mk_48x2_3_on
    252  6c32				  -	      include	"titlescreen/48x2_3_image.asm"
    253  6c32					      endif
    254  6c32				  -	      ifconst	mk_48x2_4_on
    255  6c32				  -	      include	"titlescreen/48x2_4_image.asm"
    256  6c32					      endif
    257  6c32				  -	      ifconst	mk_48x2_5_on
    258  6c32				  -	      include	"titlescreen/48x2_5_image.asm"
    259  6c32					      endif
    260  6c32				  -	      ifconst	mk_48x2_6_on
    261  6c32				  -	      include	"titlescreen/48x2_6_image.asm"
    262  6c32					      endif
    263  6c32				  -	      ifconst	mk_48x2_7_on
    264  6c32				  -	      include	"titlescreen/48x2_7_image.asm"
    265  6c32					      endif
    266  6c32
    267  6c32				  -	      ifconst	mk_48x2_8_on
    268  6c32				  -	      include	"titlescreen/48x2_8_image.asm"
    269  6c32					      endif
    270  6c32
    271  6c32
    272  6c32					      ifconst	mk_96x2_1_on
------- FILE titlescreen/96x2_1_image.asm LEVEL 3 PASS 4
      0  6c32					      include	"titlescreen/96x2_1_image.asm"
      1  6c32
      2  6c32
      3  6c32							;*** The height of the displayed data...
      4  6c32		       00 14	   bmp_96x2_1_window =	20
      5  6c32
      6  6c32							;*** The height of the bitmap data. This can be larger than
      7  6c32							;*** the displayed data height, if you're scrolling or animating
      8  6c32							;*** the data...
      9  6c32		       00 14	   bmp_96x2_1_height =	20
     10  6c32
     11  6c32
     12  6c32				  -	      if	>. != >[.+(bmp_96x2_1_height)]
     13  6c32				  -	      align	256
     14  6c32					      endif
     15  6c32		       00		      BYTE.b	$00	; leave this here!
     16  6c33
     17  6c33
     18  6c33							;*** The color of each line in the bitmap, in reverse order...
     19  6c33				   bmp_96x2_1_colors
     20  6c33		       0e		      .byte.b	$0E
     21  6c34		       40		      .byte.b	$40
     22  6c35		       94		      .byte.b	$94
     23  6c36		       94		      .byte.b	$94
     24  6c37		       94		      .byte.b	$94
     25  6c38		       94		      .byte.b	$94
     26  6c39		       94		      .byte.b	$94
     27  6c3a		       94		      .byte.b	$94
     28  6c3b		       94		      .byte.b	$94
     29  6c3c		       94		      .byte.b	$94
     30  6c3d		       94		      .byte.b	$94
     31  6c3e		       94		      .byte.b	$94
     32  6c3f		       94		      .byte.b	$94
     33  6c40		       94		      .byte.b	$94
     34  6c41		       94		      .byte.b	$94
     35  6c42		       94		      .byte.b	$94
     36  6c43		       94		      .byte.b	$94
     37  6c44		       94		      .byte.b	$94
     38  6c45		       94		      .byte.b	$94
     39  6c46		       94		      .byte.b	$94
     40  6c47
     41  6c47
     42  6c47				  -	      if	>. != >[.+(bmp_96x2_1_height)]
     43  6c47				  -	      align	256
     44  6c47					      endif
     45  6c47
     46  6c47
     47  6c47				   bmp_96x2_1_00
     48  6c47							; *** replace this block with your bimap_00 data block...
     49  6c47		       00		      BYTE.b	%00000000
     50  6c48		       00		      BYTE.b	%00000000
     51  6c49		       00		      BYTE.b	%00000000
     52  6c4a		       00		      BYTE.b	%00000000
     53  6c4b		       00		      BYTE.b	%00000000
     54  6c4c		       00		      BYTE.b	%00000000
     55  6c4d		       00		      BYTE.b	%00000000
     56  6c4e		       00		      BYTE.b	%00000000
     57  6c4f		       00		      BYTE.b	%00000000
     58  6c50		       00		      BYTE.b	%00000000
     59  6c51		       00		      BYTE.b	%00000000
     60  6c52		       00		      BYTE.b	%00000000
     61  6c53		       00		      BYTE.b	%00000000
     62  6c54		       00		      BYTE.b	%00000000
     63  6c55		       00		      BYTE.b	%00000000
     64  6c56		       00		      BYTE.b	%00000000
     65  6c57		       00		      BYTE.b	%00000000
     66  6c58		       00		      BYTE.b	%00000000
     67  6c59		       00		      BYTE.b	%00000000
     68  6c5a		       00		      BYTE.b	%00000000
     69  6c5b
     70  6c5b
     71  6c5b
     72  6c5b				  -	      if	>. != >[.+(bmp_96x2_1_height)]
     73  6c5b				  -	      align	256
     74  6c5b					      endif
     75  6c5b
     76  6c5b
     77  6c5b				   bmp_96x2_1_01
     78  6c5b							; *** replace this block with your bimap_01 data block...
     79  6c5b		       00		      BYTE.b	%00000000
     80  6c5c		       00		      BYTE.b	%00000000
     81  6c5d		       00		      BYTE.b	%00000000
     82  6c5e		       0d		      BYTE.b	%00001101
     83  6c5f		       1d		      BYTE.b	%00011101
     84  6c60		       1d		      BYTE.b	%00011101
     85  6c61		       1c		      BYTE.b	%00011100
     86  6c62		       1c		      BYTE.b	%00011100
     87  6c63		       1c		      BYTE.b	%00011100
     88  6c64		       1d		      BYTE.b	%00011101
     89  6c65		       1d		      BYTE.b	%00011101
     90  6c66		       1c		      BYTE.b	%00011100
     91  6c67		       1c		      BYTE.b	%00011100
     92  6c68		       1c		      BYTE.b	%00011100
     93  6c69		       0f		      BYTE.b	%00001111
     94  6c6a		       0f		      BYTE.b	%00001111
     95  6c6b		       03		      BYTE.b	%00000011
     96  6c6c		       00		      BYTE.b	%00000000
     97  6c6d		       00		      BYTE.b	%00000000
     98  6c6e		       00		      BYTE.b	%00000000
     99  6c6f
    100  6c6f
    101  6c6f
    102  6c6f				  -	      if	>. != >[.+(bmp_96x2_1_height)]
    103  6c6f				  -	      align	256
    104  6c6f					      endif
    105  6c6f
    106  6c6f
    107  6c6f				   bmp_96x2_1_02
    108  6c6f							; *** replace this block with your bimap_02 data block...
    109  6c6f		       00		      BYTE.b	%00000000
    110  6c70		       00		      BYTE.b	%00000000
    111  6c71		       00		      BYTE.b	%00000000
    112  6c72		       e1		      BYTE.b	%11100001
    113  6c73		       f1		      BYTE.b	%11110001
    114  6c74		       f9		      BYTE.b	%11111001
    115  6c75		       39		      BYTE.b	%00111001
    116  6c76		       39		      BYTE.b	%00111001
    117  6c77		       39		      BYTE.b	%00111001
    118  6c78		       f1		      BYTE.b	%11110001
    119  6c79		       e1		      BYTE.b	%11100001
    120  6c7a		       71		      BYTE.b	%01110001
    121  6c7b		       71		      BYTE.b	%01110001
    122  6c7c		       71		      BYTE.b	%01110001
    123  6c7d		       f1		      BYTE.b	%11110001
    124  6c7e		       e0		      BYTE.b	%11100000
    125  6c7f		       c0		      BYTE.b	%11000000
    126  6c80		       00		      BYTE.b	%00000000
    127  6c81		       00		      BYTE.b	%00000000
    128  6c82		       00		      BYTE.b	%00000000
    129  6c83
    130  6c83
    131  6c83
    132  6c83				  -	      if	>. != >[.+(bmp_96x2_1_height)]
    133  6c83				  -	      align	256
    134  6c83					      endif
    135  6c83
    136  6c83
    137  6c83				   bmp_96x2_1_03
    138  6c83							; *** replace this block with your bimap_03 data block...
    139  6c83		       00		      BYTE.b	%00000000
    140  6c84		       00		      BYTE.b	%00000000
    141  6c85		       00		      BYTE.b	%00000000
    142  6c86		       83		      BYTE.b	%10000011
    143  6c87		       83		      BYTE.b	%10000011
    144  6c88		       83		      BYTE.b	%10000011
    145  6c89		       83		      BYTE.b	%10000011
    146  6c8a		       83		      BYTE.b	%10000011
    147  6c8b		       8f		      BYTE.b	%10001111
    148  6c8c		       9e		      BYTE.b	%10011110
    149  6c8d		       de		      BYTE.b	%11011110
    150  6c8e		       c7		      BYTE.b	%11000111
    151  6c8f		       c7		      BYTE.b	%11000111
    152  6c90		       c7		      BYTE.b	%11000111
    153  6c91		       ff		      BYTE.b	%11111111
    154  6c92		       fe		      BYTE.b	%11111110
    155  6c93		       38		      BYTE.b	%00111000
    156  6c94		       00		      BYTE.b	%00000000
    157  6c95		       00		      BYTE.b	%00000000
    158  6c96		       00		      BYTE.b	%00000000
    159  6c97
    160  6c97
    161  6c97
    162  6c97				  -	      if	>. != >[.+(bmp_96x2_1_height)]
    163  6c97				  -	      align	256
    164  6c97					      endif
    165  6c97
    166  6c97
    167  6c97				   bmp_96x2_1_04
    168  6c97							; *** replace this block with your bimap_04 data block...
    169  6c97		       00		      BYTE.b	%00000000
    170  6c98		       00		      BYTE.b	%00000000
    171  6c99		       00		      BYTE.b	%00000000
    172  6c9a		       18		      BYTE.b	%00011000
    173  6c9b		       1c		      BYTE.b	%00011100
    174  6c9c		       1c		      BYTE.b	%00011100
    175  6c9d		       1c		      BYTE.b	%00011100
    176  6c9e		       1c		      BYTE.b	%00011100
    177  6c9f		       1d		      BYTE.b	%00011101
    178  6ca0		       1d		      BYTE.b	%00011101
    179  6ca1		       1c		      BYTE.b	%00011100
    180  6ca2		       1c		      BYTE.b	%00011100
    181  6ca3		       1c		      BYTE.b	%00011100
    182  6ca4		       1c		      BYTE.b	%00011100
    183  6ca5		       1f		      BYTE.b	%00011111
    184  6ca6		       0f		      BYTE.b	%00001111
    185  6ca7		       07		      BYTE.b	%00000111
    186  6ca8		       00		      BYTE.b	%00000000
    187  6ca9		       00		      BYTE.b	%00000000
    188  6caa		       00		      BYTE.b	%00000000
    189  6cab
    190  6cab
    191  6cab
    192  6cab				  -	      if	>. != >[.+(bmp_96x2_1_height)]
    193  6cab				  -	      align	256
    194  6cab					      endif
    195  6cab
    196  6cab
    197  6cab				   bmp_96x2_1_05
    198  6cab							; *** replace this block with your bimap_05 data block...
    199  6cab		       00		      BYTE.b	%00000000
    200  6cac		       00		      BYTE.b	%00000000
    201  6cad		       00		      BYTE.b	%00000000
    202  6cae		       38		      BYTE.b	%00111000
    203  6caf		       38		      BYTE.b	%00111000
    204  6cb0		       38		      BYTE.b	%00111000
    205  6cb1		       39		      BYTE.b	%00111001
    206  6cb2		       39		      BYTE.b	%00111001
    207  6cb3		       f9		      BYTE.b	%11111001
    208  6cb4		       f9		      BYTE.b	%11111001
    209  6cb5		       39		      BYTE.b	%00111001
    210  6cb6		       39		      BYTE.b	%00111001
    211  6cb7		       39		      BYTE.b	%00111001
    212  6cb8		       39		      BYTE.b	%00111001
    213  6cb9		       f9		      BYTE.b	%11111001
    214  6cba		       f1		      BYTE.b	%11110001
    215  6cbb		       c1		      BYTE.b	%11000001
    216  6cbc		       00		      BYTE.b	%00000000
    217  6cbd		       00		      BYTE.b	%00000000
    218  6cbe		       00		      BYTE.b	%00000000
    219  6cbf
    220  6cbf
    221  6cbf
    222  6cbf				  -	      if	>. != >[.+(bmp_96x2_1_height)]
    223  6cbf				  -	      align	256
    224  6cbf					      endif
    225  6cbf
    226  6cbf
    227  6cbf				   bmp_96x2_1_06
    228  6cbf							; *** replace this block with your bimap_06 data block...
    229  6cbf		       00		      BYTE.b	%00000000
    230  6cc0		       00		      BYTE.b	%00000000
    231  6cc1		       00		      BYTE.b	%00000000
    232  6cc2		       38		      BYTE.b	%00111000
    233  6cc3		       ff		      BYTE.b	%11111111
    234  6cc4		       ff		      BYTE.b	%11111111
    235  6cc5		       c3		      BYTE.b	%11000011
    236  6cc6		       c3		      BYTE.b	%11000011
    237  6cc7		       c3		      BYTE.b	%11000011
    238  6cc8		       c3		      BYTE.b	%11000011
    239  6cc9		       c3		      BYTE.b	%11000011
    240  6cca		       c3		      BYTE.b	%11000011
    241  6ccb		       c3		      BYTE.b	%11000011
    242  6ccc		       c3		      BYTE.b	%11000011
    243  6ccd		       c3		      BYTE.b	%11000011
    244  6cce		       c3		      BYTE.b	%11000011
    245  6ccf		       c3		      BYTE.b	%11000011
    246  6cd0		       00		      BYTE.b	%00000000
    247  6cd1		       00		      BYTE.b	%00000000
    248  6cd2		       00		      BYTE.b	%00000000
    249  6cd3
    250  6cd3
    251  6cd3
    252  6cd3				  -	      if	>. != >[.+(bmp_96x2_1_height)]
    253  6cd3				  -	      align	256
    254  6cd3					      endif
    255  6cd3
    256  6cd3
    257  6cd3				   bmp_96x2_1_07
    258  6cd3							; *** replace this block with your bimap_07 data block...
    259  6cd3		       00		      BYTE.b	%00000000
    260  6cd4		       00		      BYTE.b	%00000000
    261  6cd5		       00		      BYTE.b	%00000000
    262  6cd6		       70		      BYTE.b	%01110000
    263  6cd7		       fc		      BYTE.b	%11111100
    264  6cd8		       fe		      BYTE.b	%11111110
    265  6cd9		       8e		      BYTE.b	%10001110
    266  6cda		       8e		      BYTE.b	%10001110
    267  6cdb		       8e		      BYTE.b	%10001110
    268  6cdc		       8e		      BYTE.b	%10001110
    269  6cdd		       8e		      BYTE.b	%10001110
    270  6cde		       8e		      BYTE.b	%10001110
    271  6cdf		       8e		      BYTE.b	%10001110
    272  6ce0		       8e		      BYTE.b	%10001110
    273  6ce1		       8e		      BYTE.b	%10001110
    274  6ce2		       8e		      BYTE.b	%10001110
    275  6ce3		       8e		      BYTE.b	%10001110
    276  6ce4		       00		      BYTE.b	%00000000
    277  6ce5		       00		      BYTE.b	%00000000
    278  6ce6		       00		      BYTE.b	%00000000
    279  6ce7
    280  6ce7
    281  6ce7
    282  6ce7				  -	      if	>. != >[.+(bmp_96x2_1_height)]
    283  6ce7				  -	      align	256
    284  6ce7					      endif
    285  6ce7
    286  6ce7
    287  6ce7				   bmp_96x2_1_08
    288  6ce7							; *** replace this block with your bimap_08 data block...
    289  6ce7		       00		      BYTE.b	%00000000
    290  6ce8		       00		      BYTE.b	%00000000
    291  6ce9		       00		      BYTE.b	%00000000
    292  6cea		       77		      BYTE.b	%01110111
    293  6ceb		       77		      BYTE.b	%01110111
    294  6cec		       77		      BYTE.b	%01110111
    295  6ced		       70		      BYTE.b	%01110000
    296  6cee		       70		      BYTE.b	%01110000
    297  6cef		       70		      BYTE.b	%01110000
    298  6cf0		       70		      BYTE.b	%01110000
    299  6cf1		       70		      BYTE.b	%01110000
    300  6cf2		       70		      BYTE.b	%01110000
    301  6cf3		       70		      BYTE.b	%01110000
    302  6cf4		       70		      BYTE.b	%01110000
    303  6cf5		       7f		      BYTE.b	%01111111
    304  6cf6		       7f		      BYTE.b	%01111111
    305  6cf7		       7e		      BYTE.b	%01111110
    306  6cf8		       00		      BYTE.b	%00000000
    307  6cf9		       00		      BYTE.b	%00000000
    308  6cfa		       00		      BYTE.b	%00000000
    309  6cfb
    310  6cfb
    311  6cfb
    312  6cfb					      if	>. != >[.+(bmp_96x2_1_height)]
    313  6d00		       00 00 00 00*	      align	256
    314  6d00					      endif
    315  6d00
    316  6d00
    317  6d00				   bmp_96x2_1_09
    318  6d00							; *** replace this block with your bimap_09 data block...
    319  6d00		       00		      BYTE.b	%00000000
    320  6d01		       00		      BYTE.b	%00000000
    321  6d02		       00		      BYTE.b	%00000000
    322  6d03		       80		      BYTE.b	%10000000
    323  6d04		       c0		      BYTE.b	%11000000
    324  6d05		       e0		      BYTE.b	%11100000
    325  6d06		       f0		      BYTE.b	%11110000
    326  6d07		       78		      BYTE.b	%01111000
    327  6d08		       38		      BYTE.b	%00111000
    328  6d09		       38		      BYTE.b	%00111000
    329  6d0a		       39		      BYTE.b	%00111001
    330  6d0b		       39		      BYTE.b	%00111001
    331  6d0c		       79		      BYTE.b	%01111001
    332  6d0d		       f1		      BYTE.b	%11110001
    333  6d0e		       f1		      BYTE.b	%11110001
    334  6d0f		       c1		      BYTE.b	%11000001
    335  6d10		       01		      BYTE.b	%00000001
    336  6d11		       00		      BYTE.b	%00000000
    337  6d12		       00		      BYTE.b	%00000000
    338  6d13		       00		      BYTE.b	%00000000
    339  6d14
    340  6d14
    341  6d14
    342  6d14				  -	      if	>. != >[.+(bmp_96x2_1_height)]
    343  6d14				  -	      align	256
    344  6d14					      endif
    345  6d14
    346  6d14
    347  6d14				   bmp_96x2_1_10
    348  6d14							; *** replace this block with your bimap_10 data block...
    349  6d14		       00		      BYTE.b	%00000000
    350  6d15		       00		      BYTE.b	%00000000
    351  6d16		       00		      BYTE.b	%00000000
    352  6d17		       38		      BYTE.b	%00111000
    353  6d18		       38		      BYTE.b	%00111000
    354  6d19		       38		      BYTE.b	%00111000
    355  6d1a		       38		      BYTE.b	%00111000
    356  6d1b		       38		      BYTE.b	%00111000
    357  6d1c		       3c		      BYTE.b	%00111100
    358  6d1d		       fe		      BYTE.b	%11111110
    359  6d1e		       ff		      BYTE.b	%11111111
    360  6d1f		       c3		      BYTE.b	%11000011
    361  6d20		       c3		      BYTE.b	%11000011
    362  6d21		       c3		      BYTE.b	%11000011
    363  6d22		       c3		      BYTE.b	%11000011
    364  6d23		       c3		      BYTE.b	%11000011
    365  6d24		       c3		      BYTE.b	%11000011
    366  6d25		       00		      BYTE.b	%00000000
    367  6d26		       00		      BYTE.b	%00000000
    368  6d27		       00		      BYTE.b	%00000000
    369  6d28
    370  6d28
    371  6d28
    372  6d28				  -	      if	>. != >[.+(bmp_96x2_1_height)]
    373  6d28				  -	      align	256
    374  6d28					      endif
    375  6d28
    376  6d28
    377  6d28				   bmp_96x2_1_11
    378  6d28							; *** replace this block with your bimap_11 data block...
    379  6d28		       00		      BYTE.b	%00000000
    380  6d29		       00		      BYTE.b	%00000000
    381  6d2a		       00		      BYTE.b	%00000000
    382  6d2b		       00		      BYTE.b	%00000000
    383  6d2c		       00		      BYTE.b	%00000000
    384  6d2d		       00		      BYTE.b	%00000000
    385  6d2e		       00		      BYTE.b	%00000000
    386  6d2f		       00		      BYTE.b	%00000000
    387  6d30		       00		      BYTE.b	%00000000
    388  6d31		       00		      BYTE.b	%00000000
    389  6d32		       00		      BYTE.b	%00000000
    390  6d33		       00		      BYTE.b	%00000000
    391  6d34		       00		      BYTE.b	%00000000
    392  6d35		       00		      BYTE.b	%00000000
    393  6d36		       00		      BYTE.b	%00000000
    394  6d37		       00		      BYTE.b	%00000000
    395  6d38		       00		      BYTE.b	%00000000
    396  6d39		       00		      BYTE.b	%00000000
    397  6d3a		       00		      BYTE.b	%00000000
    398  6d3b		       00		      BYTE.b	%00000000
    399  6d3c
    400  6d3c
    401  6d3c
------- FILE titlescreen/asm/titlescreen.asm
    274  6d3c					      endif
    275  6d3c					      ifconst	mk_96x2_2_on
------- FILE titlescreen/96x2_2_image.asm LEVEL 3 PASS 4
      0  6d3c					      include	"titlescreen/96x2_2_image.asm"
      1  6d3c
      2  6d3c
      3  6d3c							;*** The height of the displayed data...
      4  6d3c		       00 05	   bmp_96x2_2_window =	5
      5  6d3c
      6  6d3c							;*** The height of the bitmap data. This can be larger than
      7  6d3c							;*** the displayed data height, if you're scrolling or animating
      8  6d3c							;*** the data...
      9  6d3c		       00 05	   bmp_96x2_2_height =	5
     10  6d3c
     11  6d3c
     12  6d3c				  -	      if	>. != >[.+(bmp_96x2_2_height)]
     13  6d3c				  -	      align	256
     14  6d3c					      endif
     15  6d3c		       00		      BYTE.b	$00	; leave this here!
     16  6d3d
     17  6d3d
     18  6d3d							;*** The color of each line in the bitmap, in reverse order...
     19  6d3d				   bmp_96x2_2_colors
     20  6d3d		       40		      .byte.b	$40
     21  6d3e		       40		      .byte.b	$40
     22  6d3f		       40		      .byte.b	$40
     23  6d40		       40		      .byte.b	$40
     24  6d41		       40		      .byte.b	$40
     25  6d42
     26  6d42
     27  6d42
     28  6d42				  -	      if	>. != >[.+(bmp_96x2_2_height)]
     29  6d42				  -	      align	256
     30  6d42					      endif
     31  6d42
     32  6d42				   bmp_96x2_2_00
     33  6d42							; *** replace this block with your bimap_11 data block...
     34  6d42		       00		      BYTE.b	%00000000
     35  6d43		       00		      BYTE.b	%00000000
     36  6d44		       00		      BYTE.b	%00000000
     37  6d45		       00		      BYTE.b	%00000000
     38  6d46		       00		      BYTE.b	%00000000
     39  6d47				  -	      if	>. != >[.+(bmp_96x2_2_height)]
     40  6d47				  -	      align	256
     41  6d47					      endif
     42  6d47
     43  6d47				   bmp_96x2_2_01
     44  6d47							; *** replace this block with your bimap_11 data block...
     45  6d47		       00		      BYTE.b	%00000000
     46  6d48		       00		      BYTE.b	%00000000
     47  6d49		       00		      BYTE.b	%00000000
     48  6d4a		       00		      BYTE.b	%00000000
     49  6d4b		       00		      BYTE.b	%00000000
     50  6d4c				  -	      if	>. != >[.+(bmp_96x2_2_height)]
     51  6d4c				  -	      align	256
     52  6d4c					      endif
     53  6d4c
     54  6d4c				   bmp_96x2_2_02
     55  6d4c							; *** replace this block with your bimap_11 data block...
     56  6d4c		       00		      BYTE.b	%00000000
     57  6d4d		       00		      BYTE.b	%00000000
     58  6d4e		       00		      BYTE.b	%00000000
     59  6d4f		       00		      BYTE.b	%00000000
     60  6d50		       00		      BYTE.b	%00000000
     61  6d51
     62  6d51				  -	      if	>. != >[.+(bmp_96x2_2_height)]
     63  6d51				  -	      align	256
     64  6d51					      endif
     65  6d51
     66  6d51				   bmp_96x2_2_03
     67  6d51							; *** replace this block with your bimap_00 data block...
     68  6d51		       ae		      .byte.b	%10101110	;
     69  6d52		       a8		      .byte.b	%10101000	;
     70  6d53		       e8		      .byte.b	%11101000	;
     71  6d54		       a8		      .byte.b	%10101000	;
     72  6d55		       e8		      .byte.b	%11101000	;
     73  6d56
     74  6d56
     75  6d56
     76  6d56				  -	      if	>. != >[.+(bmp_96x2_2_height)]
     77  6d56				  -	      align	256
     78  6d56					      endif
     79  6d56
     80  6d56
     81  6d56				   bmp_96x2_2_04
     82  6d56							; *** replace this block with your bimap_01 data block...
     83  6d56		       4e		      .byte.b	%01001110	;
     84  6d57		       48		      .byte.b	%01001000	;
     85  6d58		       4c		      .byte.b	%01001100	;
     86  6d59		       48		      .byte.b	%01001000	;
     87  6d5a		       4e		      .byte.b	%01001110	;
     88  6d5b
     89  6d5b
     90  6d5b
     91  6d5b				  -	      if	>. != >[.+(bmp_96x2_2_height)]
     92  6d5b				  -	      align	256
     93  6d5b					      endif
     94  6d5b
     95  6d5b
     96  6d5b				   bmp_96x2_2_05
     97  6d5b							; *** replace this block with your bimap_02 data block...
     98  6d5b		       90		      .byte.b	%10010000	;
     99  6d5c		       b0		      .byte.b	%10110000	;
    100  6d5d		       d0		      .byte.b	%11010000	;
    101  6d5e		       90		      .byte.b	%10010000	;
    102  6d5f		       90		      .byte.b	%10010000	;
    103  6d60
    104  6d60
    105  6d60
    106  6d60				  -	      if	>. != >[.+(bmp_96x2_2_height)]
    107  6d60				  -	      align	256
    108  6d60					      endif
    109  6d60
    110  6d60
    111  6d60				   bmp_96x2_2_06
    112  6d60							; *** replace this block with your bimap_03 data block...
    113  6d60		       a4		      .byte.b	%10100100	;
    114  6d61		       a4		      .byte.b	%10100100	;
    115  6d62		       ac		      .byte.b	%10101100	;
    116  6d63		       b4		      .byte.b	%10110100	;
    117  6d64		       a4		      .byte.b	%10100100	;
    118  6d65
    119  6d65
    120  6d65				  -	      if	>. != >[.+(bmp_96x2_2_height)]
    121  6d65				  -	      align	256
    122  6d65					      endif
    123  6d65
    124  6d65
    125  6d65				   bmp_96x2_2_07
    126  6d65							; *** replace this block with your bimap_04 data block...
    127  6d65		       4a		      .byte.b	%01001010	;
    128  6d66		       aa		      .byte.b	%10101010	;
    129  6d67		       ae		      .byte.b	%10101110	;
    130  6d68		       aa		      .byte.b	%10101010	;
    131  6d69		       ae		      .byte.b	%10101110	;
    132  6d6a
    133  6d6a
    134  6d6a
    135  6d6a				  -	      if	>. != >[.+(bmp_96x2_2_height)]
    136  6d6a				  -	      align	256
    137  6d6a					      endif
    138  6d6a
    139  6d6a
    140  6d6a				   bmp_96x2_2_08
    141  6d6a							; *** replace this block with your bimap_05 data block...
    142  6d6a		       e4		      .byte.b	%11100100	;
    143  6d6b		       24		      .byte.b	%00100100	;
    144  6d6c		       e4		      .byte.b	%11100100	;
    145  6d6d		       84		      .byte.b	%10000100	;
    146  6d6e		       e4		      .byte.b	%11100100	;
    147  6d6f
    148  6d6f
    149  6d6f
    150  6d6f				  -	      if	>. != >[.+(bmp_96x2_2_height)]
    151  6d6f				  -	      align	256
    152  6d6f					      endif
    153  6d6f
    154  6d6f
    155  6d6f				   bmp_96x2_2_09
    156  6d6f							; *** replace this block with your bimap_06 data block...
    157  6d6f		       e9		      .byte.b	%11101001	;
    158  6d70		       a9		      .byte.b	%10101001	;
    159  6d71		       ab		      .byte.b	%10101011	;
    160  6d72		       ad		      .byte.b	%10101101	;
    161  6d73		       e9		      .byte.b	%11101001	;
    162  6d74
    163  6d74
    164  6d74
    165  6d74				  -	      if	>. != >[.+(bmp_96x2_2_height)]
    166  6d74				  -	      align	256
    167  6d74					      endif
    168  6d74
    169  6d74
    170  6d74				   bmp_96x2_2_10
    171  6d74							; *** replace this block with your bimap_07 data block...
    172  6d74		       00		      BYTE.b	%00000000
    173  6d75
    174  6d75
    175  6d75
    176  6d75				  -	      if	>. != >[.+(bmp_96x2_2_height)]
    177  6d75				  -	      align	256
    178  6d75					      endif
    179  6d75
    180  6d75
    181  6d75				   bmp_96x2_2_11
    182  6d75							; *** replace this block with your bimap_08 data block...
    183  6d75		       00		      BYTE.b	%00000000
    184  6d76		       00		      BYTE.b	%00000000
    185  6d77		       00		      BYTE.b	%00000000
    186  6d78		       00		      BYTE.b	%00000000
    187  6d79		       00		      BYTE.b	%00000000
    188  6d7a
    189  6d7a
    190  6d7a
    191  6d7a
    192  6d7a
    193  6d7a
    194  6d7a
    195  6d7a
------- FILE titlescreen/asm/titlescreen.asm
    277  6d7a					      endif
    278  6d7a				  -	      ifconst	mk_96x2_3_on
    279  6d7a				  -	      include	"titlescreen/96x2_3_image.asm"
    280  6d7a					      endif
    281  6d7a					      ifconst	mk_96x2_4_on
------- FILE titlescreen/96x2_4_image.asm LEVEL 3 PASS 4
      0  6d7a					      include	"titlescreen/96x2_4_image.asm"
      1  6d7a
      2  6d7a
      3  6d7a							;*** The height of the displayed data...
      4  6d7a		       00 05	   bmp_96x2_4_window =	5
      5  6d7a
      6  6d7a							;*** The height of the bitmap data. This can be larger than
      7  6d7a							;*** the displayed data height, if you're scrolling or animating
      8  6d7a							;*** the data...
      9  6d7a		       00 05	   bmp_96x2_4_height =	5
     10  6d7a
     11  6d7a
     12  6d7a				  -	      if	>. != >[.+(bmp_96x2_4_height)]
     13  6d7a				  -	      align	256
     14  6d7a					      endif
     15  6d7a		       00		      BYTE.b	$00	; leave this here!
     16  6d7b
     17  6d7b
     18  6d7b							;*** The color of each line in the bitmap, in reverse order...
     19  6d7b				   bmp_96x2_4_colors
     20  6d7b		       c2		      .byte.b	$C2
     21  6d7c		       c2		      .byte.b	$C2
     22  6d7d		       c2		      .byte.b	$C2
     23  6d7e		       c2		      .byte.b	$C2
     24  6d7f		       c2		      .byte.b	$C2
     25  6d80
     26  6d80
     27  6d80				  -	      if	>. != >[.+(bmp_96x2_4_height)]
     28  6d80				  -	      align	256
     29  6d80					      endif
     30  6d80
     31  6d80				   bmp_96x2_4_00
     32  6d80							; *** replace this block with your bimap_09 data block...
     33  6d80
     34  6d80		       00		      .byte.b	%00000000	;
     35  6d81		       00		      .byte.b	%00000000	;
     36  6d82		       00		      .byte.b	%00000000	;
     37  6d83		       00		      .byte.b	%00000000	;
     38  6d84		       00		      .byte.b	%00000000	;
     39  6d85
     40  6d85				  -	      if	>. != >[.+(bmp_96x2_4_height)]
     41  6d85				  -	      align	256
     42  6d85					      endif
     43  6d85				   bmp_96x2_4_01
     44  6d85							; *** replace this block with your bimap_09 data block...
     45  6d85
     46  6d85		       00		      .byte.b	%00000000	;
     47  6d86		       00		      .byte.b	%00000000	;
     48  6d87		       00		      .byte.b	%00000000	;
     49  6d88		       00		      .byte.b	%00000000	;
     50  6d89		       00		      .byte.b	%00000000	;
     51  6d8a
     52  6d8a				  -	      if	>. != >[.+(bmp_96x2_4_height)]
     53  6d8a				  -	      align	256
     54  6d8a					      endif
     55  6d8a
     56  6d8a				   bmp_96x2_4_02
     57  6d8a		       8a		      .byte.b	%10001010	;
     58  6d8b		       8a		      .byte.b	%10001010	;
     59  6d8c		       ec		      .byte.b	%11101100	;
     60  6d8d		       aa		      .byte.b	%10101010	;
     61  6d8e		       ee		      .byte.b	%11101110	;
     62  6d8f
     63  6d8f
     64  6d8f				  -	      if	>. != >[.+(bmp_96x2_4_height)]
     65  6d8f				  -	      align	256
     66  6d8f					      endif
     67  6d8f				   bmp_96x2_4_03
     68  6d8f							; *** replace this block with your bimap_00 data block...
     69  6d8f		       ee		      .byte.b	%11101110	;
     70  6d90		       82		      .byte.b	%10000010	;
     71  6d91		       ce		      .byte.b	%11001110	;
     72  6d92		       88		      .byte.b	%10001000	;
     73  6d93		       ee		      .byte.b	%11101110	;
     74  6d94
     75  6d94
     76  6d94
     77  6d94				  -	      if	>. != >[.+(bmp_96x2_4_height)]
     78  6d94				  -	      align	256
     79  6d94					      endif
     80  6d94
     81  6d94
     82  6d94				   bmp_96x2_4_04
     83  6d94							; *** replace this block with your bimap_01 data block...
     84  6d94		       e0		      .byte.b	%11100000	;
     85  6d95		       20		      .byte.b	%00100000	;
     86  6d96		       e0		      .byte.b	%11100000	;
     87  6d97		       80		      .byte.b	%10000000	;
     88  6d98		       e0		      .byte.b	%11100000	;
     89  6d99
     90  6d99
     91  6d99				  -	      if	>. != >[.+(bmp_96x2_4_height)]
     92  6d99				  -	      align	256
     93  6d99					      endif
     94  6d99
     95  6d99
     96  6d99				   bmp_96x2_4_05
     97  6d99							; *** replace this block with your bimap_02 data block...
     98  6d99		       84		      .byte.b	%10000100	;
     99  6d9a		       84		      .byte.b	%10000100	;
    100  6d9b		       c4		      .byte.b	%11000100	;
    101  6d9c		       84		      .byte.b	%10000100	;
    102  6d9d		       e4		      .byte.b	%11100100	;
    103  6d9e
    104  6d9e
    105  6d9e				  -	      if	>. != >[.+(bmp_96x2_4_height)]
    106  6d9e				  -	      align	256
    107  6d9e					      endif
    108  6d9e
    109  6d9e
    110  6d9e				   bmp_96x2_4_06
    111  6d9e							; *** replace this block with your bimap_03 data block...
    112  6d9e		       ae		      .byte.b	%10101110	;
    113  6d9f		       a8		      .byte.b	%10101000	;
    114  6da0		       cc		      .byte.b	%11001100	;
    115  6da1		       a8		      .byte.b	%10101000	;
    116  6da2		       ee		      .byte.b	%11101110	;
    117  6da3
    118  6da3
    119  6da3
    120  6da3				  -	      if	>. != >[.+(bmp_96x2_4_height)]
    121  6da3				  -	      align	256
    122  6da3					      endif
    123  6da3
    124  6da3
    125  6da3				   bmp_96x2_4_07
    126  6da3							; *** replace this block with your bimap_04 data block...
    127  6da3		       04		      .byte.b	%00000100	;
    128  6da4		       04		      .byte.b	%00000100	;
    129  6da5		       04		      .byte.b	%00000100	;
    130  6da6		       04		      .byte.b	%00000100	;
    131  6da7		       0e		      .byte.b	%00001110	;
    132  6da8
    133  6da8
    134  6da8
    135  6da8				  -	      if	>. != >[.+(bmp_96x2_4_height)]
    136  6da8				  -	      align	256
    137  6da8					      endif
    138  6da8
    139  6da8
    140  6da8				   bmp_96x2_4_08
    141  6da8							; *** replace this block with your bimap_05 data block...
    142  6da8		       e0		      .byte.b	%11100000	;
    143  6da9		       a0		      .byte.b	%10100000	;
    144  6daa		       a0		      .byte.b	%10100000	;
    145  6dab		       a0		      .byte.b	%10100000	;
    146  6dac		       e0		      .byte.b	%11100000	;
    147  6dad
    148  6dad
    149  6dad
    150  6dad				  -	      if	>. != >[.+(bmp_96x2_4_height)]
    151  6dad				  -	      align	256
    152  6dad					      endif
    153  6dad
    154  6dad
    155  6dad				   bmp_96x2_4_09
    156  6dad							; *** replace this block with your bimap_06 data block...
    157  6dad		       8e		      .byte.b	%10001110	;
    158  6dae		       88		      .byte.b	%10001000	;
    159  6daf		       e8		      .byte.b	%11101000	;
    160  6db0		       a8		      .byte.b	%10101000	;
    161  6db1		       e8		      .byte.b	%11101000	;
    162  6db2
    163  6db2
    164  6db2
    165  6db2				  -	      if	>. != >[.+(bmp_96x2_4_height)]
    166  6db2				  -	      align	256
    167  6db2					      endif
    168  6db2
    169  6db2
    170  6db2				   bmp_96x2_4_10
    171  6db2							; *** replace this block with your bimap_07 data block...
    172  6db2		       a4		      .byte.b	%10100100	;
    173  6db3		       a4		      .byte.b	%10100100	;
    174  6db4		       ee		      .byte.b	%11101110	;
    175  6db5		       aa		      .byte.b	%10101010	;
    176  6db6		       ea		      .byte.b	%11101010	;
    177  6db7
    178  6db7
    179  6db7
    180  6db7				  -	      if	>. != >[.+(bmp_96x2_4_height)]
    181  6db7				  -	      align	256
    182  6db7					      endif
    183  6db7
    184  6db7
    185  6db7				   bmp_96x2_4_11
    186  6db7							; *** replace this block with your bimap_08 data block...
    187  6db7
    188  6db7		       00		      .byte.b	%00000000	;
    189  6db8		       00		      .byte.b	%00000000	;
    190  6db9		       00		      .byte.b	%00000000	;
    191  6dba		       00		      .byte.b	%00000000	;
    192  6dbb		       00		      .byte.b	%00000000	;
    193  6dbc
    194  6dbc				  -	      if	>. != >[.+(bmp_96x2_4_height)]
    195  6dbc				  -	      align	256
    196  6dbc					      endif
    197  6dbc
    198  6dbc
    199  6dbc
    200  6dbc
    201  6dbc
    202  6dbc
    203  6dbc
    204  6dbc
    205  6dbc
------- FILE titlescreen/asm/titlescreen.asm
    283  6dbc					      endif
    284  6dbc					      ifconst	mk_96x2_5_on
------- FILE titlescreen/96x2_5_image.asm LEVEL 3 PASS 4
      0  6dbc					      include	"titlescreen/96x2_5_image.asm"
      1  6dbc
      2  6dbc							;*** The height of the displayed data...
      3  6dbc		       00 05	   bmp_96x2_5_window =	5
      4  6dbc
      5  6dbc							;*** The height of the bitmap data. This can be larger than
      6  6dbc							;*** the displayed data height, if you're scrolling or animating
      7  6dbc							;*** the data...
      8  6dbc		       00 05	   bmp_96x2_5_height =	5
      9  6dbc
     10  6dbc
     11  6dbc				  -	      if	>. != >[.+(bmp_96x2_5_height)]
     12  6dbc				  -	      align	256
     13  6dbc					      endif
     14  6dbc		       00		      BYTE.b	$00	; leave this here!
     15  6dbd
     16  6dbd
     17  6dbd							;*** The color of each line in the bitmap, in reverse order...
     18  6dbd				   bmp_96x2_5_colors
     19  6dbd		       9a		      BYTE.b	$9a
     20  6dbe		       7a		      BYTE.b	$7a
     21  6dbf		       5a		      BYTE.b	$5a
     22  6dc0		       3a		      BYTE.b	$3a
     23  6dc1		       1a		      BYTE.b	$1a
     24  6dc2
     25  6dc2
     26  6dc2				  -	      if	>. != >[.+(bmp_96x2_5_height)]
     27  6dc2				  -	      align	256
     28  6dc2					      endif
     29  6dc2
     30  6dc2
     31  6dc2				   bmp_96x2_5_00
     32  6dc2							; *** replace this block with your bimap_11 data block...
     33  6dc2		       00		      BYTE.b	%00000000
     34  6dc3		       00		      BYTE.b	%00000000
     35  6dc4		       00		      BYTE.b	%00000000
     36  6dc5		       00		      BYTE.b	%00000000
     37  6dc6		       00		      BYTE.b	%00000000
     38  6dc7
     39  6dc7				  -	      if	>. != >[.+(bmp_96x2_5_height)]
     40  6dc7				  -	      align	256
     41  6dc7					      endif
     42  6dc7
     43  6dc7				   bmp_96x2_5_01
     44  6dc7							; *** replace this block with your bimap_11 data block...
     45  6dc7		       00		      BYTE.b	%00000000
     46  6dc8		       00		      BYTE.b	%00000000
     47  6dc9		       00		      BYTE.b	%00000000
     48  6dca		       00		      BYTE.b	%00000000
     49  6dcb		       00		      BYTE.b	%00000000
     50  6dcc
     51  6dcc				  -	      if	>. != >[.+(bmp_96x2_5_height)]
     52  6dcc				  -	      align	256
     53  6dcc					      endif
     54  6dcc
     55  6dcc				   bmp_96x2_5_02
     56  6dcc							; *** replace this block with your bimap_11 data block...
     57  6dcc		       00		      BYTE.b	%00000000
     58  6dcd		       00		      BYTE.b	%00000000
     59  6dce		       00		      BYTE.b	%00000000
     60  6dcf		       00		      BYTE.b	%00000000
     61  6dd0		       00		      BYTE.b	%00000000
     62  6dd1
     63  6dd1				  -	      if	>. != >[.+(bmp_96x2_5_height)]
     64  6dd1				  -	      align	256
     65  6dd1					      endif
     66  6dd1
     67  6dd1				   bmp_96x2_5_03
     68  6dd1							; *** replace this block with your bimap_00 data block...
     69  6dd1		       4a		      .byte.b	%01001010	;
     70  6dd2		       4a		      .byte.b	%01001010	;
     71  6dd3		       4e		      .byte.b	%01001110	;
     72  6dd4		       4a		      .byte.b	%01001010	;
     73  6dd5		       e4		      .byte.b	%11100100	;
     74  6dd6
     75  6dd6
     76  6dd6				  -	      if	>. != >[.+(bmp_96x2_5_height)]
     77  6dd6				  -	      align	256
     78  6dd6					      endif
     79  6dd6
     80  6dd6
     81  6dd6				   bmp_96x2_5_04
     82  6dd6							; *** replace this block with your bimap_01 data block...
     83  6dd6		       ea		      .byte.b	%11101010	;
     84  6dd7		       8a		      .byte.b	%10001010	;
     85  6dd8		       4c		      .byte.b	%01001100	;
     86  6dd9		       2a		      .byte.b	%00101010	;
     87  6dda		       ec		      .byte.b	%11101100	;
     88  6ddb
     89  6ddb
     90  6ddb				  -	      if	>. != >[.+(bmp_96x2_5_height)]
     91  6ddb				  -	      align	256
     92  6ddb					      endif
     93  6ddb
     94  6ddb
     95  6ddb				   bmp_96x2_5_05
     96  6ddb							; *** replace this block with your bimap_02 data block...
     97  6ddb		       ee		      .byte.b	%11101110	;
     98  6ddc		       aa		      .byte.b	%10101010	;
     99  6ddd		       aa		      .byte.b	%10101010	;
    100  6dde		       a8		      .byte.b	%10101000	;
    101  6ddf		       ee		      .byte.b	%11101110	;
    102  6de0
    103  6de0
    104  6de0				  -	      if	>. != >[.+(bmp_96x2_5_height)]
    105  6de0				  -	      align	256
    106  6de0					      endif
    107  6de0
    108  6de0
    109  6de0				   bmp_96x2_5_06
    110  6de0							; *** replace this block with your bimap_03 data block...
    111  6de0		       0e		      .byte.b	%00001110	;
    112  6de1		       0a		      .byte.b	%00001010	;
    113  6de2		       0a		      .byte.b	%00001010	;
    114  6de3		       08		      .byte.b	%00001000	;
    115  6de4		       0e		      .byte.b	%00001110	;
    116  6de5
    117  6de5
    118  6de5
    119  6de5				  -	      if	>. != >[.+(bmp_96x2_5_height)]
    120  6de5				  -	      align	256
    121  6de5					      endif
    122  6de5
    123  6de5
    124  6de5				   bmp_96x2_5_07
    125  6de5							; *** replace this block with your bimap_04 data block...
    126  6de5		       aa		      .byte.b	%10101010	;
    127  6de6		       aa		      .byte.b	%10101010	;
    128  6de7		       ea		      .byte.b	%11101010	;
    129  6de8		       ae		      .byte.b	%10101110	;
    130  6de9		       ea		      .byte.b	%11101010	;
    131  6dea
    132  6dea
    133  6dea				  -	      if	>. != >[.+(bmp_96x2_5_height)]
    134  6dea				  -	      align	256
    135  6dea					      endif
    136  6dea
    137  6dea
    138  6dea				   bmp_96x2_5_08
    139  6dea							; *** replace this block with your bimap_05 data block...
    140  6dea		       ee		      .byte.b	%11101110	;
    141  6deb		       82		      .byte.b	%10000010	;
    142  6dec		       ce		      .byte.b	%11001110	;
    143  6ded		       88		      .byte.b	%10001000	;
    144  6dee		       ee		      .byte.b	%11101110	;
    145  6def
    146  6def
    147  6def				  -	      if	>. != >[.+(bmp_96x2_5_height)]
    148  6def				  -	      align	256
    149  6def					      endif
    150  6def
    151  6def
    152  6def				   bmp_96x2_5_09
    153  6def							; *** replace this block with your bimap_06 data block...
    154  6def		       00		      BYTE.b	%00000000
    155  6df0		       00		      BYTE.b	%00000000
    156  6df1		       00		      BYTE.b	%00000000
    157  6df2		       00		      BYTE.b	%00000000
    158  6df3		       00		      BYTE.b	%00000000
    159  6df4
    160  6df4
    161  6df4				  -	      if	>. != >[.+(bmp_96x2_5_height)]
    162  6df4				  -	      align	256
    163  6df4					      endif
    164  6df4
    165  6df4
    166  6df4				   bmp_96x2_5_10
    167  6df4							; *** replace this block with your bimap_07 data block...
    168  6df4		       00		      BYTE.b	%00000000
    169  6df5		       00		      BYTE.b	%00000000
    170  6df6		       00		      BYTE.b	%00000000
    171  6df7		       00		      BYTE.b	%00000000
    172  6df8		       00		      BYTE.b	%00000000
    173  6df9
    174  6df9
    175  6df9				  -	      if	>. != >[.+(bmp_96x2_5_height)]
    176  6df9				  -	      align	256
    177  6df9					      endif
    178  6df9
    179  6df9
    180  6df9				   bmp_96x2_5_11
    181  6df9							; *** replace this block with your bimap_08 data block...
    182  6df9		       00		      BYTE.b	%00000000
    183  6dfa		       00		      BYTE.b	%00000000
    184  6dfb		       00		      BYTE.b	%00000000
    185  6dfc		       00		      BYTE.b	%00000000
    186  6dfd		       00		      BYTE.b	%00000000
    187  6dfe
    188  6dfe
    189  6dfe
------- FILE titlescreen/asm/titlescreen.asm
    286  6dfe					      endif
    287  6dfe				  -	      ifconst	mk_96x2_6_on
    288  6dfe				  -	      include	"titlescreen/96x2_6_image.asm"
    289  6dfe					      endif
    290  6dfe				  -	      ifconst	mk_96x2_7_on
    291  6dfe				  -	      include	"titlescreen/96x2_7_image.asm"
    292  6dfe					      endif
    293  6dfe				  -	      ifconst	mk_96x2_8_on
    294  6dfe				  -	      include	"titlescreen/96x2_8_image.asm"
    295  6dfe					      endif
    296  6dfe
    297  6dfe				  -	      ifconst	mk_player_on
    298  6dfe				  -	      include	"titlescreen/player_image.asm"
    299  6dfe					      endif
    300  6dfe
    301  6dfe					      ifconst	mk_score_on
------- FILE titlescreen/score_image.asm LEVEL 3 PASS 4
      0  6dfe					      include	"titlescreen/score_image.asm"
      1  6dfe							; feel free to modify the score graphics - just keep each digit 8 high
      2  6dfe							; if you're looking to want to modify any one font, pick on the
      3  6dfe
      4  6dfe				  -	      ifnconst	scorecolor
      5  6dfe				  -scorecolor
      6  6dfe					      endif
      7  6dfe							; ** change this value for a different scorecolor under DPC+
      8  6dfe							;    for other kernels, just use the scorecolor variable
      9  6dfe		       0f		      .byte.b	$0f
     10  6dff
     11  6dff				  -	      ifnconst	NOFONT
     12  6dff				  -NOFONT     =	0
     13  6dff					      endif
     14  6dff				  -	      ifnconst	STOCK
     15  6dff				  -STOCK      =	1	;_FONTNAME
     16  6dff					      endif
     17  6dff				  -	      ifnconst	NEWCENTURY
     18  6dff				  -NEWCENTURY =	2	;_FONTNAME
     19  6dff					      endif
     20  6dff				  -	      ifnconst	WHIMSEY
     21  6dff				  -WHIMSEY    =	3	;_FONTNAME
     22  6dff					      endif
     23  6dff				  -	      ifnconst	ALARMCLOCK
     24  6dff				  -ALARMCLOCK =	4	;_FONTNAME
     25  6dff					      endif
     26  6dff				  -	      ifnconst	HANDWRITTEN
     27  6dff				  -HANDWRITTEN =	5	;_FONTNAME
     28  6dff					      endif
     29  6dff				  -	      ifnconst	INTERRUPTED
     30  6dff				  -INTERRUPTED =	6	;_FONTNAME
     31  6dff					      endif
     32  6dff				  -	      ifnconst	TINY
     33  6dff				  -TINY       =	7	;_FONTNAME
     34  6dff					      endif
     35  6dff				  -	      ifnconst	RETROPUTER
     36  6dff				  -RETROPUTER =	8	;_FONTNAME
     37  6dff					      endif
     38  6dff				  -	      ifnconst	CURVES
     39  6dff				  -CURVES     =	9	;_FONTNAME
     40  6dff					      endif
     41  6dff				  -	      ifnconst	HUSKY
     42  6dff				  -HUSKY      =	10	;_FONTNAME
     43  6dff					      endif
     44  6dff				  -	      ifnconst	SNAKE
     45  6dff				  -SNAKE      =	11	;_FONTNAME
     46  6dff					      endif
     47  6dff				  -	      ifnconst	PLOK
     48  6dff				  -PLOK       =	13	;_FONTNAME
     49  6dff					      endif
     50  6dff
     51  6dff				  -	      ifnconst	SYMBOLS
     52  6dff				  -SYMBOLS    =	0	;_FONTNAME
     53  6dff					      endif
     54  6dff
     55  6dff							; ### setup some defaults
     56  6dff				  -	      ifnconst	fontstyle
     57  6dff				  -fontstyle  =	STOCK
     58  6dff					      endif
     59  6dff
     60  6dff							;fix up the table alignment, if necessary
     61  6dff					      if	>. != >[.+81]
     62  6e00		       00		      align	256
     63  6e00					      endif
     64  6e00
     65  6e00
     66  6e00				   miniscoretable
     67  6e00
     68  6e00					      if	fontstyle == STOCK
     69  6e00
     70  6e00							;byte %00000000 ; STOCK
     71  6e00
     72  6e00		       3c		      .byte.b	%00111100	; STOCK
     73  6e01		       66		      .byte.b	%01100110	; STOCK
     74  6e02		       66		      .byte.b	%01100110	; STOCK
     75  6e03		       66		      .byte.b	%01100110	; STOCK
     76  6e04		       66		      .byte.b	%01100110	; STOCK
     77  6e05		       66		      .byte.b	%01100110	; STOCK
     78  6e06		       66		      .byte.b	%01100110	; STOCK
     79  6e07		       3c		      .byte.b	%00111100	; STOCK
     80  6e08
     81  6e08							;byte %00000000 ; STOCK
     82  6e08
     83  6e08		       7e		      .byte.b	%01111110	; STOCK
     84  6e09		       18		      .byte.b	%00011000	; STOCK
     85  6e0a		       18		      .byte.b	%00011000	; STOCK
     86  6e0b		       18		      .byte.b	%00011000	; STOCK
     87  6e0c		       18		      .byte.b	%00011000	; STOCK
     88  6e0d		       38		      .byte.b	%00111000	; STOCK
     89  6e0e		       18		      .byte.b	%00011000	; STOCK
     90  6e0f		       08		      .byte.b	%00001000	; STOCK
     91  6e10
     92  6e10							;byte %00000000 ; STOCK
     93  6e10
     94  6e10		       7e		      .byte.b	%01111110	; STOCK
     95  6e11		       60		      .byte.b	%01100000	; STOCK
     96  6e12		       60		      .byte.b	%01100000	; STOCK
     97  6e13		       3c		      .byte.b	%00111100	; STOCK
     98  6e14		       06		      .byte.b	%00000110	; STOCK
     99  6e15		       06		      .byte.b	%00000110	; STOCK
    100  6e16		       46		      .byte.b	%01000110	; STOCK
    101  6e17		       3c		      .byte.b	%00111100	; STOCK
    102  6e18
    103  6e18							;byte %00000000 ; STOCK
    104  6e18
    105  6e18		       3c		      .byte.b	%00111100	; STOCK
    106  6e19		       46		      .byte.b	%01000110	; STOCK
    107  6e1a		       06		      .byte.b	%00000110	; STOCK
    108  6e1b		       06		      .byte.b	%00000110	; STOCK
    109  6e1c		       1c		      .byte.b	%00011100	; STOCK
    110  6e1d		       06		      .byte.b	%00000110	; STOCK
    111  6e1e		       46		      .byte.b	%01000110	; STOCK
    112  6e1f		       3c		      .byte.b	%00111100	; STOCK
    113  6e20
    114  6e20							;byte %00000000 ; STOCK
    115  6e20
    116  6e20		       0c		      .byte.b	%00001100	; STOCK
    117  6e21		       0c		      .byte.b	%00001100	; STOCK
    118  6e22		       7e		      .byte.b	%01111110	; STOCK
    119  6e23		       4c		      .byte.b	%01001100	; STOCK
    120  6e24		       4c		      .byte.b	%01001100	; STOCK
    121  6e25		       2c		      .byte.b	%00101100	; STOCK
    122  6e26		       1c		      .byte.b	%00011100	; STOCK
    123  6e27		       0c		      .byte.b	%00001100	; STOCK
    124  6e28
    125  6e28							;byte %00000000 ; STOCK
    126  6e28
    127  6e28		       3c		      .byte.b	%00111100	; STOCK
    128  6e29		       46		      .byte.b	%01000110	; STOCK
    129  6e2a		       06		      .byte.b	%00000110	; STOCK
    130  6e2b		       06		      .byte.b	%00000110	; STOCK
    131  6e2c		       3c		      .byte.b	%00111100	; STOCK
    132  6e2d		       60		      .byte.b	%01100000	; STOCK
    133  6e2e		       60		      .byte.b	%01100000	; STOCK
    134  6e2f		       7e		      .byte.b	%01111110	; STOCK
    135  6e30
    136  6e30							;byte %00000000 ; STOCK
    137  6e30
    138  6e30		       3c		      .byte.b	%00111100	; STOCK
    139  6e31		       66		      .byte.b	%01100110	; STOCK
    140  6e32		       66		      .byte.b	%01100110	; STOCK
    141  6e33		       66		      .byte.b	%01100110	; STOCK
    142  6e34		       7c		      .byte.b	%01111100	; STOCK
    143  6e35		       60		      .byte.b	%01100000	; STOCK
    144  6e36		       62		      .byte.b	%01100010	; STOCK
    145  6e37		       3c		      .byte.b	%00111100	; STOCK
    146  6e38
    147  6e38							;byte %00000000 ; STOCK
    148  6e38
    149  6e38		       30		      .byte.b	%00110000	; STOCK
    150  6e39		       30		      .byte.b	%00110000	; STOCK
    151  6e3a		       30		      .byte.b	%00110000	; STOCK
    152  6e3b		       18		      .byte.b	%00011000	; STOCK
    153  6e3c		       0c		      .byte.b	%00001100	; STOCK
    154  6e3d		       06		      .byte.b	%00000110	; STOCK
    155  6e3e		       42		      .byte.b	%01000010	; STOCK
    156  6e3f		       3e		      .byte.b	%00111110	; STOCK
    157  6e40
    158  6e40							;byte %00000000 ; STOCK
    159  6e40
    160  6e40		       3c		      .byte.b	%00111100	; STOCK
    161  6e41		       66		      .byte.b	%01100110	; STOCK
    162  6e42		       66		      .byte.b	%01100110	; STOCK
    163  6e43		       66		      .byte.b	%01100110	; STOCK
    164  6e44		       3c		      .byte.b	%00111100	; STOCK
    165  6e45		       66		      .byte.b	%01100110	; STOCK
    166  6e46		       66		      .byte.b	%01100110	; STOCK
    167  6e47		       3c		      .byte.b	%00111100	; STOCK
    168  6e48
    169  6e48							;byte %00000000 ; STOCK
    170  6e48
    171  6e48		       3c		      .byte.b	%00111100	; STOCK
    172  6e49		       46		      .byte.b	%01000110	; STOCK
    173  6e4a		       06		      .byte.b	%00000110	; STOCK
    174  6e4b		       3e		      .byte.b	%00111110	; STOCK
    175  6e4c		       66		      .byte.b	%01100110	; STOCK
    176  6e4d		       66		      .byte.b	%01100110	; STOCK
    177  6e4e		       66		      .byte.b	%01100110	; STOCK
    178  6e4f		       3c		      .byte.b	%00111100	; STOCK
    179  6e50
    180  6e50					      endif		; STOCK
    181  6e50
    182  6e50				  -	      if	fontstyle == NEWCENTURY
    183  6e50				  -			;byte %00000000 ; NEWCENTURY
    184  6e50				  -
    185  6e50				  -	      .byte	%00111100	; NEWCENTURY
    186  6e50				  -	      .byte	%01000010	; NEWCENTURY
    187  6e50				  -	      .byte	%01000010	; NEWCENTURY
    188  6e50				  -	      .byte	%01000010	; NEWCENTURY
    189  6e50				  -	      .byte	%00100100	; NEWCENTURY
    190  6e50				  -	      .byte	%00100100	; NEWCENTURY
    191  6e50				  -	      .byte	%00100100	; NEWCENTURY
    192  6e50				  -	      .byte	%00011000	; NEWCENTURY
    193  6e50				  -
    194  6e50				  -			;byte %00000000 ; NEWCENTURY
    195  6e50				  -
    196  6e50				  -	      .byte	%00001000	; NEWCENTURY
    197  6e50				  -	      .byte	%00001000	; NEWCENTURY
    198  6e50				  -	      .byte	%00001000	; NEWCENTURY
    199  6e50				  -	      .byte	%00001000	; NEWCENTURY
    200  6e50				  -	      .byte	%00001000	; NEWCENTURY
    201  6e50				  -	      .byte	%00001000	; NEWCENTURY
    202  6e50				  -	      .byte	%00001000	; NEWCENTURY
    203  6e50				  -	      .byte	%00001000	; NEWCENTURY
    204  6e50				  -
    205  6e50				  -			;byte %00000000 ; NEWCENTURY
    206  6e50				  -
    207  6e50				  -	      .byte	%01111110	; NEWCENTURY
    208  6e50				  -	      .byte	%01000000	; NEWCENTURY
    209  6e50				  -	      .byte	%01000000	; NEWCENTURY
    210  6e50				  -	      .byte	%00100000	; NEWCENTURY
    211  6e50				  -	      .byte	%00011100	; NEWCENTURY
    212  6e50				  -	      .byte	%00000010	; NEWCENTURY
    213  6e50				  -	      .byte	%00000010	; NEWCENTURY
    214  6e50				  -	      .byte	%00011100	; NEWCENTURY
    215  6e50				  -
    216  6e50				  -			;byte %00000000 ; NEWCENTURY
    217  6e50				  -
    218  6e50				  -	      .byte	%01111100	; NEWCENTURY
    219  6e50				  -	      .byte	%00000010	; NEWCENTURY
    220  6e50				  -	      .byte	%00000010	; NEWCENTURY
    221  6e50				  -	      .byte	%00000010	; NEWCENTURY
    222  6e50				  -	      .byte	%00111100	; NEWCENTURY
    223  6e50				  -	      .byte	%00000010	; NEWCENTURY
    224  6e50				  -	      .byte	%00000010	; NEWCENTURY
    225  6e50				  -	      .byte	%00011100	; NEWCENTURY
    226  6e50				  -
    227  6e50				  -			;byte %00000000 ; NEWCENTURY
    228  6e50				  -
    229  6e50				  -	      .byte	%00000010	; NEWCENTURY
    230  6e50				  -	      .byte	%00000010	; NEWCENTURY
    231  6e50				  -	      .byte	%00000010	; NEWCENTURY
    232  6e50				  -	      .byte	%00111110	; NEWCENTURY
    233  6e50				  -	      .byte	%00100010	; NEWCENTURY
    234  6e50				  -	      .byte	%00100010	; NEWCENTURY
    235  6e50				  -	      .byte	%00010010	; NEWCENTURY
    236  6e50				  -	      .byte	%00010010	; NEWCENTURY
    237  6e50				  -
    238  6e50				  -			;byte %00000000 ; NEWCENTURY
    239  6e50				  -
    240  6e50				  -	      .byte	%01111100	; NEWCENTURY
    241  6e50				  -	      .byte	%00000010	; NEWCENTURY
    242  6e50				  -	      .byte	%00000010	; NEWCENTURY
    243  6e50				  -	      .byte	%00000010	; NEWCENTURY
    244  6e50				  -	      .byte	%01111100	; NEWCENTURY
    245  6e50				  -	      .byte	%01000000	; NEWCENTURY
    246  6e50				  -	      .byte	%01000000	; NEWCENTURY
    247  6e50				  -	      .byte	%01111000	; NEWCENTURY
    248  6e50				  -
    249  6e50				  -			;byte %00000000 ; NEWCENTURY
    250  6e50				  -
    251  6e50				  -	      .byte	%00111100	; NEWCENTURY
    252  6e50				  -	      .byte	%01000010	; NEWCENTURY
    253  6e50				  -	      .byte	%01000010	; NEWCENTURY
    254  6e50				  -	      .byte	%01000010	; NEWCENTURY
    255  6e50				  -	      .byte	%01111100	; NEWCENTURY
    256  6e50				  -	      .byte	%01000000	; NEWCENTURY
    257  6e50				  -	      .byte	%01000000	; NEWCENTURY
    258  6e50				  -	      .byte	%00110000	; NEWCENTURY
    259  6e50				  -
    260  6e50				  -			;byte %00000000 ; NEWCENTURY
    261  6e50				  -
    262  6e50				  -	      .byte	%00010000	; NEWCENTURY
    263  6e50				  -	      .byte	%00010000	; NEWCENTURY
    264  6e50				  -	      .byte	%00001000	; NEWCENTURY
    265  6e50				  -	      .byte	%00001000	; NEWCENTURY
    266  6e50				  -	      .byte	%00000100	; NEWCENTURY
    267  6e50				  -	      .byte	%00000100	; NEWCENTURY
    268  6e50				  -	      .byte	%00000010	; NEWCENTURY
    269  6e50				  -	      .byte	%00011110	; NEWCENTURY
    270  6e50				  -
    271  6e50				  -			;byte %00000000 ; NEWCENTURY
    272  6e50				  -
    273  6e50				  -	      .byte	%00111100	; NEWCENTURY
    274  6e50				  -	      .byte	%01000010	; NEWCENTURY
    275  6e50				  -	      .byte	%01000010	; NEWCENTURY
    276  6e50				  -	      .byte	%01000010	; NEWCENTURY
    277  6e50				  -	      .byte	%00111100	; NEWCENTURY
    278  6e50				  -	      .byte	%00100100	; NEWCENTURY
    279  6e50				  -	      .byte	%00100100	; NEWCENTURY
    280  6e50				  -	      .byte	%00011000	; NEWCENTURY
    281  6e50				  -
    282  6e50				  -			;byte %00000000 ; NEWCENTURY
    283  6e50				  -
    284  6e50				  -	      .byte	%00111100	; NEWCENTURY
    285  6e50				  -	      .byte	%00000010	; NEWCENTURY
    286  6e50				  -	      .byte	%00000010	; NEWCENTURY
    287  6e50				  -	      .byte	%00000010	; NEWCENTURY
    288  6e50				  -	      .byte	%00001110	; NEWCENTURY
    289  6e50				  -	      .byte	%00010010	; NEWCENTURY
    290  6e50				  -	      .byte	%00010010	; NEWCENTURY
    291  6e50				  -	      .byte	%00001100	; NEWCENTURY
    292  6e50				  -
    293  6e50					      endif		; NEWCENTURY
    294  6e50
    295  6e50				  -	      if	fontstyle == WHIMSEY
    296  6e50				  -			;byte %00000000 ; WHIMSEY
    297  6e50				  -
    298  6e50				  -	      .byte	%00111100	; WHIMSEY
    299  6e50				  -	      .byte	%01111110	; WHIMSEY
    300  6e50				  -	      .byte	%01111110	; WHIMSEY
    301  6e50				  -	      .byte	%01111110	; WHIMSEY
    302  6e50				  -	      .byte	%01110110	; WHIMSEY
    303  6e50				  -	      .byte	%01110110	; WHIMSEY
    304  6e50				  -	      .byte	%01110110	; WHIMSEY
    305  6e50				  -	      .byte	%00111100	; WHIMSEY
    306  6e50				  -
    307  6e50				  -			;byte %00000000 ; WHIMSEY
    308  6e50				  -
    309  6e50				  -	      .byte	%01111110	; WHIMSEY
    310  6e50				  -	      .byte	%01111110	; WHIMSEY
    311  6e50				  -	      .byte	%01111110	; WHIMSEY
    312  6e50				  -	      .byte	%00011000	; WHIMSEY
    313  6e50				  -	      .byte	%00011000	; WHIMSEY
    314  6e50				  -	      .byte	%00011000	; WHIMSEY
    315  6e50				  -	      .byte	%01111000	; WHIMSEY
    316  6e50				  -	      .byte	%00011000	; WHIMSEY
    317  6e50				  -
    318  6e50				  -			;byte %00000000 ; WHIMSEY
    319  6e50				  -
    320  6e50				  -	      .byte	%01111110	; WHIMSEY
    321  6e50				  -	      .byte	%01111110	; WHIMSEY
    322  6e50				  -	      .byte	%01111110	; WHIMSEY
    323  6e50				  -	      .byte	%01111000	; WHIMSEY
    324  6e50				  -	      .byte	%00111100	; WHIMSEY
    325  6e50				  -	      .byte	%00001110	; WHIMSEY
    326  6e50				  -	      .byte	%01100110	; WHIMSEY
    327  6e50				  -	      .byte	%00111100	; WHIMSEY
    328  6e50				  -
    329  6e50				  -			;byte %00000000 ; WHIMSEY
    330  6e50				  -
    331  6e50				  -	      .byte	%00111100	; WHIMSEY
    332  6e50				  -	      .byte	%01111110	; WHIMSEY
    333  6e50				  -	      .byte	%01111110	; WHIMSEY
    334  6e50				  -	      .byte	%01101110	; WHIMSEY
    335  6e50				  -	      .byte	%00001110	; WHIMSEY
    336  6e50				  -	      .byte	%00111100	; WHIMSEY
    337  6e50				  -	      .byte	%00011100	; WHIMSEY
    338  6e50				  -	      .byte	%01111110	; WHIMSEY
    339  6e50				  -
    340  6e50				  -			;byte %00000000 ; WHIMSEY
    341  6e50				  -
    342  6e50				  -	      .byte	%00011100	; WHIMSEY
    343  6e50				  -	      .byte	%00011100	; WHIMSEY
    344  6e50				  -	      .byte	%01111110	; WHIMSEY
    345  6e50				  -	      .byte	%01011100	; WHIMSEY
    346  6e50				  -	      .byte	%01011100	; WHIMSEY
    347  6e50				  -	      .byte	%00011100	; WHIMSEY
    348  6e50				  -	      .byte	%00011100	; WHIMSEY
    349  6e50				  -	      .byte	%00011100	; WHIMSEY
    350  6e50				  -
    351  6e50				  -			;byte %00000000 ; WHIMSEY
    352  6e50				  -
    353  6e50				  -	      .byte	%00111100	; WHIMSEY
    354  6e50				  -	      .byte	%01111110	; WHIMSEY
    355  6e50				  -	      .byte	%01111110	; WHIMSEY
    356  6e50				  -	      .byte	%01101110	; WHIMSEY
    357  6e50				  -	      .byte	%00001110	; WHIMSEY
    358  6e50				  -	      .byte	%01111100	; WHIMSEY
    359  6e50				  -	      .byte	%01110000	; WHIMSEY
    360  6e50				  -	      .byte	%01111110	; WHIMSEY
    361  6e50				  -
    362  6e50				  -			;byte %00000000 ; WHIMSEY
    363  6e50				  -
    364  6e50				  -	      .byte	%00111100	; WHIMSEY
    365  6e50				  -	      .byte	%01111110	; WHIMSEY
    366  6e50				  -	      .byte	%01111110	; WHIMSEY
    367  6e50				  -	      .byte	%01110110	; WHIMSEY
    368  6e50				  -	      .byte	%01110110	; WHIMSEY
    369  6e50				  -	      .byte	%01111100	; WHIMSEY
    370  6e50				  -	      .byte	%01110000	; WHIMSEY
    371  6e50				  -	      .byte	%00111110	; WHIMSEY
    372  6e50				  -
    373  6e50				  -			;byte %00000000 ; WHIMSEY
    374  6e50				  -
    375  6e50				  -	      .byte	%01111000	; WHIMSEY
    376  6e50				  -	      .byte	%01111000	; WHIMSEY
    377  6e50				  -	      .byte	%01111000	; WHIMSEY
    378  6e50				  -	      .byte	%00111100	; WHIMSEY
    379  6e50				  -	      .byte	%00011100	; WHIMSEY
    380  6e50				  -	      .byte	%00001110	; WHIMSEY
    381  6e50				  -	      .byte	%00001110	; WHIMSEY
    382  6e50				  -	      .byte	%01111110	; WHIMSEY
    383  6e50				  -
    384  6e50				  -			;byte %00000000 ; WHIMSEY
    385  6e50				  -
    386  6e50				  -	      .byte	%00111100	; WHIMSEY
    387  6e50				  -	      .byte	%01111110	; WHIMSEY
    388  6e50				  -	      .byte	%01111110	; WHIMSEY
    389  6e50				  -	      .byte	%01110110	; WHIMSEY
    390  6e50				  -	      .byte	%01110110	; WHIMSEY
    391  6e50				  -	      .byte	%00111100	; WHIMSEY
    392  6e50				  -	      .byte	%01110110	; WHIMSEY
    393  6e50				  -	      .byte	%00111100	; WHIMSEY
    394  6e50				  -
    395  6e50				  -			;byte %00000000 ; WHIMSEY
    396  6e50				  -
    397  6e50				  -	      .byte	%00111100	; WHIMSEY
    398  6e50				  -	      .byte	%01111110	; WHIMSEY
    399  6e50				  -	      .byte	%01111110	; WHIMSEY
    400  6e50				  -	      .byte	%01110110	; WHIMSEY
    401  6e50				  -	      .byte	%00000110	; WHIMSEY
    402  6e50				  -	      .byte	%00111110	; WHIMSEY
    403  6e50				  -	      .byte	%01110110	; WHIMSEY
    404  6e50				  -	      .byte	%00111100	; WHIMSEY
    405  6e50				  -
    406  6e50					      endif		; WHIMSEY
    407  6e50
    408  6e50				  -	      if	fontstyle == ALARMCLOCK
    409  6e50				  -
    410  6e50				  -			;byte %00000000 ; ALARMCLOCK
    411  6e50				  -
    412  6e50				  -	      .byte	%00111100	; ALARMCLOCK
    413  6e50				  -	      .byte	%01000010	; ALARMCLOCK
    414  6e50				  -	      .byte	%01000010	; ALARMCLOCK
    415  6e50				  -	      .byte	%01000010	; ALARMCLOCK
    416  6e50				  -	      .byte	%00000000	; ALARMCLOCK
    417  6e50				  -	      .byte	%01000010	; ALARMCLOCK
    418  6e50				  -	      .byte	%01000010	; ALARMCLOCK
    419  6e50				  -	      .byte	%00111100	; ALARMCLOCK
    420  6e50				  -
    421  6e50				  -			;byte %00000000 ; ALARMCLOCK
    422  6e50				  -
    423  6e50				  -	      .byte	%00000000	; ALARMCLOCK
    424  6e50				  -	      .byte	%00000010	; ALARMCLOCK
    425  6e50				  -	      .byte	%00000010	; ALARMCLOCK
    426  6e50				  -	      .byte	%00000010	; ALARMCLOCK
    427  6e50				  -	      .byte	%00000000	; ALARMCLOCK
    428  6e50				  -	      .byte	%00000010	; ALARMCLOCK
    429  6e50				  -	      .byte	%00000010	; ALARMCLOCK
    430  6e50				  -	      .byte	%00000000	; ALARMCLOCK
    431  6e50				  -
    432  6e50				  -			;byte %00000000 ; ALARMCLOCK
    433  6e50				  -
    434  6e50				  -	      .byte	%00111100	; ALARMCLOCK
    435  6e50				  -	      .byte	%01000000	; ALARMCLOCK
    436  6e50				  -	      .byte	%01000000	; ALARMCLOCK
    437  6e50				  -	      .byte	%01000000	; ALARMCLOCK
    438  6e50				  -	      .byte	%00111100	; ALARMCLOCK
    439  6e50				  -	      .byte	%00000010	; ALARMCLOCK
    440  6e50				  -	      .byte	%00000010	; ALARMCLOCK
    441  6e50				  -	      .byte	%00111100	; ALARMCLOCK
    442  6e50				  -
    443  6e50				  -			;byte %00000000 ; ALARMCLOCK
    444  6e50				  -
    445  6e50				  -	      .byte	%00111100	; ALARMCLOCK
    446  6e50				  -	      .byte	%00000010	; ALARMCLOCK
    447  6e50				  -	      .byte	%00000010	; ALARMCLOCK
    448  6e50				  -	      .byte	%00000010	; ALARMCLOCK
    449  6e50				  -	      .byte	%00111100	; ALARMCLOCK
    450  6e50				  -	      .byte	%00000010	; ALARMCLOCK
    451  6e50				  -	      .byte	%00000010	; ALARMCLOCK
    452  6e50				  -	      .byte	%00111100	; ALARMCLOCK
    453  6e50				  -
    454  6e50				  -			;byte %00000000 ; ALARMCLOCK
    455  6e50				  -
    456  6e50				  -	      .byte	%00000000	; ALARMCLOCK
    457  6e50				  -	      .byte	%00000010	; ALARMCLOCK
    458  6e50				  -	      .byte	%00000010	; ALARMCLOCK
    459  6e50				  -	      .byte	%00000010	; ALARMCLOCK
    460  6e50				  -	      .byte	%00111100	; ALARMCLOCK
    461  6e50				  -	      .byte	%01000010	; ALARMCLOCK
    462  6e50				  -	      .byte	%01000010	; ALARMCLOCK
    463  6e50				  -	      .byte	%00000000	; ALARMCLOCK
    464  6e50				  -
    465  6e50				  -			;byte %00000000 ; ALARMCLOCK
    466  6e50				  -
    467  6e50				  -	      .byte	%00111100	; ALARMCLOCK
    468  6e50				  -	      .byte	%00000010	; ALARMCLOCK
    469  6e50				  -	      .byte	%00000010	; ALARMCLOCK
    470  6e50				  -	      .byte	%00000010	; ALARMCLOCK
    471  6e50				  -	      .byte	%00111100	; ALARMCLOCK
    472  6e50				  -	      .byte	%01000000	; ALARMCLOCK
    473  6e50				  -	      .byte	%01000000	; ALARMCLOCK
    474  6e50				  -	      .byte	%00111100	; ALARMCLOCK
    475  6e50				  -
    476  6e50				  -			;byte %00000000 ; ALARMCLOCK
    477  6e50				  -
    478  6e50				  -	      .byte	%00111100	; ALARMCLOCK
    479  6e50				  -	      .byte	%01000010	; ALARMCLOCK
    480  6e50				  -	      .byte	%01000010	; ALARMCLOCK
    481  6e50				  -	      .byte	%01000010	; ALARMCLOCK
    482  6e50				  -	      .byte	%00111100	; ALARMCLOCK
    483  6e50				  -	      .byte	%01000000	; ALARMCLOCK
    484  6e50				  -	      .byte	%01000000	; ALARMCLOCK
    485  6e50				  -	      .byte	%00111100	; ALARMCLOCK
    486  6e50				  -
    487  6e50				  -			;byte %00000000 ; ALARMCLOCK
    488  6e50				  -
    489  6e50				  -	      .byte	%00000000	; ALARMCLOCK
    490  6e50				  -	      .byte	%00000010	; ALARMCLOCK
    491  6e50				  -	      .byte	%00000010	; ALARMCLOCK
    492  6e50				  -	      .byte	%00000010	; ALARMCLOCK
    493  6e50				  -	      .byte	%00000000	; ALARMCLOCK
    494  6e50				  -	      .byte	%00000010	; ALARMCLOCK
    495  6e50				  -	      .byte	%00000010	; ALARMCLOCK
    496  6e50				  -	      .byte	%00111100	; ALARMCLOCK
    497  6e50				  -
    498  6e50				  -			;byte %00000000 ; ALARMCLOCK
    499  6e50				  -
    500  6e50				  -	      .byte	%00111100	; ALARMCLOCK
    501  6e50				  -	      .byte	%01000010	; ALARMCLOCK
    502  6e50				  -	      .byte	%01000010	; ALARMCLOCK
    503  6e50				  -	      .byte	%01000010	; ALARMCLOCK
    504  6e50				  -	      .byte	%00111100	; ALARMCLOCK
    505  6e50				  -	      .byte	%01000010	; ALARMCLOCK
    506  6e50				  -	      .byte	%01000010	; ALARMCLOCK
    507  6e50				  -	      .byte	%00111100	; ALARMCLOCK
    508  6e50				  -
    509  6e50				  -			;byte %00000000 ; ALARMCLOCK
    510  6e50				  -
    511  6e50				  -	      .byte	%00111100	; ALARMCLOCK
    512  6e50				  -	      .byte	%00000010	; ALARMCLOCK
    513  6e50				  -	      .byte	%00000010	; ALARMCLOCK
    514  6e50				  -	      .byte	%00000010	; ALARMCLOCK
    515  6e50				  -	      .byte	%00111100	; ALARMCLOCK
    516  6e50				  -	      .byte	%01000010	; ALARMCLOCK
    517  6e50				  -	      .byte	%01000010	; ALARMCLOCK
    518  6e50				  -	      .byte	%00111100	; ALARMCLOCK
    519  6e50				  -
    520  6e50				  -
    521  6e50					      endif		; ALARMCLOCK
    522  6e50
    523  6e50				  -	      if	fontstyle == HANDWRITTEN
    524  6e50				  -
    525  6e50				  -			;byte %00000000 ; HANDWRITTEN
    526  6e50				  -
    527  6e50				  -	      .byte	%00110000	; HANDWRITTEN
    528  6e50				  -	      .byte	%01001000	; HANDWRITTEN
    529  6e50				  -	      .byte	%01001000	; HANDWRITTEN
    530  6e50				  -	      .byte	%01001000	; HANDWRITTEN
    531  6e50				  -	      .byte	%00100100	; HANDWRITTEN
    532  6e50				  -	      .byte	%00100100	; HANDWRITTEN
    533  6e50				  -	      .byte	%00010010	; HANDWRITTEN
    534  6e50				  -	      .byte	%00001100	; HANDWRITTEN
    535  6e50				  -
    536  6e50				  -			;byte %00000000 ; HANDWRITTEN
    537  6e50				  -
    538  6e50				  -	      .byte	%00010000	; HANDWRITTEN
    539  6e50				  -	      .byte	%00010000	; HANDWRITTEN
    540  6e50				  -	      .byte	%00010000	; HANDWRITTEN
    541  6e50				  -	      .byte	%00001000	; HANDWRITTEN
    542  6e50				  -	      .byte	%00001000	; HANDWRITTEN
    543  6e50				  -	      .byte	%00001000	; HANDWRITTEN
    544  6e50				  -	      .byte	%00000100	; HANDWRITTEN
    545  6e50				  -	      .byte	%00000100	; HANDWRITTEN
    546  6e50				  -
    547  6e50				  -			;byte %00000000 ; HANDWRITTEN
    548  6e50				  -
    549  6e50				  -	      .byte	%01110000	; HANDWRITTEN
    550  6e50				  -	      .byte	%01001100	; HANDWRITTEN
    551  6e50				  -	      .byte	%01000000	; HANDWRITTEN
    552  6e50				  -	      .byte	%00100000	; HANDWRITTEN
    553  6e50				  -	      .byte	%00011000	; HANDWRITTEN
    554  6e50				  -	      .byte	%00000100	; HANDWRITTEN
    555  6e50				  -	      .byte	%00100010	; HANDWRITTEN
    556  6e50				  -	      .byte	%00011100	; HANDWRITTEN
    557  6e50				  -
    558  6e50				  -			;byte %00000000 ; HANDWRITTEN
    559  6e50				  -
    560  6e50				  -	      .byte	%00110000	; HANDWRITTEN
    561  6e50				  -	      .byte	%01001000	; HANDWRITTEN
    562  6e50				  -	      .byte	%00000100	; HANDWRITTEN
    563  6e50				  -	      .byte	%00000100	; HANDWRITTEN
    564  6e50				  -	      .byte	%00011000	; HANDWRITTEN
    565  6e50				  -	      .byte	%00000100	; HANDWRITTEN
    566  6e50				  -	      .byte	%00100010	; HANDWRITTEN
    567  6e50				  -	      .byte	%00011100	; HANDWRITTEN
    568  6e50				  -
    569  6e50				  -			;byte %00000000 ; HANDWRITTEN
    570  6e50				  -
    571  6e50				  -	      .byte	%00010000	; HANDWRITTEN
    572  6e50				  -	      .byte	%00010000	; HANDWRITTEN
    573  6e50				  -	      .byte	%00001000	; HANDWRITTEN
    574  6e50				  -	      .byte	%01111000	; HANDWRITTEN
    575  6e50				  -	      .byte	%01000100	; HANDWRITTEN
    576  6e50				  -	      .byte	%00100100	; HANDWRITTEN
    577  6e50				  -	      .byte	%00010010	; HANDWRITTEN
    578  6e50				  -	      .byte	%00000010	; HANDWRITTEN
    579  6e50				  -
    580  6e50				  -			;byte %00000000 ; HANDWRITTEN
    581  6e50				  -
    582  6e50				  -	      .byte	%00110000	; HANDWRITTEN
    583  6e50				  -	      .byte	%01001000	; HANDWRITTEN
    584  6e50				  -	      .byte	%00000100	; HANDWRITTEN
    585  6e50				  -	      .byte	%00000100	; HANDWRITTEN
    586  6e50				  -	      .byte	%00011000	; HANDWRITTEN
    587  6e50				  -	      .byte	%00100000	; HANDWRITTEN
    588  6e50				  -	      .byte	%00010010	; HANDWRITTEN
    589  6e50				  -	      .byte	%00001100	; HANDWRITTEN
    590  6e50				  -
    591  6e50				  -			;byte %00000000 ; HANDWRITTEN
    592  6e50				  -
    593  6e50				  -	      .byte	%00010000	; HANDWRITTEN
    594  6e50				  -	      .byte	%00101000	; HANDWRITTEN
    595  6e50				  -	      .byte	%00100100	; HANDWRITTEN
    596  6e50				  -	      .byte	%00100100	; HANDWRITTEN
    597  6e50				  -	      .byte	%00011000	; HANDWRITTEN
    598  6e50				  -	      .byte	%00010000	; HANDWRITTEN
    599  6e50				  -	      .byte	%00001000	; HANDWRITTEN
    600  6e50				  -	      .byte	%00000110	; HANDWRITTEN
    601  6e50				  -
    602  6e50				  -			;byte %00000000 ; HANDWRITTEN
    603  6e50				  -
    604  6e50				  -	      .byte	%00010000	; HANDWRITTEN
    605  6e50				  -	      .byte	%00010000	; HANDWRITTEN
    606  6e50				  -	      .byte	%00010000	; HANDWRITTEN
    607  6e50				  -	      .byte	%00001000	; HANDWRITTEN
    608  6e50				  -	      .byte	%00000100	; HANDWRITTEN
    609  6e50				  -	      .byte	%00000100	; HANDWRITTEN
    610  6e50				  -	      .byte	%00110010	; HANDWRITTEN
    611  6e50				  -	      .byte	%00001110	; HANDWRITTEN
    612  6e50				  -
    613  6e50				  -			;byte %00000000 ; HANDWRITTEN
    614  6e50				  -
    615  6e50				  -	      .byte	%00110000	; HANDWRITTEN
    616  6e50				  -	      .byte	%01001000	; HANDWRITTEN
    617  6e50				  -	      .byte	%01000100	; HANDWRITTEN
    618  6e50				  -	      .byte	%00100100	; HANDWRITTEN
    619  6e50				  -	      .byte	%00011100	; HANDWRITTEN
    620  6e50				  -	      .byte	%00010010	; HANDWRITTEN
    621  6e50				  -	      .byte	%00001010	; HANDWRITTEN
    622  6e50				  -	      .byte	%00000110	; HANDWRITTEN
    623  6e50				  -
    624  6e50				  -			;byte %00000000 ; HANDWRITTEN
    625  6e50				  -
    626  6e50				  -	      .byte	%00010000	; HANDWRITTEN
    627  6e50				  -	      .byte	%00010000	; HANDWRITTEN
    628  6e50				  -	      .byte	%00001000	; HANDWRITTEN
    629  6e50				  -	      .byte	%00001000	; HANDWRITTEN
    630  6e50				  -	      .byte	%00011100	; HANDWRITTEN
    631  6e50				  -	      .byte	%00100100	; HANDWRITTEN
    632  6e50				  -	      .byte	%00010010	; HANDWRITTEN
    633  6e50				  -	      .byte	%00001100	; HANDWRITTEN
    634  6e50				  -
    635  6e50					      endif		; HANDWRITTEN
    636  6e50
    637  6e50				  -	      if	fontstyle == INTERRUPTED
    638  6e50				  -
    639  6e50				  -			;byte %00000000 ; INTERRUPTED
    640  6e50				  -
    641  6e50				  -	      .byte	%00110100	; INTERRUPTED
    642  6e50				  -	      .byte	%01100110	; INTERRUPTED
    643  6e50				  -	      .byte	%01100110	; INTERRUPTED
    644  6e50				  -	      .byte	%01100110	; INTERRUPTED
    645  6e50				  -	      .byte	%01100110	; INTERRUPTED
    646  6e50				  -	      .byte	%01100110	; INTERRUPTED
    647  6e50				  -	      .byte	%01100110	; INTERRUPTED
    648  6e50				  -	      .byte	%00110100	; INTERRUPTED
    649  6e50				  -
    650  6e50				  -			;byte %00000000 ; INTERRUPTED
    651  6e50				  -
    652  6e50				  -	      .byte	%00111100	; INTERRUPTED
    653  6e50				  -	      .byte	%00000000	; INTERRUPTED
    654  6e50				  -	      .byte	%00011000	; INTERRUPTED
    655  6e50				  -	      .byte	%00011000	; INTERRUPTED
    656  6e50				  -	      .byte	%00011000	; INTERRUPTED
    657  6e50				  -	      .byte	%00011000	; INTERRUPTED
    658  6e50				  -	      .byte	%00011000	; INTERRUPTED
    659  6e50				  -	      .byte	%00111000	; INTERRUPTED
    660  6e50				  -
    661  6e50				  -			;byte %00000000 ; INTERRUPTED
    662  6e50				  -
    663  6e50				  -	      .byte	%01101110	; INTERRUPTED
    664  6e50				  -	      .byte	%01100000	; INTERRUPTED
    665  6e50				  -	      .byte	%00110000	; INTERRUPTED
    666  6e50				  -	      .byte	%00011000	; INTERRUPTED
    667  6e50				  -	      .byte	%00001100	; INTERRUPTED
    668  6e50				  -	      .byte	%00000110	; INTERRUPTED
    669  6e50				  -	      .byte	%01000110	; INTERRUPTED
    670  6e50				  -	      .byte	%00111100	; INTERRUPTED
    671  6e50				  -
    672  6e50				  -			;byte %00000000 ; INTERRUPTED
    673  6e50				  -
    674  6e50				  -	      .byte	%01111100	; INTERRUPTED
    675  6e50				  -	      .byte	%00000110	; INTERRUPTED
    676  6e50				  -	      .byte	%00000110	; INTERRUPTED
    677  6e50				  -	      .byte	%00000110	; INTERRUPTED
    678  6e50				  -	      .byte	%01110110	; INTERRUPTED
    679  6e50				  -	      .byte	%00000110	; INTERRUPTED
    680  6e50				  -	      .byte	%00000110	; INTERRUPTED
    681  6e50				  -	      .byte	%01110100	; INTERRUPTED
    682  6e50				  -
    683  6e50				  -			;byte %00000000 ; INTERRUPTED
    684  6e50				  -
    685  6e50				  -	      .byte	%00000110	; INTERRUPTED
    686  6e50				  -	      .byte	%00000110	; INTERRUPTED
    687  6e50				  -	      .byte	%00000110	; INTERRUPTED
    688  6e50				  -	      .byte	%00000110	; INTERRUPTED
    689  6e50				  -	      .byte	%01110110	; INTERRUPTED
    690  6e50				  -	      .byte	%01100110	; INTERRUPTED
    691  6e50				  -	      .byte	%01100110	; INTERRUPTED
    692  6e50				  -	      .byte	%01100110	; INTERRUPTED
    693  6e50				  -
    694  6e50				  -			;byte %00000000 ; INTERRUPTED
    695  6e50				  -
    696  6e50				  -	      .byte	%01111100	; INTERRUPTED
    697  6e50				  -	      .byte	%00000110	; INTERRUPTED
    698  6e50				  -	      .byte	%00000110	; INTERRUPTED
    699  6e50				  -	      .byte	%00000110	; INTERRUPTED
    700  6e50				  -	      .byte	%01111100	; INTERRUPTED
    701  6e50				  -	      .byte	%01100000	; INTERRUPTED
    702  6e50				  -	      .byte	%01100000	; INTERRUPTED
    703  6e50				  -	      .byte	%01101110	; INTERRUPTED
    704  6e50				  -
    705  6e50				  -			;byte %00000000 ; INTERRUPTED
    706  6e50				  -
    707  6e50				  -	      .byte	%00101100	; INTERRUPTED
    708  6e50				  -	      .byte	%01100110	; INTERRUPTED
    709  6e50				  -	      .byte	%01100110	; INTERRUPTED
    710  6e50				  -	      .byte	%01100110	; INTERRUPTED
    711  6e50				  -	      .byte	%01101100	; INTERRUPTED
    712  6e50				  -	      .byte	%01100000	; INTERRUPTED
    713  6e50				  -	      .byte	%00110000	; INTERRUPTED
    714  6e50				  -	      .byte	%00011100	; INTERRUPTED
    715  6e50				  -
    716  6e50				  -			;byte %00000000 ; INTERRUPTED
    717  6e50				  -
    718  6e50				  -	      .byte	%00011000	; INTERRUPTED
    719  6e50				  -	      .byte	%00011000	; INTERRUPTED
    720  6e50				  -	      .byte	%00011000	; INTERRUPTED
    721  6e50				  -	      .byte	%00011100	; INTERRUPTED
    722  6e50				  -	      .byte	%00001110	; INTERRUPTED
    723  6e50				  -	      .byte	%00000110	; INTERRUPTED
    724  6e50				  -	      .byte	%00000000	; INTERRUPTED
    725  6e50				  -	      .byte	%01111110	; INTERRUPTED
    726  6e50				  -
    727  6e50				  -			;byte %00000000 ; INTERRUPTED
    728  6e50				  -
    729  6e50				  -	      .byte	%00110100	; INTERRUPTED
    730  6e50				  -	      .byte	%01100110	; INTERRUPTED
    731  6e50				  -	      .byte	%01100110	; INTERRUPTED
    732  6e50				  -	      .byte	%01100110	; INTERRUPTED
    733  6e50				  -	      .byte	%00110100	; INTERRUPTED
    734  6e50				  -	      .byte	%01100110	; INTERRUPTED
    735  6e50				  -	      .byte	%01100110	; INTERRUPTED
    736  6e50				  -	      .byte	%00110100	; INTERRUPTED
    737  6e50				  -
    738  6e50				  -			;byte %00000000 ; INTERRUPTED
    739  6e50				  -
    740  6e50				  -	      .byte	%00111000	; INTERRUPTED
    741  6e50				  -	      .byte	%00001100	; INTERRUPTED
    742  6e50				  -	      .byte	%00000110	; INTERRUPTED
    743  6e50				  -	      .byte	%00110110	; INTERRUPTED
    744  6e50				  -	      .byte	%01100110	; INTERRUPTED
    745  6e50				  -	      .byte	%01100110	; INTERRUPTED
    746  6e50				  -	      .byte	%01100110	; INTERRUPTED
    747  6e50				  -	      .byte	%00110100	; INTERRUPTED
    748  6e50				  -
    749  6e50					      endif		; INTERRUPTED
    750  6e50
    751  6e50
    752  6e50				  -	      if	fontstyle == TINY
    753  6e50				  -
    754  6e50				  -			;byte %00000000 ; TINY
    755  6e50				  -
    756  6e50				  -	      .byte	%00000000	; TINY
    757  6e50				  -	      .byte	%00111000	; TINY
    758  6e50				  -	      .byte	%00101000	; TINY
    759  6e50				  -	      .byte	%00101000	; TINY
    760  6e50				  -	      .byte	%00101000	; TINY
    761  6e50				  -	      .byte	%00111000	; TINY
    762  6e50				  -	      .byte	%00000000	; TINY
    763  6e50				  -	      .byte	%00000000	; TINY
    764  6e50				  -
    765  6e50				  -			;byte %00000000 ; TINY
    766  6e50				  -
    767  6e50				  -	      .byte	%00000000	; TINY
    768  6e50				  -	      .byte	%00010000	; TINY
    769  6e50				  -	      .byte	%00010000	; TINY
    770  6e50				  -	      .byte	%00010000	; TINY
    771  6e50				  -	      .byte	%00010000	; TINY
    772  6e50				  -	      .byte	%00010000	; TINY
    773  6e50				  -	      .byte	%00000000	; TINY
    774  6e50				  -	      .byte	%00000000	; TINY
    775  6e50				  -
    776  6e50				  -			;byte %00000000 ; TINY
    777  6e50				  -
    778  6e50				  -	      .byte	%00000000	; TINY
    779  6e50				  -	      .byte	%00111000	; TINY
    780  6e50				  -	      .byte	%00100000	; TINY
    781  6e50				  -	      .byte	%00111000	; TINY
    782  6e50				  -	      .byte	%00001000	; TINY
    783  6e50				  -	      .byte	%00111000	; TINY
    784  6e50				  -	      .byte	%00000000	; TINY
    785  6e50				  -	      .byte	%00000000	; TINY
    786  6e50				  -
    787  6e50				  -			;byte %00000000 ; TINY
    788  6e50				  -
    789  6e50				  -	      .byte	%00000000	; TINY
    790  6e50				  -	      .byte	%00111000	; TINY
    791  6e50				  -	      .byte	%00001000	; TINY
    792  6e50				  -	      .byte	%00111000	; TINY
    793  6e50				  -	      .byte	%00001000	; TINY
    794  6e50				  -	      .byte	%00111000	; TINY
    795  6e50				  -	      .byte	%00000000	; TINY
    796  6e50				  -	      .byte	%00000000	; TINY
    797  6e50				  -
    798  6e50				  -			;byte %00000000 ; TINY
    799  6e50				  -
    800  6e50				  -	      .byte	%00000000	; TINY
    801  6e50				  -	      .byte	%00001000	; TINY
    802  6e50				  -	      .byte	%00001000	; TINY
    803  6e50				  -	      .byte	%00111000	; TINY
    804  6e50				  -	      .byte	%00101000	; TINY
    805  6e50				  -	      .byte	%00101000	; TINY
    806  6e50				  -	      .byte	%00000000	; TINY
    807  6e50				  -	      .byte	%00000000	; TINY
    808  6e50				  -
    809  6e50				  -			;byte %00000000 ; TINY
    810  6e50				  -
    811  6e50				  -	      .byte	%00000000	; TINY
    812  6e50				  -	      .byte	%00111000	; TINY
    813  6e50				  -	      .byte	%00001000	; TINY
    814  6e50				  -	      .byte	%00111000	; TINY
    815  6e50				  -	      .byte	%00100000	; TINY
    816  6e50				  -	      .byte	%00111000	; TINY
    817  6e50				  -	      .byte	%00000000	; TINY
    818  6e50				  -	      .byte	%00000000	; TINY
    819  6e50				  -
    820  6e50				  -			;byte %00000000 ; TINY
    821  6e50				  -
    822  6e50				  -	      .byte	%00000000	; TINY
    823  6e50				  -	      .byte	%00111000	; TINY
    824  6e50				  -	      .byte	%00101000	; TINY
    825  6e50				  -	      .byte	%00111000	; TINY
    826  6e50				  -	      .byte	%00100000	; TINY
    827  6e50				  -	      .byte	%00111000	; TINY
    828  6e50				  -	      .byte	%00000000	; TINY
    829  6e50				  -	      .byte	%00000000	; TINY
    830  6e50				  -
    831  6e50				  -			;byte %00000000 ; TINY
    832  6e50				  -
    833  6e50				  -	      .byte	%00000000	; TINY
    834  6e50				  -	      .byte	%00001000	; TINY
    835  6e50				  -	      .byte	%00001000	; TINY
    836  6e50				  -	      .byte	%00001000	; TINY
    837  6e50				  -	      .byte	%00001000	; TINY
    838  6e50				  -	      .byte	%00111000	; TINY
    839  6e50				  -	      .byte	%00000000	; TINY
    840  6e50				  -	      .byte	%00000000	; TINY
    841  6e50				  -
    842  6e50				  -			;byte %00000000 ; TINY
    843  6e50				  -
    844  6e50				  -	      .byte	%00000000	; TINY
    845  6e50				  -	      .byte	%00111000	; TINY
    846  6e50				  -	      .byte	%00101000	; TINY
    847  6e50				  -	      .byte	%00111000	; TINY
    848  6e50				  -	      .byte	%00101000	; TINY
    849  6e50				  -	      .byte	%00111000	; TINY
    850  6e50				  -	      .byte	%00000000	; TINY
    851  6e50				  -	      .byte	%00000000	; TINY
    852  6e50				  -
    853  6e50				  -			;byte %00000000 ; TINY
    854  6e50				  -
    855  6e50				  -	      .byte	%00000000	; TINY
    856  6e50				  -	      .byte	%00001000	; TINY
    857  6e50				  -	      .byte	%00001000	; TINY
    858  6e50				  -	      .byte	%00111000	; TINY
    859  6e50				  -	      .byte	%00101000	; TINY
    860  6e50				  -	      .byte	%00111000	; TINY
    861  6e50				  -	      .byte	%00000000	; TINY
    862  6e50				  -	      .byte	%00000000	; TINY
    863  6e50				  -
    864  6e50					      endif		; TINY
    865  6e50
    866  6e50				  -	      if	fontstyle == RETROPUTER
    867  6e50				  -
    868  6e50				  -			;byte %00000000 ; RETROPUTER
    869  6e50				  -
    870  6e50				  -	      .byte	%01111110	; RETROPUTER
    871  6e50				  -	      .byte	%01000110	; RETROPUTER
    872  6e50				  -	      .byte	%01000110	; RETROPUTER
    873  6e50				  -	      .byte	%01000110	; RETROPUTER
    874  6e50				  -	      .byte	%01100010	; RETROPUTER
    875  6e50				  -	      .byte	%01100010	; RETROPUTER
    876  6e50				  -	      .byte	%01100010	; RETROPUTER
    877  6e50				  -	      .byte	%01111110	; RETROPUTER
    878  6e50				  -
    879  6e50				  -			;byte %00000000 ; RETROPUTER
    880  6e50				  -
    881  6e50				  -	      .byte	%00111000	; RETROPUTER
    882  6e50				  -	      .byte	%00111000	; RETROPUTER
    883  6e50				  -	      .byte	%00111000	; RETROPUTER
    884  6e50				  -	      .byte	%00111000	; RETROPUTER
    885  6e50				  -	      .byte	%00011000	; RETROPUTER
    886  6e50				  -	      .byte	%00011000	; RETROPUTER
    887  6e50				  -	      .byte	%00011000	; RETROPUTER
    888  6e50				  -	      .byte	%00011000	; RETROPUTER
    889  6e50				  -
    890  6e50				  -			;byte %00000000 ; RETROPUTER
    891  6e50				  -
    892  6e50				  -	      .byte	%01111110	; RETROPUTER
    893  6e50				  -	      .byte	%01100000	; RETROPUTER
    894  6e50				  -	      .byte	%01100000	; RETROPUTER
    895  6e50				  -	      .byte	%01100000	; RETROPUTER
    896  6e50				  -	      .byte	%00111110	; RETROPUTER
    897  6e50				  -	      .byte	%00000010	; RETROPUTER
    898  6e50				  -	      .byte	%01000010	; RETROPUTER
    899  6e50				  -	      .byte	%01111110	; RETROPUTER
    900  6e50				  -
    901  6e50				  -			;byte %00000000 ; RETROPUTER
    902  6e50				  -
    903  6e50				  -	      .byte	%01111110	; RETROPUTER
    904  6e50				  -	      .byte	%01000110	; RETROPUTER
    905  6e50				  -	      .byte	%00000110	; RETROPUTER
    906  6e50				  -	      .byte	%00000110	; RETROPUTER
    907  6e50				  -	      .byte	%00111110	; RETROPUTER
    908  6e50				  -	      .byte	%00000010	; RETROPUTER
    909  6e50				  -	      .byte	%01000010	; RETROPUTER
    910  6e50				  -	      .byte	%01111110	; RETROPUTER
    911  6e50				  -
    912  6e50				  -			;byte %00000000 ; RETROPUTER
    913  6e50				  -
    914  6e50				  -	      .byte	%00001100	; RETROPUTER
    915  6e50				  -	      .byte	%00001100	; RETROPUTER
    916  6e50				  -	      .byte	%00001100	; RETROPUTER
    917  6e50				  -	      .byte	%01111110	; RETROPUTER
    918  6e50				  -	      .byte	%01000100	; RETROPUTER
    919  6e50				  -	      .byte	%01000100	; RETROPUTER
    920  6e50				  -	      .byte	%01000100	; RETROPUTER
    921  6e50				  -	      .byte	%00000100	; RETROPUTER
    922  6e50				  -
    923  6e50				  -			;byte %00000000 ; RETROPUTER
    924  6e50				  -
    925  6e50				  -	      .byte	%01111110	; RETROPUTER
    926  6e50				  -	      .byte	%01000110	; RETROPUTER
    927  6e50				  -	      .byte	%00000110	; RETROPUTER
    928  6e50				  -	      .byte	%00000110	; RETROPUTER
    929  6e50				  -	      .byte	%01111100	; RETROPUTER
    930  6e50				  -	      .byte	%01000000	; RETROPUTER
    931  6e50				  -	      .byte	%01000000	; RETROPUTER
    932  6e50				  -	      .byte	%01111110	; RETROPUTER
    933  6e50				  -
    934  6e50				  -			;byte %00000000 ; RETROPUTER
    935  6e50				  -
    936  6e50				  -	      .byte	%01111110	; RETROPUTER
    937  6e50				  -	      .byte	%01000110	; RETROPUTER
    938  6e50				  -	      .byte	%01000110	; RETROPUTER
    939  6e50				  -	      .byte	%01000110	; RETROPUTER
    940  6e50				  -	      .byte	%01111100	; RETROPUTER
    941  6e50				  -	      .byte	%01000000	; RETROPUTER
    942  6e50				  -	      .byte	%01000010	; RETROPUTER
    943  6e50				  -	      .byte	%01111110	; RETROPUTER
    944  6e50				  -
    945  6e50				  -			;byte %00000000 ; RETROPUTER
    946  6e50				  -
    947  6e50				  -	      .byte	%00001100	; RETROPUTER
    948  6e50				  -	      .byte	%00001100	; RETROPUTER
    949  6e50				  -	      .byte	%00001100	; RETROPUTER
    950  6e50				  -	      .byte	%00001100	; RETROPUTER
    951  6e50				  -	      .byte	%00000100	; RETROPUTER
    952  6e50				  -	      .byte	%00000010	; RETROPUTER
    953  6e50				  -	      .byte	%01000010	; RETROPUTER
    954  6e50				  -	      .byte	%01111110	; RETROPUTER
    955  6e50				  -
    956  6e50				  -			;byte %00000000 ; RETROPUTER
    957  6e50				  -
    958  6e50				  -	      .byte	%01111110	; RETROPUTER
    959  6e50				  -	      .byte	%01000110	; RETROPUTER
    960  6e50				  -	      .byte	%01000110	; RETROPUTER
    961  6e50				  -	      .byte	%01000110	; RETROPUTER
    962  6e50				  -	      .byte	%01111110	; RETROPUTER
    963  6e50				  -	      .byte	%01000010	; RETROPUTER
    964  6e50				  -	      .byte	%01000010	; RETROPUTER
    965  6e50				  -	      .byte	%01111110	; RETROPUTER
    966  6e50				  -
    967  6e50				  -			;byte %00000000 ; RETROPUTER
    968  6e50				  -
    969  6e50				  -	      .byte	%00000110	; RETROPUTER
    970  6e50				  -	      .byte	%00000110	; RETROPUTER
    971  6e50				  -	      .byte	%00000110	; RETROPUTER
    972  6e50				  -	      .byte	%00000010	; RETROPUTER
    973  6e50				  -	      .byte	%01111110	; RETROPUTER
    974  6e50				  -	      .byte	%01000010	; RETROPUTER
    975  6e50				  -	      .byte	%01000010	; RETROPUTER
    976  6e50				  -	      .byte	%01111110	; RETROPUTER
    977  6e50				  -
    978  6e50					      endif		; RETROPUTER
    979  6e50
    980  6e50				  -	      if	fontstyle == CURVES
    981  6e50				  -
    982  6e50				  -			;byte %00000000 ; CURVES
    983  6e50				  -
    984  6e50				  -	      .byte	%00111100	; CURVES
    985  6e50				  -	      .byte	%01111110	; CURVES
    986  6e50				  -	      .byte	%01100110	; CURVES
    987  6e50				  -	      .byte	%01100110	; CURVES
    988  6e50				  -	      .byte	%01100110	; CURVES
    989  6e50				  -	      .byte	%01100110	; CURVES
    990  6e50				  -	      .byte	%01111110	; CURVES
    991  6e50				  -	      .byte	%00111100	; CURVES
    992  6e50				  -
    993  6e50				  -			;byte %00000000 ; CURVES
    994  6e50				  -
    995  6e50				  -	      .byte	%00011000	; CURVES
    996  6e50				  -	      .byte	%00011000	; CURVES
    997  6e50				  -	      .byte	%00011000	; CURVES
    998  6e50				  -	      .byte	%00011000	; CURVES
    999  6e50				  -	      .byte	%00011000	; CURVES
   1000  6e50				  -	      .byte	%00011000	; CURVES
   1001  6e50				  -	      .byte	%01111000	; CURVES
   1002  6e50				  -	      .byte	%01110000	; CURVES
   1003  6e50				  -
   1004  6e50				  -			;byte %00000000 ; CURVES
   1005  6e50				  -
   1006  6e50				  -	      .byte	%01111110	; CURVES
   1007  6e50				  -	      .byte	%01111110	; CURVES
   1008  6e50				  -	      .byte	%01100000	; CURVES
   1009  6e50				  -	      .byte	%01111100	; CURVES
   1010  6e50				  -	      .byte	%00111110	; CURVES
   1011  6e50				  -	      .byte	%00000110	; CURVES
   1012  6e50				  -	      .byte	%01111110	; CURVES
   1013  6e50				  -	      .byte	%01111100	; CURVES
   1014  6e50				  -
   1015  6e50				  -			;byte %00000000 ; CURVES
   1016  6e50				  -
   1017  6e50				  -	      .byte	%01111100	; CURVES
   1018  6e50				  -	      .byte	%01111110	; CURVES
   1019  6e50				  -	      .byte	%00001110	; CURVES
   1020  6e50				  -	      .byte	%00111100	; CURVES
   1021  6e50				  -	      .byte	%00111100	; CURVES
   1022  6e50				  -	      .byte	%00001110	; CURVES
   1023  6e50				  -	      .byte	%01111110	; CURVES
   1024  6e50				  -	      .byte	%01111100	; CURVES
   1025  6e50				  -
   1026  6e50				  -			;byte %00000000 ; CURVES
   1027  6e50				  -
   1028  6e50				  -	      .byte	%00000110	; CURVES
   1029  6e50				  -	      .byte	%00000110	; CURVES
   1030  6e50				  -	      .byte	%00111110	; CURVES
   1031  6e50				  -	      .byte	%01111110	; CURVES
   1032  6e50				  -	      .byte	%01100110	; CURVES
   1033  6e50				  -	      .byte	%01100110	; CURVES
   1034  6e50				  -	      .byte	%01100110	; CURVES
   1035  6e50				  -	      .byte	%01100110	; CURVES
   1036  6e50				  -
   1037  6e50				  -			;byte %00000000 ; CURVES
   1038  6e50				  -
   1039  6e50				  -	      .byte	%01111100	; CURVES
   1040  6e50				  -	      .byte	%01111110	; CURVES
   1041  6e50				  -	      .byte	%00000110	; CURVES
   1042  6e50				  -	      .byte	%01111110	; CURVES
   1043  6e50				  -	      .byte	%01111100	; CURVES
   1044  6e50				  -	      .byte	%01100000	; CURVES
   1045  6e50				  -	      .byte	%01111110	; CURVES
   1046  6e50				  -	      .byte	%01111110	; CURVES
   1047  6e50				  -
   1048  6e50				  -			;byte %00000000 ; CURVES
   1049  6e50				  -
   1050  6e50				  -	      .byte	%00111100	; CURVES
   1051  6e50				  -	      .byte	%01111110	; CURVES
   1052  6e50				  -	      .byte	%01100110	; CURVES
   1053  6e50				  -	      .byte	%01111110	; CURVES
   1054  6e50				  -	      .byte	%01111100	; CURVES
   1055  6e50				  -	      .byte	%01100000	; CURVES
   1056  6e50				  -	      .byte	%01111110	; CURVES
   1057  6e50				  -	      .byte	%00111110	; CURVES
   1058  6e50				  -
   1059  6e50				  -			;byte %00000000 ; CURVES
   1060  6e50				  -
   1061  6e50				  -	      .byte	%00000110	; CURVES
   1062  6e50				  -	      .byte	%00000110	; CURVES
   1063  6e50				  -	      .byte	%00000110	; CURVES
   1064  6e50				  -	      .byte	%00000110	; CURVES
   1065  6e50				  -	      .byte	%00000110	; CURVES
   1066  6e50				  -	      .byte	%01100110	; CURVES
   1067  6e50				  -	      .byte	%01111110	; CURVES
   1068  6e50				  -	      .byte	%00111100	; CURVES
   1069  6e50				  -
   1070  6e50				  -			;byte %00000000 ; CURVES
   1071  6e50				  -
   1072  6e50				  -	      .byte	%00111100	; CURVES
   1073  6e50				  -	      .byte	%01111110	; CURVES
   1074  6e50				  -	      .byte	%01100110	; CURVES
   1075  6e50				  -	      .byte	%01111110	; CURVES
   1076  6e50				  -	      .byte	%00111100	; CURVES
   1077  6e50				  -	      .byte	%01100110	; CURVES
   1078  6e50				  -	      .byte	%01111110	; CURVES
   1079  6e50				  -	      .byte	%00111100	; CURVES
   1080  6e50				  -
   1081  6e50				  -			;byte %00000000 ; CURVES
   1082  6e50				  -
   1083  6e50				  -	      .byte	%01111100	; CURVES
   1084  6e50				  -	      .byte	%01111110	; CURVES
   1085  6e50				  -	      .byte	%00000110	; CURVES
   1086  6e50				  -	      .byte	%00111110	; CURVES
   1087  6e50				  -	      .byte	%01111110	; CURVES
   1088  6e50				  -	      .byte	%01100110	; CURVES
   1089  6e50				  -	      .byte	%01111110	; CURVES
   1090  6e50				  -	      .byte	%00111100	; CURVES
   1091  6e50				  -
   1092  6e50					      endif		; CURVES
   1093  6e50
   1094  6e50
   1095  6e50				  -	      if	fontstyle == HUSKY
   1096  6e50				  -
   1097  6e50				  -			;byte %00000000 ; HUSKY
   1098  6e50				  -
   1099  6e50				  -	      .byte	%01111100	; HUSKY
   1100  6e50				  -	      .byte	%11111110	; HUSKY
   1101  6e50				  -	      .byte	%11101110	; HUSKY
   1102  6e50				  -	      .byte	%11101110	; HUSKY
   1103  6e50				  -	      .byte	%11101110	; HUSKY
   1104  6e50				  -	      .byte	%11101110	; HUSKY
   1105  6e50				  -	      .byte	%11111110	; HUSKY
   1106  6e50				  -	      .byte	%01111100	; HUSKY
   1107  6e50				  -
   1108  6e50				  -			;byte %00000000 ; HUSKY
   1109  6e50				  -
   1110  6e50				  -	      .byte	%00111000	; HUSKY
   1111  6e50				  -	      .byte	%00111000	; HUSKY
   1112  6e50				  -	      .byte	%00111000	; HUSKY
   1113  6e50				  -	      .byte	%00111000	; HUSKY
   1114  6e50				  -	      .byte	%00111000	; HUSKY
   1115  6e50				  -	      .byte	%00111000	; HUSKY
   1116  6e50				  -	      .byte	%00111000	; HUSKY
   1117  6e50				  -	      .byte	%00111000	; HUSKY
   1118  6e50				  -
   1119  6e50				  -			;byte %00000000 ; HUSKY
   1120  6e50				  -
   1121  6e50				  -	      .byte	%11111110	; HUSKY
   1122  6e50				  -	      .byte	%11111110	; HUSKY
   1123  6e50				  -	      .byte	%11100000	; HUSKY
   1124  6e50				  -	      .byte	%11111100	; HUSKY
   1125  6e50				  -	      .byte	%01111110	; HUSKY
   1126  6e50				  -	      .byte	%00001110	; HUSKY
   1127  6e50				  -	      .byte	%11111110	; HUSKY
   1128  6e50				  -	      .byte	%11111100	; HUSKY
   1129  6e50				  -
   1130  6e50				  -			;byte %00000000 ; HUSKY
   1131  6e50				  -
   1132  6e50				  -	      .byte	%11111100	; HUSKY
   1133  6e50				  -	      .byte	%11111110	; HUSKY
   1134  6e50				  -	      .byte	%00001110	; HUSKY
   1135  6e50				  -	      .byte	%11111100	; HUSKY
   1136  6e50				  -	      .byte	%11111100	; HUSKY
   1137  6e50				  -	      .byte	%00001110	; HUSKY
   1138  6e50				  -	      .byte	%11111110	; HUSKY
   1139  6e50				  -	      .byte	%11111100	; HUSKY
   1140  6e50				  -
   1141  6e50				  -			;byte %00000000 ; HUSKY
   1142  6e50				  -
   1143  6e50				  -	      .byte	%00011100	; HUSKY
   1144  6e50				  -	      .byte	%00011100	; HUSKY
   1145  6e50				  -	      .byte	%11111110	; HUSKY
   1146  6e50				  -	      .byte	%11111110	; HUSKY
   1147  6e50				  -	      .byte	%11011100	; HUSKY
   1148  6e50				  -	      .byte	%11011100	; HUSKY
   1149  6e50				  -	      .byte	%00011100	; HUSKY
   1150  6e50				  -	      .byte	%00011100	; HUSKY
   1151  6e50				  -
   1152  6e50				  -			;byte %00000000 ; HUSKY
   1153  6e50				  -
   1154  6e50				  -	      .byte	%11111100	; HUSKY
   1155  6e50				  -	      .byte	%11111110	; HUSKY
   1156  6e50				  -	      .byte	%00001110	; HUSKY
   1157  6e50				  -	      .byte	%11111110	; HUSKY
   1158  6e50				  -	      .byte	%11111100	; HUSKY
   1159  6e50				  -	      .byte	%11100000	; HUSKY
   1160  6e50				  -	      .byte	%11111110	; HUSKY
   1161  6e50				  -	      .byte	%11111110	; HUSKY
   1162  6e50				  -
   1163  6e50				  -			;byte %00000000 ; HUSKY
   1164  6e50				  -
   1165  6e50				  -	      .byte	%01111100	; HUSKY
   1166  6e50				  -	      .byte	%11111110	; HUSKY
   1167  6e50				  -	      .byte	%11101110	; HUSKY
   1168  6e50				  -	      .byte	%11111110	; HUSKY
   1169  6e50				  -	      .byte	%11111100	; HUSKY
   1170  6e50				  -	      .byte	%11100000	; HUSKY
   1171  6e50				  -	      .byte	%11111110	; HUSKY
   1172  6e50				  -	      .byte	%01111110	; HUSKY
   1173  6e50				  -
   1174  6e50				  -			;byte %00000000 ; HUSKY
   1175  6e50				  -
   1176  6e50				  -	      .byte	%00111000	; HUSKY
   1177  6e50				  -	      .byte	%00111000	; HUSKY
   1178  6e50				  -	      .byte	%00111000	; HUSKY
   1179  6e50				  -	      .byte	%00111000	; HUSKY
   1180  6e50				  -	      .byte	%00011100	; HUSKY
   1181  6e50				  -	      .byte	%00001110	; HUSKY
   1182  6e50				  -	      .byte	%11111110	; HUSKY
   1183  6e50				  -	      .byte	%11111110	; HUSKY
   1184  6e50				  -
   1185  6e50				  -			;byte %00000000 ; HUSKY
   1186  6e50				  -
   1187  6e50				  -	      .byte	%01111100	; HUSKY
   1188  6e50				  -	      .byte	%11111110	; HUSKY
   1189  6e50				  -	      .byte	%11101110	; HUSKY
   1190  6e50				  -	      .byte	%11111110	; HUSKY
   1191  6e50				  -	      .byte	%01111100	; HUSKY
   1192  6e50				  -	      .byte	%11101110	; HUSKY
   1193  6e50				  -	      .byte	%11111110	; HUSKY
   1194  6e50				  -	      .byte	%01111100	; HUSKY
   1195  6e50				  -
   1196  6e50				  -			;byte %00000000 ; HUSKY
   1197  6e50				  -
   1198  6e50				  -	      .byte	%11111100	; HUSKY
   1199  6e50				  -	      .byte	%11111110	; HUSKY
   1200  6e50				  -	      .byte	%00001110	; HUSKY
   1201  6e50				  -	      .byte	%01111110	; HUSKY
   1202  6e50				  -	      .byte	%11111110	; HUSKY
   1203  6e50				  -	      .byte	%11101110	; HUSKY
   1204  6e50				  -	      .byte	%11111110	; HUSKY
   1205  6e50				  -	      .byte	%01111100	; HUSKY
   1206  6e50				  -
   1207  6e50					      endif		; HUSKY
   1208  6e50
   1209  6e50
   1210  6e50				  -	      if	fontstyle == SNAKE
   1211  6e50				  -
   1212  6e50				  -			;byte %00000000 ; SNAKE
   1213  6e50				  -
   1214  6e50				  -	      .byte	%01111110	; SNAKE
   1215  6e50				  -	      .byte	%01000010	; SNAKE
   1216  6e50				  -	      .byte	%01000010	; SNAKE
   1217  6e50				  -	      .byte	%01000010	; SNAKE
   1218  6e50				  -	      .byte	%01000010	; SNAKE
   1219  6e50				  -	      .byte	%01000010	; SNAKE
   1220  6e50				  -	      .byte	%01000010	; SNAKE
   1221  6e50				  -	      .byte	%01111110	; SNAKE
   1222  6e50				  -
   1223  6e50				  -			;byte %00000000 ; SNAKE
   1224  6e50				  -
   1225  6e50				  -	      .byte	%00111000	; SNAKE
   1226  6e50				  -	      .byte	%00101000	; SNAKE
   1227  6e50				  -	      .byte	%00001000	; SNAKE
   1228  6e50				  -	      .byte	%00001000	; SNAKE
   1229  6e50				  -	      .byte	%00001000	; SNAKE
   1230  6e50				  -	      .byte	%00001000	; SNAKE
   1231  6e50				  -	      .byte	%00001000	; SNAKE
   1232  6e50				  -	      .byte	%00111000	; SNAKE
   1233  6e50				  -
   1234  6e50				  -			;byte %00000000 ; SNAKE
   1235  6e50				  -
   1236  6e50				  -	      .byte	%01111110	; SNAKE
   1237  6e50				  -	      .byte	%01000010	; SNAKE
   1238  6e50				  -	      .byte	%01000110	; SNAKE
   1239  6e50				  -	      .byte	%01000000	; SNAKE
   1240  6e50				  -	      .byte	%01111110	; SNAKE
   1241  6e50				  -	      .byte	%00000010	; SNAKE
   1242  6e50				  -	      .byte	%01000010	; SNAKE
   1243  6e50				  -	      .byte	%01111110	; SNAKE
   1244  6e50				  -
   1245  6e50				  -			;byte %00000000 ; SNAKE
   1246  6e50				  -
   1247  6e50				  -	      .byte	%01111110	; SNAKE
   1248  6e50				  -	      .byte	%01000010	; SNAKE
   1249  6e50				  -	      .byte	%01100010	; SNAKE
   1250  6e50				  -	      .byte	%00000010	; SNAKE
   1251  6e50				  -	      .byte	%01111110	; SNAKE
   1252  6e50				  -	      .byte	%00000010	; SNAKE
   1253  6e50				  -	      .byte	%01000010	; SNAKE
   1254  6e50				  -	      .byte	%01111110	; SNAKE
   1255  6e50				  -
   1256  6e50				  -			;byte %00000000 ; SNAKE
   1257  6e50				  -
   1258  6e50				  -	      .byte	%00001110	; SNAKE
   1259  6e50				  -	      .byte	%00001010	; SNAKE
   1260  6e50				  -	      .byte	%00000010	; SNAKE
   1261  6e50				  -	      .byte	%01111110	; SNAKE
   1262  6e50				  -	      .byte	%01000010	; SNAKE
   1263  6e50				  -	      .byte	%01000010	; SNAKE
   1264  6e50				  -	      .byte	%01000010	; SNAKE
   1265  6e50				  -	      .byte	%01100110	; SNAKE
   1266  6e50				  -
   1267  6e50				  -			;byte %00000000 ; SNAKE
   1268  6e50				  -
   1269  6e50				  -	      .byte	%01111110	; SNAKE
   1270  6e50				  -	      .byte	%01000010	; SNAKE
   1271  6e50				  -	      .byte	%01100010	; SNAKE
   1272  6e50				  -	      .byte	%00000010	; SNAKE
   1273  6e50				  -	      .byte	%01111110	; SNAKE
   1274  6e50				  -	      .byte	%01000000	; SNAKE
   1275  6e50				  -	      .byte	%01000010	; SNAKE
   1276  6e50				  -	      .byte	%01111110	; SNAKE
   1277  6e50				  -
   1278  6e50				  -			;byte %00000000 ; SNAKE
   1279  6e50				  -
   1280  6e50				  -	      .byte	%01111110	; SNAKE
   1281  6e50				  -	      .byte	%01000010	; SNAKE
   1282  6e50				  -	      .byte	%01000010	; SNAKE
   1283  6e50				  -	      .byte	%01111110	; SNAKE
   1284  6e50				  -	      .byte	%01000000	; SNAKE
   1285  6e50				  -	      .byte	%01000110	; SNAKE
   1286  6e50				  -	      .byte	%01000010	; SNAKE
   1287  6e50				  -	      .byte	%01111110	; SNAKE
   1288  6e50				  -
   1289  6e50				  -			;byte %00000000 ; SNAKE
   1290  6e50				  -
   1291  6e50				  -	      .byte	%00000110	; SNAKE
   1292  6e50				  -	      .byte	%00000010	; SNAKE
   1293  6e50				  -	      .byte	%00000010	; SNAKE
   1294  6e50				  -	      .byte	%00000010	; SNAKE
   1295  6e50				  -	      .byte	%00000010	; SNAKE
   1296  6e50				  -	      .byte	%01100010	; SNAKE
   1297  6e50				  -	      .byte	%01000010	; SNAKE
   1298  6e50				  -	      .byte	%01111110	; SNAKE
   1299  6e50				  -
   1300  6e50				  -			;byte %00000000 ; SNAKE
   1301  6e50				  -
   1302  6e50				  -	      .byte	%01111110	; SNAKE
   1303  6e50				  -	      .byte	%01000010	; SNAKE
   1304  6e50				  -	      .byte	%01000010	; SNAKE
   1305  6e50				  -	      .byte	%01000010	; SNAKE
   1306  6e50				  -	      .byte	%01111110	; SNAKE
   1307  6e50				  -	      .byte	%01000010	; SNAKE
   1308  6e50				  -	      .byte	%01000010	; SNAKE
   1309  6e50				  -	      .byte	%01111110	; SNAKE
   1310  6e50				  -
   1311  6e50				  -			;byte %00000000 ; SNAKE
   1312  6e50				  -
   1313  6e50				  -	      .byte	%00001110	; SNAKE
   1314  6e50				  -	      .byte	%00001010	; SNAKE
   1315  6e50				  -	      .byte	%00000010	; SNAKE
   1316  6e50				  -	      .byte	%00000010	; SNAKE
   1317  6e50				  -	      .byte	%01111110	; SNAKE
   1318  6e50				  -	      .byte	%01000010	; SNAKE
   1319  6e50				  -	      .byte	%01000010	; SNAKE
   1320  6e50				  -	      .byte	%01111110	; SNAKE
   1321  6e50				  -
   1322  6e50				  -
   1323  6e50					      endif		; SNAKE
   1324  6e50
   1325  6e50				  -	      if	fontstyle == PLOK
   1326  6e50				  -
   1327  6e50				  -			;byte %00000000 ; PLOK
   1328  6e50				  -
   1329  6e50				  -	      .byte	%00000000	; PLOK
   1330  6e50				  -	      .byte	%00111000	; PLOK
   1331  6e50				  -	      .byte	%01100100	; PLOK
   1332  6e50				  -	      .byte	%01100010	; PLOK
   1333  6e50				  -	      .byte	%01100010	; PLOK
   1334  6e50				  -	      .byte	%00110110	; PLOK
   1335  6e50				  -	      .byte	%00011100	; PLOK
   1336  6e50				  -	      .byte	%00000000	; PLOK
   1337  6e50				  -
   1338  6e50				  -			;byte %00000000 ; PLOK
   1339  6e50				  -
   1340  6e50				  -	      .byte	%00000000	; PLOK
   1341  6e50				  -	      .byte	%00010000	; PLOK
   1342  6e50				  -	      .byte	%00011100	; PLOK
   1343  6e50				  -	      .byte	%00011100	; PLOK
   1344  6e50				  -	      .byte	%00011000	; PLOK
   1345  6e50				  -	      .byte	%00111000	; PLOK
   1346  6e50				  -	      .byte	%00011000	; PLOK
   1347  6e50				  -	      .byte	%00000000	; PLOK
   1348  6e50				  -
   1349  6e50				  -			;byte %00000000 ; PLOK
   1350  6e50				  -
   1351  6e50				  -	      .byte	%00000000	; PLOK
   1352  6e50				  -	      .byte	%00001110	; PLOK
   1353  6e50				  -	      .byte	%01111110	; PLOK
   1354  6e50				  -	      .byte	%00011000	; PLOK
   1355  6e50				  -	      .byte	%00001100	; PLOK
   1356  6e50				  -	      .byte	%00000110	; PLOK
   1357  6e50				  -	      .byte	%00111100	; PLOK
   1358  6e50				  -	      .byte	%00000000	; PLOK
   1359  6e50				  -
   1360  6e50				  -			;byte %00000000 ; PLOK
   1361  6e50				  -
   1362  6e50				  -	      .byte	%00000000	; PLOK
   1363  6e50				  -	      .byte	%00111100	; PLOK
   1364  6e50				  -	      .byte	%01101110	; PLOK
   1365  6e50				  -	      .byte	%00001110	; PLOK
   1366  6e50				  -	      .byte	%00011100	; PLOK
   1367  6e50				  -	      .byte	%00000110	; PLOK
   1368  6e50				  -	      .byte	%01111100	; PLOK
   1369  6e50				  -	      .byte	%00000000	; PLOK
   1370  6e50				  -
   1371  6e50				  -			;byte %00000000 ; PLOK
   1372  6e50				  -
   1373  6e50				  -	      .byte	%00000000	; PLOK
   1374  6e50				  -	      .byte	%00011000	; PLOK
   1375  6e50				  -	      .byte	%01111110	; PLOK
   1376  6e50				  -	      .byte	%01101100	; PLOK
   1377  6e50				  -	      .byte	%00100100	; PLOK
   1378  6e50				  -	      .byte	%00110000	; PLOK
   1379  6e50				  -	      .byte	%00110000	; PLOK
   1380  6e50				  -	      .byte	%00000000	; PLOK
   1381  6e50				  -
   1382  6e50				  -			;byte %00000000 ; PLOK
   1383  6e50				  -
   1384  6e50				  -	      .byte	%00000000	; PLOK
   1385  6e50				  -	      .byte	%00111100	; PLOK
   1386  6e50				  -	      .byte	%01001110	; PLOK
   1387  6e50				  -	      .byte	%00011100	; PLOK
   1388  6e50				  -	      .byte	%01100000	; PLOK
   1389  6e50				  -	      .byte	%01111100	; PLOK
   1390  6e50				  -	      .byte	%00011100	; PLOK
   1391  6e50				  -	      .byte	%00000000	; PLOK
   1392  6e50				  -
   1393  6e50				  -			;byte %00000000 ; PLOK
   1394  6e50				  -
   1395  6e50				  -	      .byte	%00000000	; PLOK
   1396  6e50				  -	      .byte	%00111100	; PLOK
   1397  6e50				  -	      .byte	%01000110	; PLOK
   1398  6e50				  -	      .byte	%01101100	; PLOK
   1399  6e50				  -	      .byte	%01110000	; PLOK
   1400  6e50				  -	      .byte	%00111000	; PLOK
   1401  6e50				  -	      .byte	%00010000	; PLOK
   1402  6e50				  -	      .byte	%00000000	; PLOK
   1403  6e50				  -
   1404  6e50				  -			;byte %00000000 ; PLOK
   1405  6e50				  -
   1406  6e50				  -	      .byte	%00000000	; PLOK
   1407  6e50				  -	      .byte	%00111100	; PLOK
   1408  6e50				  -	      .byte	%00011100	; PLOK
   1409  6e50				  -	      .byte	%00001100	; PLOK
   1410  6e50				  -	      .byte	%00000110	; PLOK
   1411  6e50				  -	      .byte	%01111110	; PLOK
   1412  6e50				  -	      .byte	%00110000	; PLOK
   1413  6e50				  -	      .byte	%00000000	; PLOK
   1414  6e50				  -
   1415  6e50				  -			;byte %00000000 ; PLOK
   1416  6e50				  -
   1417  6e50				  -	      .byte	%00000000	; PLOK
   1418  6e50				  -	      .byte	%00111100	; PLOK
   1419  6e50				  -	      .byte	%01001110	; PLOK
   1420  6e50				  -	      .byte	%01101110	; PLOK
   1421  6e50				  -	      .byte	%00111100	; PLOK
   1422  6e50				  -	      .byte	%01100100	; PLOK
   1423  6e50				  -	      .byte	%00111000	; PLOK
   1424  6e50				  -	      .byte	%00000000	; PLOK
   1425  6e50				  -
   1426  6e50				  -			;byte %00000000 ; PLOK
   1427  6e50				  -
   1428  6e50				  -	      .byte	%00000000	; PLOK
   1429  6e50				  -	      .byte	%00011000	; PLOK
   1430  6e50				  -	      .byte	%00001100	; PLOK
   1431  6e50				  -	      .byte	%00011100	; PLOK
   1432  6e50				  -	      .byte	%00100110	; PLOK
   1433  6e50				  -	      .byte	%01001110	; PLOK
   1434  6e50				  -	      .byte	%00111100	; PLOK
   1435  6e50				  -	      .byte	%00000000	; PLOK
   1436  6e50				  -
   1437  6e50					      endif		; PLOK
   1438  6e50
   1439  6e50							; ### any characters that aren't font specific follow...
   1440  6e50
   1441  6e50				  -	      ifconst	fontcharSPACE
   1442  6e50				  -			;byte %00000000 ; SYMBOLS
   1443  6e50				  -
   1444  6e50				  -	      .byte	%00000000	; SYMBOLS
   1445  6e50				  -	      .byte	%00000000	; SYMBOLS
   1446  6e50				  -	      .byte	%00000000	; SYMBOLS
   1447  6e50				  -	      .byte	%00000000	; SYMBOLS
   1448  6e50				  -	      .byte	%00000000	; SYMBOLS
   1449  6e50				  -	      .byte	%00000000	; SYMBOLS
   1450  6e50				  -	      .byte	%00000000	; SYMBOLS
   1451  6e50				  -	      .byte	%00000000	; SYMBOLS
   1452  6e50				  -
   1453  6e50				  -			;byte %00000000 ; SYMBOLS
   1454  6e50					      endif		; fontcharSPACE
   1455  6e50
   1456  6e50				  -	      ifconst	fontcharDOLLAR
   1457  6e50				  -			;byte %00000000 ; SYMBOLS
   1458  6e50				  -
   1459  6e50				  -	      .byte	%00000000	; SYMBOLS
   1460  6e50				  -	      .byte	%00010000	; SYMBOLS
   1461  6e50				  -	      .byte	%01111100	; SYMBOLS
   1462  6e50				  -	      .byte	%00010010	; SYMBOLS
   1463  6e50				  -	      .byte	%01111100	; SYMBOLS
   1464  6e50				  -	      .byte	%10010000	; SYMBOLS
   1465  6e50				  -	      .byte	%01111100	; SYMBOLS
   1466  6e50				  -	      .byte	%00010000	; SYMBOLS
   1467  6e50				  -
   1468  6e50				  -			;byte %00000000 ; SYMBOLS
   1469  6e50				  -
   1470  6e50					      endif		; fontcharDOLLAR
   1471  6e50
   1472  6e50				  -	      ifconst	fontcharPOUND
   1473  6e50				  -			;byte %00000000 ; SYMBOLS
   1474  6e50				  -
   1475  6e50				  -	      .byte	%01111110	; SYMBOLS
   1476  6e50				  -	      .byte	%01000000	; SYMBOLS
   1477  6e50				  -	      .byte	%00100000	; SYMBOLS
   1478  6e50				  -	      .byte	%00100000	; SYMBOLS
   1479  6e50				  -	      .byte	%01111000	; SYMBOLS
   1480  6e50				  -	      .byte	%00100000	; SYMBOLS
   1481  6e50				  -	      .byte	%00100010	; SYMBOLS
   1482  6e50				  -	      .byte	%00011100	; SYMBOLS
   1483  6e50				  -
   1484  6e50				  -			;byte %00000000 ; SYMBOLS
   1485  6e50				  -
   1486  6e50					      endif		; fontcharPOUND
   1487  6e50
   1488  6e50
   1489  6e50				  -	      ifconst	fontcharMRHAPPY
   1490  6e50				  -			;byte %00000000 ; SYMBOLS
   1491  6e50				  -
   1492  6e50				  -	      .byte	%00111100	; SYMBOLS
   1493  6e50				  -	      .byte	%01100110	; SYMBOLS
   1494  6e50				  -	      .byte	%01011010	; SYMBOLS
   1495  6e50				  -	      .byte	%01111110	; SYMBOLS
   1496  6e50				  -	      .byte	%01111110	; SYMBOLS
   1497  6e50				  -	      .byte	%01011010	; SYMBOLS
   1498  6e50				  -	      .byte	%01111110	; SYMBOLS
   1499  6e50				  -	      .byte	%00111100	; SYMBOLS
   1500  6e50				  -
   1501  6e50				  -			;byte %00000000 ; SYMBOLS
   1502  6e50				  -
   1503  6e50					      endif		; fontcharMRHAPPY
   1504  6e50
   1505  6e50				  -	      ifconst	fontcharMRSAD
   1506  6e50				  -			;byte %00000000 ; SYMBOLS
   1507  6e50				  -
   1508  6e50				  -	      .byte	%00111100	; SYMBOLS
   1509  6e50				  -	      .byte	%01011010	; SYMBOLS
   1510  6e50				  -	      .byte	%01100110	; SYMBOLS
   1511  6e50				  -	      .byte	%01111110	; SYMBOLS
   1512  6e50				  -	      .byte	%01111110	; SYMBOLS
   1513  6e50				  -	      .byte	%01011010	; SYMBOLS
   1514  6e50				  -	      .byte	%01111110	; SYMBOLS
   1515  6e50				  -	      .byte	%00111100	; SYMBOLS
   1516  6e50				  -
   1517  6e50				  -			;byte %00000000 ; SYMBOLS
   1518  6e50				  -
   1519  6e50					      endif		; fontcharMRSAD
   1520  6e50
   1521  6e50
   1522  6e50				  -	      ifconst	fontcharCOPYRIGHT
   1523  6e50				  -			;byte %00000000 ; SYMBOLS
   1524  6e50				  -
   1525  6e50				  -	      .byte	%00000000	; SYMBOLS
   1526  6e50				  -	      .byte	%00111000	; SYMBOLS
   1527  6e50				  -	      .byte	%01000100	; SYMBOLS
   1528  6e50				  -	      .byte	%10111010	; SYMBOLS
   1529  6e50				  -	      .byte	%10100010	; SYMBOLS
   1530  6e50				  -	      .byte	%10111010	; SYMBOLS
   1531  6e50				  -	      .byte	%01000100	; SYMBOLS
   1532  6e50				  -	      .byte	%00111000	; SYMBOLS
   1533  6e50				  -
   1534  6e50				  -			;byte %00000000 ; SYMBOLS
   1535  6e50				  -
   1536  6e50					      endif		; fontcharCOPYRIGHT
   1537  6e50
   1538  6e50
   1539  6e50				  -	      ifconst	fontcharFUJI
   1540  6e50				  -
   1541  6e50				  -			;byte %00000000 ; ** these commented-out blanks are for the preview generation program
   1542  6e50				  -
   1543  6e50				  -	      .byte	%01110000	; SYMBOLS
   1544  6e50				  -	      .byte	%01111001	; SYMBOLS
   1545  6e50				  -	      .byte	%00011101	; SYMBOLS
   1546  6e50				  -	      .byte	%00001101	; SYMBOLS
   1547  6e50				  -	      .byte	%00001101	; SYMBOLS
   1548  6e50				  -	      .byte	%00001101	; SYMBOLS
   1549  6e50				  -	      .byte	%00001101	; SYMBOLS
   1550  6e50				  -	      .byte	%00000000	; SYMBOLS
   1551  6e50				  -
   1552  6e50				  -			;byte %00000000 ; SYMBOLS
   1553  6e50				  -
   1554  6e50				  -	      .byte	%00001110	; SYMBOLS
   1555  6e50				  -	      .byte	%10011110	; SYMBOLS
   1556  6e50				  -	      .byte	%10111000	; SYMBOLS
   1557  6e50				  -	      .byte	%10110000	; SYMBOLS
   1558  6e50				  -	      .byte	%10110000	; SYMBOLS
   1559  6e50				  -	      .byte	%10110000	; SYMBOLS
   1560  6e50				  -	      .byte	%10110000	; SYMBOLS
   1561  6e50				  -	      .byte	%00000000	; SYMBOLS
   1562  6e50				  -
   1563  6e50				  -			;byte %00000000 ; SYMBOLS
   1564  6e50				  -
   1565  6e50					      endif		; fontcharFUJI
   1566  6e50
   1567  6e50
   1568  6e50				  -	      ifconst	fontcharHEART
   1569  6e50				  -			;byte %00000000 ; SYMBOLS
   1570  6e50				  -
   1571  6e50				  -	      .byte	%00010000	; SYMBOLS
   1572  6e50				  -	      .byte	%00111000	; SYMBOLS
   1573  6e50				  -	      .byte	%01111100	; SYMBOLS
   1574  6e50				  -	      .byte	%01111100	; SYMBOLS
   1575  6e50				  -	      .byte	%11111110	; SYMBOLS
   1576  6e50				  -	      .byte	%11111110	; SYMBOLS
   1577  6e50				  -	      .byte	%11101110	; SYMBOLS
   1578  6e50				  -	      .byte	%01000100	; SYMBOLS
   1579  6e50				  -
   1580  6e50				  -			;byte %00000000 ; SYMBOLS
   1581  6e50				  -
   1582  6e50					      endif		; fontcharHEART
   1583  6e50
   1584  6e50				  -	      ifconst	fontcharDIAMOND
   1585  6e50				  -			;byte %00000000 ; SYMBOLS
   1586  6e50				  -
   1587  6e50				  -	      .byte	%00010000	; SYMBOLS
   1588  6e50				  -	      .byte	%00111000	; SYMBOLS
   1589  6e50				  -	      .byte	%01111100	; SYMBOLS
   1590  6e50				  -	      .byte	%11111110	; SYMBOLS
   1591  6e50				  -	      .byte	%11111110	; SYMBOLS
   1592  6e50				  -	      .byte	%01111100	; SYMBOLS
   1593  6e50				  -	      .byte	%00111000	; SYMBOLS
   1594  6e50				  -	      .byte	%00010000	; SYMBOLS
   1595  6e50				  -
   1596  6e50				  -			;byte %00000000 ; SYMBOLS
   1597  6e50				  -
   1598  6e50					      endif		; fontcharDIAMOND
   1599  6e50
   1600  6e50				  -	      ifconst	fontcharSPADE
   1601  6e50				  -			;byte %00000000 ; SYMBOLS
   1602  6e50				  -
   1603  6e50				  -	      .byte	%00111000	; SYMBOLS
   1604  6e50				  -	      .byte	%00010000	; SYMBOLS
   1605  6e50				  -	      .byte	%01010100	; SYMBOLS
   1606  6e50				  -	      .byte	%11111110	; SYMBOLS
   1607  6e50				  -	      .byte	%11111110	; SYMBOLS
   1608  6e50				  -	      .byte	%01111100	; SYMBOLS
   1609  6e50				  -	      .byte	%00111000	; SYMBOLS
   1610  6e50				  -	      .byte	%00010000	; SYMBOLS
   1611  6e50				  -
   1612  6e50				  -			;byte %00000000 ; SYMBOLS
   1613  6e50				  -
   1614  6e50					      endif		; fontcharSPADE
   1615  6e50
   1616  6e50				  -	      ifconst	fontcharCLUB
   1617  6e50				  -			;byte %00000000 ; SYMBOLS
   1618  6e50				  -
   1619  6e50				  -	      .byte	%00111000	; SYMBOLS
   1620  6e50				  -	      .byte	%00010000	; SYMBOLS
   1621  6e50				  -	      .byte	%11010110	; SYMBOLS
   1622  6e50				  -	      .byte	%11111110	; SYMBOLS
   1623  6e50				  -	      .byte	%11010110	; SYMBOLS
   1624  6e50				  -	      .byte	%00111000	; SYMBOLS
   1625  6e50				  -	      .byte	%00111000	; SYMBOLS
   1626  6e50				  -	      .byte	%00000000	; SYMBOLS
   1627  6e50				  -
   1628  6e50				  -			;byte %00000000 ; SYMBOLS
   1629  6e50				  -
   1630  6e50					      endif		; fontcharCLUB
   1631  6e50
   1632  6e50
   1633  6e50				  -	      ifconst	fontcharCOLON
   1634  6e50				  -			;byte %00000000 ; SYMBOLS
   1635  6e50				  -
   1636  6e50				  -	      .byte	%00000000	; SYMBOLS
   1637  6e50				  -	      .byte	%00011000	; SYMBOLS
   1638  6e50				  -	      .byte	%00011000	; SYMBOLS
   1639  6e50				  -	      .byte	%00000000	; SYMBOLS
   1640  6e50				  -	      .byte	%00000000	; SYMBOLS
   1641  6e50				  -	      .byte	%00011000	; SYMBOLS
   1642  6e50				  -	      .byte	%00011000	; SYMBOLS
   1643  6e50				  -	      .byte	%00000000	; SYMBOLS
   1644  6e50				  -
   1645  6e50				  -			;byte %00000000 ; SYMBOLS
   1646  6e50				  -
   1647  6e50					      endif		; fontcharCOLON
   1648  6e50
   1649  6e50
   1650  6e50				  -	      ifconst	fontcharBLOCK
   1651  6e50				  -
   1652  6e50				  -			;byte %00000000 ; SYMBOLS
   1653  6e50				  -
   1654  6e50				  -	      .byte	%11111111	; SYMBOLS
   1655  6e50				  -	      .byte	%11111111	; SYMBOLS
   1656  6e50				  -	      .byte	%11111111	; SYMBOLS
   1657  6e50				  -	      .byte	%11111111	; SYMBOLS
   1658  6e50				  -	      .byte	%11111111	; SYMBOLS
   1659  6e50				  -	      .byte	%11111111	; SYMBOLS
   1660  6e50				  -	      .byte	%11111111	; SYMBOLS
   1661  6e50				  -	      .byte	%11111111	; SYMBOLS
   1662  6e50				  -
   1663  6e50				  -			;byte %00000000 ; SYMBOLS
   1664  6e50				  -
   1665  6e50					      endif		; fontcharBLOCK
   1666  6e50
   1667  6e50				  -	      ifconst	fontcharUNDERLINE
   1668  6e50				  -
   1669  6e50				  -			;byte %00000000 ; SYMBOLS
   1670  6e50				  -
   1671  6e50				  -	      .byte	%11111111	; SYMBOLS
   1672  6e50				  -	      .byte	%00000000	; SYMBOLS
   1673  6e50				  -	      .byte	%00000000	; SYMBOLS
   1674  6e50				  -	      .byte	%00000000	; SYMBOLS
   1675  6e50				  -	      .byte	%00000000	; SYMBOLS
   1676  6e50				  -	      .byte	%00000000	; SYMBOLS
   1677  6e50				  -	      .byte	%00000000	; SYMBOLS
   1678  6e50				  -	      .byte	%00000000	; SYMBOLS
   1679  6e50				  -
   1680  6e50				  -			;byte %00000000 ; SYMBOLS
   1681  6e50				  -
   1682  6e50					      endif		; fontcharUNDERLINE
   1683  6e50
   1684  6e50				  -	      ifconst	fontcharARISIDE
   1685  6e50				  -			;byte %00000000 ; SYMBOLS
   1686  6e50				  -
   1687  6e50				  -	      .byte	%00000000	; SYMBOLS
   1688  6e50				  -	      .byte	%00101010	; SYMBOLS
   1689  6e50				  -	      .byte	%00101010	; SYMBOLS
   1690  6e50				  -	      .byte	%00101100	; SYMBOLS
   1691  6e50				  -	      .byte	%01111111	; SYMBOLS
   1692  6e50				  -	      .byte	%00110111	; SYMBOLS
   1693  6e50				  -	      .byte	%00000010	; SYMBOLS
   1694  6e50				  -	      .byte	%00000001	; SYMBOLS
   1695  6e50				  -
   1696  6e50				  -			;byte %00000000 ; SYMBOLS
   1697  6e50				  -
   1698  6e50					      endif		; fontcharARISIDE
   1699  6e50
   1700  6e50				  -	      ifconst	fontcharARIFACE
   1701  6e50				  -			;byte %00000000 ; SYMBOLS
   1702  6e50				  -
   1703  6e50				  -	      .byte	%00001000	; SYMBOLS
   1704  6e50				  -	      .byte	%00011100	; SYMBOLS
   1705  6e50				  -	      .byte	%00111110	; SYMBOLS
   1706  6e50				  -	      .byte	%00101010	; SYMBOLS
   1707  6e50				  -	      .byte	%00011100	; SYMBOLS
   1708  6e50				  -	      .byte	%01010100	; SYMBOLS
   1709  6e50				  -	      .byte	%00100100	; SYMBOLS
   1710  6e50				  -	      .byte	%00000010	; SYMBOLS
   1711  6e50				  -
   1712  6e50				  -			;byte %00000000 ; SYMBOLS
   1713  6e50				  -
   1714  6e50				  -
   1715  6e50					      endif		; fontcharARIRACE
   1716  6e50
------- FILE titlescreen/asm/titlescreen.asm
    303  6e50					      endif
    304  6e50
    305  6e50					      ifconst	mk_gameselect_on
------- FILE titlescreen/gameselect_image.asm LEVEL 3 PASS 4
      0  6e50					      include	"titlescreen/gameselect_image.asm"
      1  6e50				  -	      ifnconst	bmp_gameselect_color
      2  6e50				  -bmp_gameselect_color
      3  6e50					      endif
      4  6e50		       0f		      .byte.b	$0f
      5  6e51
      6  6e51				  -	      if	>. != >[.+5]
      7  6e51				  -	      align	256
      8  6e51					      endif
      9  6e51				   bmp_gameselect_CHAR0
     10  6e51
     11  6e51		       ee		      .byte.b	%11101110	;
     12  6e52		       88		      .byte.b	%10001000	;
     13  6e53		       8c		      .byte.b	%10001100	;
     14  6e54		       88		      .byte.b	%10001000	;
     15  6e55		       8e		      .byte.b	%10001110	;
     16  6e56
     17  6e56				  -	      if	>. != >[.+5]
     18  6e56				  -	      align	256
     19  6e56					      endif
     20  6e56				   bmp_gameselect_CHAR1
     21  6e56
     22  6e56		       4e		      .byte.b	%01001110	;
     23  6e57		       48		      .byte.b	%01001000	;
     24  6e58		       ac		      .byte.b	%10101100	;
     25  6e59		       a8		      .byte.b	%10101000	;
     26  6e5a		       ae		      .byte.b	%10101110	;
     27  6e5b
     28  6e5b				  -	      if	>. != >[.+5]
     29  6e5b				  -	      align	256
     30  6e5b					      endif
     31  6e5b				   bmp_gameselect_CHAR2
     32  6e5b		       e0		      .byte.b	%11100000	;
     33  6e5c		       80		      .byte.b	%10000000	;
     34  6e5d		       80		      .byte.b	%10000000	;
     35  6e5e		       80		      .byte.b	%10000000	;
     36  6e5f		       80		      .byte.b	%10000000	;
     37  6e60
     38  6e60				  -	      if	>. != >[.+5]
     39  6e60				  -	      align	256
     40  6e60					      endif
     41  6e60				   bmp_gameselect_CHAR3
     42  6e60		       00		      .byte.b	%00000000
     43  6e61		       00		      .byte.b	%00000000
     44  6e62		       00		      .byte.b	%00000000
     45  6e63		       00		      .byte.b	%00000000
     46  6e64		       00		      .byte.b	%00000000
     47  6e65
     48  6e65				  -	      if	>. != >[.+80]
     49  6e65				  -	      align	256
     50  6e65					      endif
     51  6e65
     52  6e65
     53  6e65
     54  6e65				  -	      if	>. != >[.+80]
     55  6e65				  -	      align	256
     56  6e65					      endif
     57  6e65
     58  6e65				   font_gameselect_img
     59  6e65		       3c		      .byte.b	%00111100
     60  6e66		       66		      .byte.b	%01100110
     61  6e67		       66		      .byte.b	%01100110
     62  6e68		       66		      .byte.b	%01100110
     63  6e69		       3c		      .byte.b	%00111100
     64  6e6a
     65  6e6a		       3c		      .byte.b	%00111100
     66  6e6b		       18		      .byte.b	%00011000
     67  6e6c		       18		      .byte.b	%00011000
     68  6e6d		       18		      .byte.b	%00011000
     69  6e6e		       38		      .byte.b	%00111000
     70  6e6f
     71  6e6f		       7e		      .byte.b	%01111110
     72  6e70		       60		      .byte.b	%01100000
     73  6e71		       3c		      .byte.b	%00111100
     74  6e72		       06		      .byte.b	%00000110
     75  6e73		       7c		      .byte.b	%01111100
     76  6e74
     77  6e74		       7c		      .byte.b	%01111100
     78  6e75		       06		      .byte.b	%00000110
     79  6e76		       1c		      .byte.b	%00011100
     80  6e77		       06		      .byte.b	%00000110
     81  6e78		       7c		      .byte.b	%01111100
     82  6e79
     83  6e79		       06		      .byte.b	%00000110
     84  6e7a		       06		      .byte.b	%00000110
     85  6e7b		       7e		      .byte.b	%01111110
     86  6e7c		       66		      .byte.b	%01100110
     87  6e7d		       66		      .byte.b	%01100110
     88  6e7e
     89  6e7e		       7c		      .byte.b	%01111100
     90  6e7f		       06		      .byte.b	%00000110
     91  6e80		       7c		      .byte.b	%01111100
     92  6e81		       60		      .byte.b	%01100000
     93  6e82		       7e		      .byte.b	%01111110
     94  6e83
     95  6e83		       3c		      .byte.b	%00111100
     96  6e84		       66		      .byte.b	%01100110
     97  6e85		       7c		      .byte.b	%01111100
     98  6e86		       60		      .byte.b	%01100000
     99  6e87		       3c		      .byte.b	%00111100
    100  6e88
    101  6e88		       18		      .byte.b	%00011000
    102  6e89		       18		      .byte.b	%00011000
    103  6e8a		       0c		      .byte.b	%00001100
    104  6e8b		       06		      .byte.b	%00000110
    105  6e8c		       7e		      .byte.b	%01111110
    106  6e8d
    107  6e8d		       3c		      .byte.b	%00111100
    108  6e8e		       66		      .byte.b	%01100110
    109  6e8f		       3c		      .byte.b	%00111100
    110  6e90		       66		      .byte.b	%01100110
    111  6e91		       3c		      .byte.b	%00111100
    112  6e92
    113  6e92		       3c		      .byte.b	%00111100
    114  6e93		       06		      .byte.b	%00000110
    115  6e94		       3e		      .byte.b	%00111110
    116  6e95		       66		      .byte.b	%01100110
    117  6e96		       3c		      .byte.b	%00111100
    118  6e97
    119  6e97				  -	      ifnconst	gamenumber
    120  6e97				  -gamenumber
    121  6e97					      endif
    122  6e97		       00		      .byte.b	0
    123  6e98
------- FILE titlescreen/asm/titlescreen.asm
    307  6e98					      endif
    308  6e98
    309  6e98				  -	      ifconst	mk_player_on
    310  6e98				  -	      include	"titlescreen/asm/player_kernel.asm"
    311  6e98					      endif		;mk_player_on
    312  6e98
    313  6e98
------- FILE c:\Users\roger\OneDrive\Documents\Atari\BrawdyBAS\brawdy.bas.asm
   7474  6e98
   7475  6e98				   .L0573		;  return
   7476  6e98
   7477  6e98		       ba		      tsx
   7478  6e99		       b5 02		      lda	2,x	; check return address
   7479  6e9b		       49 be		      eor	#(>*)	; vs. current PCH
   7480  6e9d		       29 e0		      and	#$E0	;  mask off all but top 3 bits
   7481  6e9f		       f0 03		      beq	*+5	; if equal, do normal return
   7482  6ea1		       4c e0 df 	      JMP	BS_return
   7483  6ea4		       60		      RTS
   7484  6ea5				   .
   7485  6ea5							; 
   7486  6ea5
   7487  6ea5				   .
   7488  6ea5							; 
   7489  6ea5
   7490  6ea5				   .
   7491  6ea5							; 
   7492  6ea5
   7493  6ea5					      if	ECHO6
      303 bytes of ROM space left in bank 6
   7494  6ea5					      echo	"    ",[(start_bank6 - *)]d , "bytes of ROM space left in bank 6")
   7495  6ea5					      endif
   7496  6ea5		       00 01	   ECHO6      =	1
   7497  6fd4					      ORG	$6FF4-bscode_length
   7498  6fd4					      RORG	$BFF4-bscode_length
   7499  6fd4		       a2 ff	   start_bank6 ldx	#$ff
   7500  6fd6					      ifconst	FASTFETCH	; using DPC+
   7501  6fd6		       8e 58 10 	      stx	FASTFETCH
   7502  6fd9					      endif
   7503  6fd9		       9a		      txs
   7504  6fda				  -	      if	bankswitch == 64
   7505  6fda				  -	      lda	#(((>(start-1)) & $0F) | $F0)
   7506  6fda					      else
   7507  6fda		       a9 18		      lda	#>(start-1)
   7508  6fdc					      endif
   7509  6fdc		       48		      pha
   7510  6fdd		       a9 e3		      lda	#<(start-1)
   7511  6fdf		       48		      pha
   7512  6fe0		       48		      pha
   7513  6fe1		       8a		      txa
   7514  6fe2		       48		      pha
   7515  6fe3		       ba		      tsx
   7516  6fe4					      if	bankswitch != 64
   7517  6fe4		       b5 04		      lda	4,x	; get high byte of return address
   7518  6fe6		       2a		      rol
   7519  6fe7		       2a		      rol
   7520  6fe8		       2a		      rol
   7521  6fe9		       2a		      rol
   7522  6fea		       29 07		      and	#bs_mask	;1 3 or 7 for F8/F6/F4
   7523  6fec		       aa		      tax
   7524  6fed		       e8		      inx
   7525  6fee				  -	      else
   7526  6fee				  -	      lda	4,x	; get high byte of return address
   7527  6fee				  -	      tay
   7528  6fee				  -	      ora	#$10	; change our bank nibble into a valid rom mirror
   7529  6fee				  -	      sta	4,x
   7530  6fee				  -	      tya
   7531  6fee				  -	      lsr
   7532  6fee				  -	      lsr
   7533  6fee				  -	      lsr
   7534  6fee				  -	      lsr
   7535  6fee				  -	      tax
   7536  6fee				  -	      inx
   7537  6fee					      endif
   7538  6fee		       bd f5 1f 	      lda	bankswitch_hotspot-1,x
   7539  6ff1		       68		      pla
   7540  6ff2		       aa		      tax
   7541  6ff3		       68		      pla
   7542  6ff4		       60		      rts
   7543  6ff5				  -	      if	((* & $1FFF) > ((bankswitch_hotspot & $1FFF) - 1))
   7544  6ff5				  -	      echo	"WARNING: size parameter in banksw.asm too small - the program probably will not work."
   7545  6ff5				  -	      echo	"Change to",[(*-begin_bscode+1)&$FF]d,"and try again."
   7546  6ff5					      endif
   7547  6ffc					      ORG	$6FFC
   7548  6ffc					      RORG	$BFFC
   7549  6ffc		       d4 bf		      .word.w	(start_bank6 & $ffff)
   7550  6ffe		       d4 bf		      .word.w	(start_bank6 & $ffff)
   7551  7000					      ORG	$7000
   7552  7000					      RORG	$D000
   7553  7000					      repeat	129
   7554  7000		       00		      .byte.b	0
   7553  7000					      repend
   7554  7001		       00		      .byte.b	0
   7553  7001					      repend
   7554  7002		       00		      .byte.b	0
   7553  7002					      repend
   7554  7003		       00		      .byte.b	0
   7553  7003					      repend
   7554  7004		       00		      .byte.b	0
   7553  7004					      repend
   7554  7005		       00		      .byte.b	0
   7553  7005					      repend
   7554  7006		       00		      .byte.b	0
   7553  7006					      repend
   7554  7007		       00		      .byte.b	0
   7553  7007					      repend
   7554  7008		       00		      .byte.b	0
   7553  7008					      repend
   7554  7009		       00		      .byte.b	0
   7553  7009					      repend
   7554  700a		       00		      .byte.b	0
   7553  700a					      repend
   7554  700b		       00		      .byte.b	0
   7553  700b					      repend
   7554  700c		       00		      .byte.b	0
   7553  700c					      repend
   7554  700d		       00		      .byte.b	0
   7553  700d					      repend
   7554  700e		       00		      .byte.b	0
   7553  700e					      repend
   7554  700f		       00		      .byte.b	0
   7553  700f					      repend
   7554  7010		       00		      .byte.b	0
   7553  7010					      repend
   7554  7011		       00		      .byte.b	0
   7553  7011					      repend
   7554  7012		       00		      .byte.b	0
   7553  7012					      repend
   7554  7013		       00		      .byte.b	0
   7553  7013					      repend
   7554  7014		       00		      .byte.b	0
   7553  7014					      repend
   7554  7015		       00		      .byte.b	0
   7553  7015					      repend
   7554  7016		       00		      .byte.b	0
   7553  7016					      repend
   7554  7017		       00		      .byte.b	0
   7553  7017					      repend
   7554  7018		       00		      .byte.b	0
   7553  7018					      repend
   7554  7019		       00		      .byte.b	0
   7553  7019					      repend
   7554  701a		       00		      .byte.b	0
   7553  701a					      repend
   7554  701b		       00		      .byte.b	0
   7553  701b					      repend
   7554  701c		       00		      .byte.b	0
   7553  701c					      repend
   7554  701d		       00		      .byte.b	0
   7553  701d					      repend
   7554  701e		       00		      .byte.b	0
   7553  701e					      repend
   7554  701f		       00		      .byte.b	0
   7553  701f					      repend
   7554  7020		       00		      .byte.b	0
   7553  7020					      repend
   7554  7021		       00		      .byte.b	0
   7553  7021					      repend
   7554  7022		       00		      .byte.b	0
   7553  7022					      repend
   7554  7023		       00		      .byte.b	0
   7553  7023					      repend
   7554  7024		       00		      .byte.b	0
   7553  7024					      repend
   7554  7025		       00		      .byte.b	0
   7553  7025					      repend
   7554  7026		       00		      .byte.b	0
   7553  7026					      repend
   7554  7027		       00		      .byte.b	0
   7553  7027					      repend
   7554  7028		       00		      .byte.b	0
   7553  7028					      repend
   7554  7029		       00		      .byte.b	0
   7553  7029					      repend
   7554  702a		       00		      .byte.b	0
   7553  702a					      repend
   7554  702b		       00		      .byte.b	0
   7553  702b					      repend
   7554  702c		       00		      .byte.b	0
   7553  702c					      repend
   7554  702d		       00		      .byte.b	0
   7553  702d					      repend
   7554  702e		       00		      .byte.b	0
   7553  702e					      repend
   7554  702f		       00		      .byte.b	0
   7553  702f					      repend
   7554  7030		       00		      .byte.b	0
   7553  7030					      repend
   7554  7031		       00		      .byte.b	0
   7553  7031					      repend
   7554  7032		       00		      .byte.b	0
   7553  7032					      repend
   7554  7033		       00		      .byte.b	0
   7553  7033					      repend
   7554  7034		       00		      .byte.b	0
   7553  7034					      repend
   7554  7035		       00		      .byte.b	0
   7553  7035					      repend
   7554  7036		       00		      .byte.b	0
   7553  7036					      repend
   7554  7037		       00		      .byte.b	0
   7553  7037					      repend
   7554  7038		       00		      .byte.b	0
   7553  7038					      repend
   7554  7039		       00		      .byte.b	0
   7553  7039					      repend
   7554  703a		       00		      .byte.b	0
   7553  703a					      repend
   7554  703b		       00		      .byte.b	0
   7553  703b					      repend
   7554  703c		       00		      .byte.b	0
   7553  703c					      repend
   7554  703d		       00		      .byte.b	0
   7553  703d					      repend
   7554  703e		       00		      .byte.b	0
   7553  703e					      repend
   7554  703f		       00		      .byte.b	0
   7553  703f					      repend
   7554  7040		       00		      .byte.b	0
   7553  7040					      repend
   7554  7041		       00		      .byte.b	0
   7553  7041					      repend
   7554  7042		       00		      .byte.b	0
   7553  7042					      repend
   7554  7043		       00		      .byte.b	0
   7553  7043					      repend
   7554  7044		       00		      .byte.b	0
   7553  7044					      repend
   7554  7045		       00		      .byte.b	0
   7553  7045					      repend
   7554  7046		       00		      .byte.b	0
   7553  7046					      repend
   7554  7047		       00		      .byte.b	0
   7553  7047					      repend
   7554  7048		       00		      .byte.b	0
   7553  7048					      repend
   7554  7049		       00		      .byte.b	0
   7553  7049					      repend
   7554  704a		       00		      .byte.b	0
   7553  704a					      repend
   7554  704b		       00		      .byte.b	0
   7553  704b					      repend
   7554  704c		       00		      .byte.b	0
   7553  704c					      repend
   7554  704d		       00		      .byte.b	0
   7553  704d					      repend
   7554  704e		       00		      .byte.b	0
   7553  704e					      repend
   7554  704f		       00		      .byte.b	0
   7553  704f					      repend
   7554  7050		       00		      .byte.b	0
   7553  7050					      repend
   7554  7051		       00		      .byte.b	0
   7553  7051					      repend
   7554  7052		       00		      .byte.b	0
   7553  7052					      repend
   7554  7053		       00		      .byte.b	0
   7553  7053					      repend
   7554  7054		       00		      .byte.b	0
   7553  7054					      repend
   7554  7055		       00		      .byte.b	0
   7553  7055					      repend
   7554  7056		       00		      .byte.b	0
   7553  7056					      repend
   7554  7057		       00		      .byte.b	0
   7553  7057					      repend
   7554  7058		       00		      .byte.b	0
   7553  7058					      repend
   7554  7059		       00		      .byte.b	0
   7553  7059					      repend
   7554  705a		       00		      .byte.b	0
   7553  705a					      repend
   7554  705b		       00		      .byte.b	0
   7553  705b					      repend
   7554  705c		       00		      .byte.b	0
   7553  705c					      repend
   7554  705d		       00		      .byte.b	0
   7553  705d					      repend
   7554  705e		       00		      .byte.b	0
   7553  705e					      repend
   7554  705f		       00		      .byte.b	0
   7553  705f					      repend
   7554  7060		       00		      .byte.b	0
   7553  7060					      repend
   7554  7061		       00		      .byte.b	0
   7553  7061					      repend
   7554  7062		       00		      .byte.b	0
   7553  7062					      repend
   7554  7063		       00		      .byte.b	0
   7553  7063					      repend
   7554  7064		       00		      .byte.b	0
   7553  7064					      repend
   7554  7065		       00		      .byte.b	0
   7553  7065					      repend
   7554  7066		       00		      .byte.b	0
   7553  7066					      repend
   7554  7067		       00		      .byte.b	0
   7553  7067					      repend
   7554  7068		       00		      .byte.b	0
   7553  7068					      repend
   7554  7069		       00		      .byte.b	0
   7553  7069					      repend
   7554  706a		       00		      .byte.b	0
   7553  706a					      repend
   7554  706b		       00		      .byte.b	0
   7553  706b					      repend
   7554  706c		       00		      .byte.b	0
   7553  706c					      repend
   7554  706d		       00		      .byte.b	0
   7553  706d					      repend
   7554  706e		       00		      .byte.b	0
   7553  706e					      repend
   7554  706f		       00		      .byte.b	0
   7553  706f					      repend
   7554  7070		       00		      .byte.b	0
   7553  7070					      repend
   7554  7071		       00		      .byte.b	0
   7553  7071					      repend
   7554  7072		       00		      .byte.b	0
   7553  7072					      repend
   7554  7073		       00		      .byte.b	0
   7553  7073					      repend
   7554  7074		       00		      .byte.b	0
   7553  7074					      repend
   7554  7075		       00		      .byte.b	0
   7553  7075					      repend
   7554  7076		       00		      .byte.b	0
   7553  7076					      repend
   7554  7077		       00		      .byte.b	0
   7553  7077					      repend
   7554  7078		       00		      .byte.b	0
   7553  7078					      repend
   7554  7079		       00		      .byte.b	0
   7553  7079					      repend
   7554  707a		       00		      .byte.b	0
   7553  707a					      repend
   7554  707b		       00		      .byte.b	0
   7553  707b					      repend
   7554  707c		       00		      .byte.b	0
   7553  707c					      repend
   7554  707d		       00		      .byte.b	0
   7553  707d					      repend
   7554  707e		       00		      .byte.b	0
   7553  707e					      repend
   7554  707f		       00		      .byte.b	0
   7553  707f					      repend
   7554  7080		       00		      .byte.b	0
   7555  7081					      repend
   7556  7081							; Provided under the CC0 license. See the included LICENSE.txt for details.
   7557  7081
   7558  7081							;----------------------------------------
   7559  7081							; Display Data
   7560  7081							;----------------------------------------
   7561  7081							; The Display Data bank is copied into RAM when DPC+ initializes the cartridge.
   7562  7081							; This allows us to manipulate the data during run-time, but have a known
   7563  7081							; starting state when the Atari is first turned on.
   7564  7081							;
   7565  7081							; Unlike normal Atari VCS/2600 sprite definitions, the sprite data in the
   7566  7081							; Display Data bank is stored right-side-up.
   7567  7081							;
   7568  7081							;----------------------------------------
   7569  7081
   7570  7081				   Zeros32
   7571  7081		       00 84	   SOUND_OFF  =	(* & $1fff)/32
   7572  7081				   DisplayDataDigitBlank
   7573  7081		       00		      .byte.b	0	;--
   7574  7082		       00		      .byte.b	0	;--
   7575  7083		       00		      .byte.b	0	;--
   7576  7084		       00		      .byte.b	0	;--
   7577  7085		       00		      .byte.b	0	;--
   7578  7086		       00		      .byte.b	0	;--
   7579  7087		       00		      .byte.b	0	;--
   7580  7088		       00		      .byte.b	0	;--
   7581  7089
   7582  7089							;	align 32
   7583  7089							;Zeros32:
   7584  7089							;SOUND_OFF = (* & $1fff)/32
   7585  7089							;	.byte 0,0,0,0,0,0,0,0
   7586  7089		       00 00 00 00*	      .byte.b	0,0,0,0,0,0,0,0
   7587  7091		       00 00 00 00*	      .byte.b	0,0,0,0,0,0,0,0
   7588  7099		       00 00 00 00*	      .byte.b	0,0,0,0,0,0,0,0
   7589  70a1
   7590  70a1		       00 85	   SINE_WAVE  =	(* & $1fff)/32
   7591  70a1		       03 03 03 04*	      .byte.b	3,3,3,4,4,5,5,5
   7592  70a9		       05 05 05 05*	      .byte.b	5,5,5,5,4,4,3,3
   7593  70b1		       03 02 02 01*	      .byte.b	3,2,2,1,1,0,0,0
   7594  70b9		       00 00 00 00*	      .byte.b	0,0,0,0,1,1,2,2
   7595  70c1
   7596  70e0		       00 00 00 00*	      align	32
   7597  70e0		       00 87	   TRIANGLE_WAVE =	(* & $1fff)/32
   7598  70e0		       00 00 01 01*	      .byte.b	0,0,1,1,1,2,2,2
   7599  70e8		       03 03 03 04*	      .byte.b	3,3,3,4,4,4,5,5
   7600  70f0		       05 05 04 04*	      .byte.b	5,5,4,4,4,3,3,3
   7601  70f8		       02 02 02 01*	      .byte.b	2,2,2,1,1,1,0,0
   7602  7100
   7603  7100					      align	32
   7604  7100		       00 88	   SAWTOOTH_WAVE =	(* & $1fff)/32
   7605  7100		       00 00 00 00*	      .byte.b	0,0,0,0,1,1,1,1
   7606  7108		       01 01 02 02*	      .byte.b	1,1,2,2,2,2,2,2
   7607  7110		       03 03 03 03*	      .byte.b	3,3,3,3,3,3,4,4
   7608  7118		       04 04 04 04*	      .byte.b	4,4,4,4,5,5,5,5
   7609  7120
   7610  7120					      align	32
   7611  7120		       00 89	   SQUARE_WAVE_VOL5 =	(* & $1fff)/32
   7612  7120		       00 00 00 00*	      .byte.b	0,0,0,0,0,0,0,0
   7613  7128		       00 00 00 00*	      .byte.b	0,0,0,0,0,0,0,0
   7614  7130		       05 05 05 05*	      .byte.b	5,5,5,5,5,5,5,5
   7615  7138		       05 05 05 05*	      .byte.b	5,5,5,5,5,5,5,5
   7616  7140
   7617  7140					      align	32
   7618  7140		       00 8a	   SQUARE_WAVE_VOL4 =	(* & $1fff)/32
   7619  7140		       00 00 00 00*	      .byte.b	0,0,0,0,0,0,0,0
   7620  7148		       00 00 00 00*	      .byte.b	0,0,0,0,0,0,0,0
   7621  7150		       04 04 04 04*	      .byte.b	4,4,4,4,4,4,4,4
   7622  7158		       04 04 04 04*	      .byte.b	4,4,4,4,4,4,4,4
   7623  7160
   7624  7160					      align	32
   7625  7160		       00 8b	   SQUARE_WAVE_VOL3 =	(* & $1fff)/32
   7626  7160		       00 00 00 00*	      .byte.b	0,0,0,0,0,0,0,0
   7627  7168		       00 00 00 00*	      .byte.b	0,0,0,0,0,0,0,0
   7628  7170		       03 03 03 03*	      .byte.b	3,3,3,3,3,3,3,3
   7629  7178		       03 03 03 03*	      .byte.b	3,3,3,3,3,3,3,3
   7630  7180
   7631  7180					      align	32
   7632  7180		       00 8c	   NOISE_WAVE =	(* & $1fff)/32
   7633  7180		       07 01 09 0a*	      .byte.b	7, 1, 9,10, 2, 8, 8,14
   7634  7188		       03 0d 08 05*	      .byte.b	3,13, 8, 5,12, 2, 3, 7
   7635  7190		       07 01 08 04*	      .byte.b	7, 1, 8, 4,15, 1,13, 5
   7636  7198		       08 05 0b 06*	      .byte.b	8, 5,11, 6, 8, 7, 9, 2
   7637  71a0
   7638  71a0							; low and high byte of address table (for ROMdata array in C)
   7639  71a0		       de		      .byte.b	<fetcher_address_table
   7640  71a1		       0e		      .byte.b	((>fetcher_address_table) & $0f) | (((>fetcher_address_table) / 2) & $70)
   7641  71a2		       00		      .byte.b	0
   7642  71a3		       00		      .byte.b	0
   7643  71a4				   FETCHER_BEGIN
   7644  71a4		       10		      .byte.b	16
   7645  71a5		       10		      .byte.b	16
   7646  71a6		       10		      .byte.b	16
   7647  71a7		       10		      .byte.b	16	; to zero-fill on boot
   7648  71a8							;bB.asm
   7649  71a8							; bB.asm file is split here
   7650  71a8				   backgroundcolorL0431
   7651  71a8		       08		      .byte.b	_08
   7652  71a9		       06		      .byte.b	_06
   7653  71aa		       08		      .byte.b	_08
   7654  71ab		       08		      .byte.b	_08
   7655  71ac		       06		      .byte.b	_06
   7656  71ad		       08		      .byte.b	_08
   7657  71ae		       06		      .byte.b	_06
   7658  71af		       08		      .byte.b	_08
   7659  71b0		       06		      .byte.b	_06
   7660  71b1		       06		      .byte.b	_06
   7661  71b2		       08		      .byte.b	_08
   7662  71b3		       08		      .byte.b	_08
   7663  71b4		       06		      .byte.b	_06
   7664  71b5		       06		      .byte.b	_06
   7665  71b6		       06		      .byte.b	_06
   7666  71b7		       06		      .byte.b	_06
   7667  71b8		       06		      .byte.b	_06
   7668  71b9		       06		      .byte.b	_06
   7669  71ba		       06		      .byte.b	_06
   7670  71bb		       06		      .byte.b	_06
   7671  71bc		       06		      .byte.b	_06
   7672  71bd		       06		      .byte.b	_06
   7673  71be		       06		      .byte.b	_06
   7674  71bf		       06		      .byte.b	_06
   7675  71c0		       06		      .byte.b	_06
   7676  71c1		       06		      .byte.b	_06
   7677  71c2		       06		      .byte.b	_06
   7678  71c3		       06		      .byte.b	_06
   7679  71c4		       06		      .byte.b	_06
   7680  71c5		       06		      .byte.b	_06
   7681  71c6		       06		      .byte.b	_06
   7682  71c7		       06		      .byte.b	_06
   7683  71c8		       06		      .byte.b	_06
   7684  71c9		       06		      .byte.b	_06
   7685  71ca		       06		      .byte.b	_06
   7686  71cb		       06		      .byte.b	_06
   7687  71cc		       06		      .byte.b	_06
   7688  71cd		       06		      .byte.b	_06
   7689  71ce		       06		      .byte.b	_06
   7690  71cf		       06		      .byte.b	_06
   7691  71d0		       06		      .byte.b	_06
   7692  71d1		       06		      .byte.b	_06
   7693  71d2		       06		      .byte.b	_06
   7694  71d3		       06		      .byte.b	_06
   7695  71d4		       06		      .byte.b	_06
   7696  71d5		       06		      .byte.b	_06
   7697  71d6		       06		      .byte.b	_06
   7698  71d7		       06		      .byte.b	_06
   7699  71d8		       06		      .byte.b	_06
   7700  71d9		       06		      .byte.b	_06
   7701  71da		       06		      .byte.b	_06
   7702  71db		       06		      .byte.b	_06
   7703  71dc		       06		      .byte.b	_06
   7704  71dd		       06		      .byte.b	_06
   7705  71de		       06		      .byte.b	_06
   7706  71df		       06		      .byte.b	_06
   7707  71e0		       06		      .byte.b	_06
   7708  71e1		       06		      .byte.b	_06
   7709  71e2		       06		      .byte.b	_06
   7710  71e3		       06		      .byte.b	_06
   7711  71e4		       06		      .byte.b	_06
   7712  71e5		       06		      .byte.b	_06
   7713  71e6		       06		      .byte.b	_06
   7714  71e7		       06		      .byte.b	_06
   7715  71e8		       06		      .byte.b	_06
   7716  71e9		       06		      .byte.b	_06
   7717  71ea		       06		      .byte.b	_06
   7718  71eb		       06		      .byte.b	_06
   7719  71ec		       06		      .byte.b	_06
   7720  71ed		       06		      .byte.b	_06
   7721  71ee		       06		      .byte.b	_06
   7722  71ef		       06		      .byte.b	_06
   7723  71f0		       06		      .byte.b	_06
   7724  71f1		       06		      .byte.b	_06
   7725  71f2		       06		      .byte.b	_06
   7726  71f3		       06		      .byte.b	_06
   7727  71f4		       06		      .byte.b	_06
   7728  71f5		       06		      .byte.b	_06
   7729  71f6		       06		      .byte.b	_06
   7730  71f7		       06		      .byte.b	_06
   7731  71f8		       06		      .byte.b	_06
   7732  71f9		       06		      .byte.b	_06
   7733  71fa		       06		      .byte.b	_06
   7734  71fb		       06		      .byte.b	_06
   7735  71fc		       06		      .byte.b	_06
   7736  71fd		       06		      .byte.b	_06
   7737  71fe		       c6		      .byte.b	_C6
   7738  71ff		       c6		      .byte.b	_C6
   7739  7200				   PF_data1
   7740  7200		       00		      .byte.b	%00000000
   7741  7201		       00		      .byte.b	%00000000
   7742  7202		       00		      .byte.b	%00000000
   7743  7203		       00		      .byte.b	%00000000
   7744  7204		       00		      .byte.b	%00000000
   7745  7205		       00		      .byte.b	%00000000
   7746  7206		       00		      .byte.b	%00000000
   7747  7207		       00		      .byte.b	%00000000
   7748  7208		       00		      .byte.b	%00000000
   7749  7209		       00		      .byte.b	%00000000
   7750  720a		       00		      .byte.b	%00000000
   7751  720b		       00		      .byte.b	%00000000
   7752  720c		       00		      .byte.b	%00000000
   7753  720d		       00		      .byte.b	%00000000
   7754  720e		       00		      .byte.b	%00000000
   7755  720f		       00		      .byte.b	%00000000
   7756  7210		       00		      .byte.b	%00000000
   7757  7211		       00		      .byte.b	%00000000
   7758  7212		       00		      .byte.b	%00000000
   7759  7213		       00		      .byte.b	%00000000
   7760  7214		       00		      .byte.b	%00000000
   7761  7215		       00		      .byte.b	%00000000
   7762  7216		       00		      .byte.b	%00000000
   7763  7217		       00		      .byte.b	%00000000
   7764  7218		       00		      .byte.b	%00000000
   7765  7219		       00		      .byte.b	%00000000
   7766  721a		       00		      .byte.b	%00000000
   7767  721b		       00		      .byte.b	%00000000
   7768  721c		       00		      .byte.b	%00000000
   7769  721d		       00		      .byte.b	%00000000
   7770  721e		       00		      .byte.b	%00000000
   7771  721f		       00		      .byte.b	%00000000
   7772  7220		       00		      .byte.b	%00000000
   7773  7221		       00		      .byte.b	%00000000
   7774  7222		       00		      .byte.b	%00000000
   7775  7223		       00		      .byte.b	%00000000
   7776  7224		       00		      .byte.b	%00000000
   7777  7225		       00		      .byte.b	%00000000
   7778  7226		       00		      .byte.b	%00000000
   7779  7227		       00		      .byte.b	%00000000
   7780  7228		       00		      .byte.b	%00000000
   7781  7229		       00		      .byte.b	%00000000
   7782  722a		       00		      .byte.b	%00000000
   7783  722b		       00		      .byte.b	%00000000
   7784  722c		       00		      .byte.b	%00000000
   7785  722d		       00		      .byte.b	%00000000
   7786  722e		       00		      .byte.b	%00000000
   7787  722f		       00		      .byte.b	%00000000
   7788  7230		       00		      .byte.b	%00000000
   7789  7231		       00		      .byte.b	%00000000
   7790  7232		       00		      .byte.b	%00000000
   7791  7233		       00		      .byte.b	%00000000
   7792  7234		       00		      .byte.b	%00000000
   7793  7235		       00		      .byte.b	%00000000
   7794  7236		       00		      .byte.b	%00000000
   7795  7237		       00		      .byte.b	%00000000
   7796  7238		       00		      .byte.b	%00000000
   7797  7239		       00		      .byte.b	%00000000
   7798  723a		       00		      .byte.b	%00000000
   7799  723b		       00		      .byte.b	%00000000
   7800  723c		       00		      .byte.b	%00000000
   7801  723d		       00		      .byte.b	%00000000
   7802  723e		       00		      .byte.b	%00000000
   7803  723f		       00		      .byte.b	%00000000
   7804  7240		       00		      .byte.b	%00000000
   7805  7241		       00		      .byte.b	%00000000
   7806  7242		       00		      .byte.b	%00000000
   7807  7243		       00		      .byte.b	%00000000
   7808  7244		       00		      .byte.b	%00000000
   7809  7245		       00		      .byte.b	%00000000
   7810  7246		       00		      .byte.b	%00000000
   7811  7247		       00		      .byte.b	%00000000
   7812  7248		       00		      .byte.b	%00000000
   7813  7249		       00		      .byte.b	%00000000
   7814  724a		       00		      .byte.b	%00000000
   7815  724b		       00		      .byte.b	%00000000
   7816  724c		       00		      .byte.b	%00000000
   7817  724d		       00		      .byte.b	%00000000
   7818  724e		       00		      .byte.b	%00000000
   7819  724f		       00		      .byte.b	%00000000
   7820  7250		       00		      .byte.b	%00000000
   7821  7251		       00		      .byte.b	%00000000
   7822  7252		       00		      .byte.b	%00000000
   7823  7253		       00		      .byte.b	%00000000
   7824  7254		       00		      .byte.b	%00000000
   7825  7255		       00		      .byte.b	%00000000
   7826  7256		       00		      .byte.b	%00000000
   7827  7257		       00		      .byte.b	%00000000
   7828  7258		       00		      .byte.b	%00000000
   7829  7259		       00		      .byte.b	%00000000
   7830  725a		       00		      .byte.b	%00000000
   7831  725b		       00		      .byte.b	%00000000
   7832  725c		       00		      .byte.b	%00000000
   7833  725d		       00		      .byte.b	%00000000
   7834  725e		       00		      .byte.b	%00000000
   7835  725f		       00		      .byte.b	%00000000
   7836  7260		       00		      .byte.b	%00000000
   7837  7261		       00		      .byte.b	%00000000
   7838  7262		       00		      .byte.b	%00000000
   7839  7263		       00		      .byte.b	%00000000
   7840  7264		       00		      .byte.b	%00000000
   7841  7265		       00		      .byte.b	%00000000
   7842  7266		       00		      .byte.b	%00000000
   7843  7267		       00		      .byte.b	%00000000
   7844  7268		       00		      .byte.b	%00000000
   7845  7269		       00		      .byte.b	%00000000
   7846  726a		       00		      .byte.b	%00000000
   7847  726b		       00		      .byte.b	%00000000
   7848  726c		       00		      .byte.b	%00000000
   7849  726d		       00		      .byte.b	%00000000
   7850  726e		       00		      .byte.b	%00000000
   7851  726f		       00		      .byte.b	%00000000
   7852  7270		       00		      .byte.b	%00000000
   7853  7271		       00		      .byte.b	%00000000
   7854  7272		       00		      .byte.b	%00000000
   7855  7273		       00		      .byte.b	%00000000
   7856  7274		       00		      .byte.b	%00000000
   7857  7275		       00		      .byte.b	%00000000
   7858  7276		       00		      .byte.b	%00000000
   7859  7277		       00		      .byte.b	%00000000
   7860  7278		       00		      .byte.b	%00000000
   7861  7279		       00		      .byte.b	%00000000
   7862  727a		       00		      .byte.b	%00000000
   7863  727b		       00		      .byte.b	%00000000
   7864  727c		       00		      .byte.b	%00000000
   7865  727d		       00		      .byte.b	%00000000
   7866  727e		       00		      .byte.b	%00000000
   7867  727f		       00		      .byte.b	%00000000
   7868  7280		       00		      .byte.b	%00000000
   7869  7281		       00		      .byte.b	%00000000
   7870  7282		       00		      .byte.b	%00000000
   7871  7283		       00		      .byte.b	%00000000
   7872  7284		       00		      .byte.b	%00000000
   7873  7285		       00		      .byte.b	%00000000
   7874  7286		       00		      .byte.b	%00000000
   7875  7287		       00		      .byte.b	%00000000
   7876  7288		       00		      .byte.b	%00000000
   7877  7289		       00		      .byte.b	%00000000
   7878  728a		       00		      .byte.b	%00000000
   7879  728b		       00		      .byte.b	%00000000
   7880  728c		       00		      .byte.b	%00000000
   7881  728d		       00		      .byte.b	%00000000
   7882  728e		       00		      .byte.b	%00000000
   7883  728f		       00		      .byte.b	%00000000
   7884  7290		       00		      .byte.b	%00000000
   7885  7291		       00		      .byte.b	%00000000
   7886  7292		       00		      .byte.b	%00000000
   7887  7293		       00		      .byte.b	%00000000
   7888  7294		       00		      .byte.b	%00000000
   7889  7295		       fe		      .byte.b	%11111110
   7890  7296		       fe		      .byte.b	%11111110
   7891  7297		       fe		      .byte.b	%11111110
   7892  7298		       fe		      .byte.b	%11111110
   7893  7299		       fc		      .byte.b	%11111100
   7894  729a		       fc		      .byte.b	%11111100
   7895  729b		       fc		      .byte.b	%11111100
   7896  729c		       fc		      .byte.b	%11111100
   7897  729d		       c4		      .byte.b	%11000100
   7898  729e		       c4		      .byte.b	%11000100
   7899  729f		       c4		      .byte.b	%11000100
   7900  72a0		       c4		      .byte.b	%11000100
   7901  72a1		       c4		      .byte.b	%11000100
   7902  72a2		       c4		      .byte.b	%11000100
   7903  72a3		       fc		      .byte.b	%11111100
   7904  72a4		       c4		      .byte.b	%11000100
   7905  72a5		       c4		      .byte.b	%11000100
   7906  72a6		       c4		      .byte.b	%11000100
   7907  72a7		       c4		      .byte.b	%11000100
   7908  72a8		       c4		      .byte.b	%11000100
   7909  72a9		       c4		      .byte.b	%11000100
   7910  72aa		       c4		      .byte.b	%11000100
   7911  72ab		       fc		      .byte.b	%11111100
   7912  72ac		       fc		      .byte.b	%11111100
   7913  72ad		       fc		      .byte.b	%11111100
   7914  72ae		       fc		      .byte.b	%11111100
   7915  72af		       fc		      .byte.b	%11111100
   7916  72b0		       00		      .byte.b	%00000000
   7917  72b1		       00		      .byte.b	%00000000
   7918  72b2		       00		      .byte.b	%00000000
   7919  72b3		       00		      .byte.b	%00000000
   7920  72b4		       00		      .byte.b	%00000000
   7921  72b5		       00		      .byte.b	%00000000
   7922  72b6		       00		      .byte.b	%00000000
   7923  72b7		       00		      .byte.b	%00000000
   7924  72b8		       00		      .byte.b	%00000000
   7925  72b9		       00		      .byte.b	%00000000
   7926  72ba		       00		      .byte.b	%00000000
   7927  72bb		       00		      .byte.b	%00000000
   7928  72bc		       00		      .byte.b	%00000000
   7929  72bd		       00		      .byte.b	%00000000
   7930  72be		       00		      .byte.b	%00000000
   7931  72bf		       00		      .byte.b	%00000000
   7932  72c0		       00		      .byte.b	%00000000
   7933  72c1		       00		      .byte.b	%00000000
   7934  72c2		       00		      .byte.b	%00000000
   7935  72c3		       00		      .byte.b	%00000000
   7936  72c4		       00		      .byte.b	%00000000
   7937  72c5		       00		      .byte.b	%00000000
   7938  72c6		       00		      .byte.b	%00000000
   7939  72c7		       00		      .byte.b	%00000000
   7940  72c8		       00		      .byte.b	%00000000
   7941  72c9		       00		      .byte.b	%00000000
   7942  72ca		       00		      .byte.b	%00000000
   7943  72cb		       00		      .byte.b	%00000000
   7944  72cc		       00		      .byte.b	%00000000
   7945  72cd		       00		      .byte.b	%00000000
   7946  72ce		       00		      .byte.b	%00000000
   7947  72cf		       00		      .byte.b	%00000000
   7948  72d0		       00		      .byte.b	%00000000
   7949  72d1		       00		      .byte.b	%00000000
   7950  72d2		       00		      .byte.b	%00000000
   7951  72d3		       00		      .byte.b	%00000000
   7952  72d4		       00		      .byte.b	%00000000
   7953  72d5		       00		      .byte.b	%00000000
   7954  72d6		       00		      .byte.b	%00000000
   7955  72d7		       00		      .byte.b	%00000000
   7956  72d8		       00		      .byte.b	%00000000
   7957  72d9		       00		      .byte.b	%00000000
   7958  72da		       00		      .byte.b	%00000000
   7959  72db		       00		      .byte.b	%00000000
   7960  72dc		       00		      .byte.b	%00000000
   7961  72dd		       00		      .byte.b	%00000000
   7962  72de		       00		      .byte.b	%00000000
   7963  72df		       00		      .byte.b	%00000000
   7964  72e0		       00		      .byte.b	%00000000
   7965  72e1		       00		      .byte.b	%00000000
   7966  72e2		       00		      .byte.b	%00000000
   7967  72e3		       00		      .byte.b	%00000000
   7968  72e4		       00		      .byte.b	%00000000
   7969  72e5		       00		      .byte.b	%00000000
   7970  72e6		       00		      .byte.b	%00000000
   7971  72e7		       00		      .byte.b	%00000000
   7972  72e8		       00		      .byte.b	%00000000
   7973  72e9		       00		      .byte.b	%00000000
   7974  72ea		       00		      .byte.b	%00000000
   7975  72eb		       00		      .byte.b	%00000000
   7976  72ec		       00		      .byte.b	%00000000
   7977  72ed		       fe		      .byte.b	%11111110
   7978  72ee		       fe		      .byte.b	%11111110
   7979  72ef		       fe		      .byte.b	%11111110
   7980  72f0		       fe		      .byte.b	%11111110
   7981  72f1		       fc		      .byte.b	%11111100
   7982  72f2		       fc		      .byte.b	%11111100
   7983  72f3		       fc		      .byte.b	%11111100
   7984  72f4		       fc		      .byte.b	%11111100
   7985  72f5		       c4		      .byte.b	%11000100
   7986  72f6		       c4		      .byte.b	%11000100
   7987  72f7		       c4		      .byte.b	%11000100
   7988  72f8		       c4		      .byte.b	%11000100
   7989  72f9		       c4		      .byte.b	%11000100
   7990  72fa		       c4		      .byte.b	%11000100
   7991  72fb		       fc		      .byte.b	%11111100
   7992  72fc		       c4		      .byte.b	%11000100
   7993  72fd		       c4		      .byte.b	%11000100
   7994  72fe		       c4		      .byte.b	%11000100
   7995  72ff		       c4		      .byte.b	%11000100
   7996  7300		       c4		      .byte.b	%11000100
   7997  7301		       c4		      .byte.b	%11000100
   7998  7302		       c4		      .byte.b	%11000100
   7999  7303		       fc		      .byte.b	%11111100
   8000  7304		       fc		      .byte.b	%11111100
   8001  7305		       fc		      .byte.b	%11111100
   8002  7306		       fc		      .byte.b	%11111100
   8003  7307		       fc		      .byte.b	%11111100
   8004  7308		       00		      .byte.b	%00000000
   8005  7309		       00		      .byte.b	%00000000
   8006  730a		       00		      .byte.b	%00000000
   8007  730b		       00		      .byte.b	%00000000
   8008  730c		       00		      .byte.b	%00000000
   8009  730d		       00		      .byte.b	%00000000
   8010  730e		       00		      .byte.b	%00000000
   8011  730f		       00		      .byte.b	%00000000
   8012  7310		       00		      .byte.b	%00000000
   8013  7311		       00		      .byte.b	%00000000
   8014  7312		       00		      .byte.b	%00000000
   8015  7313		       00		      .byte.b	%00000000
   8016  7314		       00		      .byte.b	%00000000
   8017  7315		       00		      .byte.b	%00000000
   8018  7316		       00		      .byte.b	%00000000
   8019  7317		       00		      .byte.b	%00000000
   8020  7318		       00		      .byte.b	%00000000
   8021  7319		       00		      .byte.b	%00000000
   8022  731a		       00		      .byte.b	%00000000
   8023  731b		       00		      .byte.b	%00000000
   8024  731c		       00		      .byte.b	%00000000
   8025  731d		       00		      .byte.b	%00000000
   8026  731e		       00		      .byte.b	%00000000
   8027  731f		       00		      .byte.b	%00000000
   8028  7320		       00		      .byte.b	%00000000
   8029  7321		       00		      .byte.b	%00000000
   8030  7322		       00		      .byte.b	%00000000
   8031  7323		       00		      .byte.b	%00000000
   8032  7324		       00		      .byte.b	%00000000
   8033  7325		       00		      .byte.b	%00000000
   8034  7326		       00		      .byte.b	%00000000
   8035  7327		       00		      .byte.b	%00000000
   8036  7328		       00		      .byte.b	%00000000
   8037  7329		       00		      .byte.b	%00000000
   8038  732a		       00		      .byte.b	%00000000
   8039  732b		       00		      .byte.b	%00000000
   8040  732c		       00		      .byte.b	%00000000
   8041  732d		       00		      .byte.b	%00000000
   8042  732e		       00		      .byte.b	%00000000
   8043  732f		       00		      .byte.b	%00000000
   8044  7330		       00		      .byte.b	%00000000
   8045  7331		       00		      .byte.b	%00000000
   8046  7332		       00		      .byte.b	%00000000
   8047  7333		       00		      .byte.b	%00000000
   8048  7334		       00		      .byte.b	%00000000
   8049  7335		       00		      .byte.b	%00000000
   8050  7336		       00		      .byte.b	%00000000
   8051  7337		       00		      .byte.b	%00000000
   8052  7338		       00		      .byte.b	%00000000
   8053  7339		       00		      .byte.b	%00000000
   8054  733a		       00		      .byte.b	%00000000
   8055  733b		       00		      .byte.b	%00000000
   8056  733c		       00		      .byte.b	%00000000
   8057  733d		       00		      .byte.b	%00000000
   8058  733e		       00		      .byte.b	%00000000
   8059  733f		       00		      .byte.b	%00000000
   8060  7340		       00		      .byte.b	%00000000
   8061  7341		       00		      .byte.b	%00000000
   8062  7342		       00		      .byte.b	%00000000
   8063  7343		       00		      .byte.b	%00000000
   8064  7344		       00		      .byte.b	%00000000
   8065  7345		       00		      .byte.b	%00000000
   8066  7346		       00		      .byte.b	%00000000
   8067  7347		       00		      .byte.b	%00000000
   8068  7348		       00		      .byte.b	%00000000
   8069  7349		       00		      .byte.b	%00000000
   8070  734a		       00		      .byte.b	%00000000
   8071  734b		       00		      .byte.b	%00000000
   8072  734c		       00		      .byte.b	%00000000
   8073  734d		       00		      .byte.b	%00000000
   8074  734e		       00		      .byte.b	%00000000
   8075  734f		       00		      .byte.b	%00000000
   8076  7350		       00		      .byte.b	%00000000
   8077  7351		       00		      .byte.b	%00000000
   8078  7352		       00		      .byte.b	%00000000
   8079  7353		       00		      .byte.b	%00000000
   8080  7354		       00		      .byte.b	%00000000
   8081  7355		       00		      .byte.b	%00000000
   8082  7356		       00		      .byte.b	%00000000
   8083  7357		       00		      .byte.b	%00000000
   8084  7358		       00		      .byte.b	%00000000
   8085  7359		       00		      .byte.b	%00000000
   8086  735a		       00		      .byte.b	%00000000
   8087  735b		       00		      .byte.b	%00000000
   8088  735c		       00		      .byte.b	%00000000
   8089  735d		       00		      .byte.b	%00000000
   8090  735e		       00		      .byte.b	%00000000
   8091  735f		       00		      .byte.b	%00000000
   8092  7360				   playfieldcolorL0435
   8093  7360		       c2		      .byte.b	_C2
   8094  7361		       c2		      .byte.b	_C2
   8095  7362		       00		      .byte.b	_00
   8096  7363		       00		      .byte.b	_00
   8097  7364		       00		      .byte.b	_00
   8098  7365		       00		      .byte.b	_00
   8099  7366		       00		      .byte.b	_00
   8100  7367		       00		      .byte.b	_00
   8101  7368		       00		      .byte.b	_00
   8102  7369		       00		      .byte.b	_00
   8103  736a		       00		      .byte.b	_00
   8104  736b		       00		      .byte.b	_00
   8105  736c		       00		      .byte.b	_00
   8106  736d		       00		      .byte.b	_00
   8107  736e		       00		      .byte.b	_00
   8108  736f		       00		      .byte.b	_00
   8109  7370		       00		      .byte.b	_00
   8110  7371		       00		      .byte.b	_00
   8111  7372		       00		      .byte.b	_00
   8112  7373		       00		      .byte.b	_00
   8113  7374		       00		      .byte.b	_00
   8114  7375		       00		      .byte.b	_00
   8115  7376		       00		      .byte.b	_00
   8116  7377		       00		      .byte.b	_00
   8117  7378		       00		      .byte.b	_00
   8118  7379		       00		      .byte.b	_00
   8119  737a		       00		      .byte.b	_00
   8120  737b		       00		      .byte.b	_00
   8121  737c		       00		      .byte.b	_00
   8122  737d		       00		      .byte.b	_00
   8123  737e		       00		      .byte.b	_00
   8124  737f		       00		      .byte.b	_00
   8125  7380		       00		      .byte.b	_00
   8126  7381		       00		      .byte.b	_00
   8127  7382		       00		      .byte.b	_00
   8128  7383		       00		      .byte.b	_00
   8129  7384		       00		      .byte.b	_00
   8130  7385		       00		      .byte.b	_00
   8131  7386		       00		      .byte.b	_00
   8132  7387		       00		      .byte.b	_00
   8133  7388		       00		      .byte.b	_00
   8134  7389		       00		      .byte.b	_00
   8135  738a		       00		      .byte.b	_00
   8136  738b		       00		      .byte.b	_00
   8137  738c		       00		      .byte.b	_00
   8138  738d		       00		      .byte.b	_00
   8139  738e		       00		      .byte.b	_00
   8140  738f		       00		      .byte.b	_00
   8141  7390		       00		      .byte.b	_00
   8142  7391		       00		      .byte.b	_00
   8143  7392		       00		      .byte.b	_00
   8144  7393		       00		      .byte.b	_00
   8145  7394		       00		      .byte.b	_00
   8146  7395		       00		      .byte.b	_00
   8147  7396		       00		      .byte.b	_00
   8148  7397		       00		      .byte.b	_00
   8149  7398		       00		      .byte.b	_00
   8150  7399		       00		      .byte.b	_00
   8151  739a		       00		      .byte.b	_00
   8152  739b		       00		      .byte.b	_00
   8153  739c		       00		      .byte.b	_00
   8154  739d		       00		      .byte.b	_00
   8155  739e		       f2		      .byte.b	_F2
   8156  739f		       f2		      .byte.b	_F2
   8157  73a0		       f2		      .byte.b	_F2
   8158  73a1		       f2		      .byte.b	_F2
   8159  73a2		       f2		      .byte.b	_F2
   8160  73a3		       f2		      .byte.b	_F2
   8161  73a4		       f2		      .byte.b	_F2
   8162  73a5		       f2		      .byte.b	_F2
   8163  73a6		       f2		      .byte.b	_F2
   8164  73a7		       f2		      .byte.b	_F2
   8165  73a8		       f2		      .byte.b	_F2
   8166  73a9		       f2		      .byte.b	_F2
   8167  73aa		       f2		      .byte.b	_F2
   8168  73ab		       f2		      .byte.b	_F2
   8169  73ac		       f2		      .byte.b	_F2
   8170  73ad		       f2		      .byte.b	_F2
   8171  73ae		       f2		      .byte.b	_F2
   8172  73af		       f2		      .byte.b	_F2
   8173  73b0		       f2		      .byte.b	_F2
   8174  73b1		       f2		      .byte.b	_F2
   8175  73b2		       f2		      .byte.b	_F2
   8176  73b3		       f2		      .byte.b	_F2
   8177  73b4		       f2		      .byte.b	_F2
   8178  73b5		       f2		      .byte.b	_F2
   8179  73b6		       00		      .byte.b	_00
   8180  73b7		       00		      .byte.b	_00
   8181  73b8				   playfieldcolorL0438
   8182  73b8		       c2		      .byte.b	_C2
   8183  73b9		       c2		      .byte.b	_C2
   8184  73ba		       00		      .byte.b	_00
   8185  73bb		       00		      .byte.b	_00
   8186  73bc		       00		      .byte.b	_00
   8187  73bd		       00		      .byte.b	_00
   8188  73be		       00		      .byte.b	_00
   8189  73bf		       00		      .byte.b	_00
   8190  73c0		       00		      .byte.b	_00
   8191  73c1		       00		      .byte.b	_00
   8192  73c2		       00		      .byte.b	_00
   8193  73c3		       00		      .byte.b	_00
   8194  73c4		       00		      .byte.b	_00
   8195  73c5		       00		      .byte.b	_00
   8196  73c6		       00		      .byte.b	_00
   8197  73c7		       00		      .byte.b	_00
   8198  73c8		       00		      .byte.b	_00
   8199  73c9		       00		      .byte.b	_00
   8200  73ca		       00		      .byte.b	_00
   8201  73cb		       00		      .byte.b	_00
   8202  73cc		       00		      .byte.b	_00
   8203  73cd		       00		      .byte.b	_00
   8204  73ce		       00		      .byte.b	_00
   8205  73cf		       00		      .byte.b	_00
   8206  73d0		       00		      .byte.b	_00
   8207  73d1		       00		      .byte.b	_00
   8208  73d2		       00		      .byte.b	_00
   8209  73d3		       00		      .byte.b	_00
   8210  73d4		       00		      .byte.b	_00
   8211  73d5		       00		      .byte.b	_00
   8212  73d6		       00		      .byte.b	_00
   8213  73d7		       00		      .byte.b	_00
   8214  73d8		       00		      .byte.b	_00
   8215  73d9		       00		      .byte.b	_00
   8216  73da		       00		      .byte.b	_00
   8217  73db		       00		      .byte.b	_00
   8218  73dc		       00		      .byte.b	_00
   8219  73dd		       00		      .byte.b	_00
   8220  73de		       00		      .byte.b	_00
   8221  73df		       00		      .byte.b	_00
   8222  73e0		       00		      .byte.b	_00
   8223  73e1		       00		      .byte.b	_00
   8224  73e2		       00		      .byte.b	_00
   8225  73e3		       00		      .byte.b	_00
   8226  73e4		       00		      .byte.b	_00
   8227  73e5		       00		      .byte.b	_00
   8228  73e6		       00		      .byte.b	_00
   8229  73e7		       00		      .byte.b	_00
   8230  73e8		       00		      .byte.b	_00
   8231  73e9		       00		      .byte.b	_00
   8232  73ea		       00		      .byte.b	_00
   8233  73eb		       00		      .byte.b	_00
   8234  73ec		       00		      .byte.b	_00
   8235  73ed		       00		      .byte.b	_00
   8236  73ee		       00		      .byte.b	_00
   8237  73ef		       34		      .byte.b	_34
   8238  73f0		       34		      .byte.b	_34
   8239  73f1		       34		      .byte.b	_34
   8240  73f2		       34		      .byte.b	_34
   8241  73f3		       34		      .byte.b	_34
   8242  73f4		       34		      .byte.b	_34
   8243  73f5		       34		      .byte.b	_34
   8244  73f6		       34		      .byte.b	_34
   8245  73f7		       34		      .byte.b	_34
   8246  73f8		       f2		      .byte.b	_F2
   8247  73f9		       f2		      .byte.b	_F2
   8248  73fa		       f2		      .byte.b	_F2
   8249  73fb		       f2		      .byte.b	_F2
   8250  73fc		       f2		      .byte.b	_F2
   8251  73fd		       f2		      .byte.b	_F2
   8252  73fe		       f2		      .byte.b	_F2
   8253  73ff		       f2		      .byte.b	_F2
   8254  7400		       f2		      .byte.b	_F2
   8255  7401		       f2		      .byte.b	_F2
   8256  7402		       f2		      .byte.b	_F2
   8257  7403		       f2		      .byte.b	_F2
   8258  7404		       f2		      .byte.b	_F2
   8259  7405		       f2		      .byte.b	_F2
   8260  7406		       f2		      .byte.b	_F2
   8261  7407		       f2		      .byte.b	_F2
   8262  7408		       f2		      .byte.b	_F2
   8263  7409		       f2		      .byte.b	_F2
   8264  740a		       f2		      .byte.b	_F2
   8265  740b		       f2		      .byte.b	_F2
   8266  740c		       f2		      .byte.b	_F2
   8267  740d		       f2		      .byte.b	_F2
   8268  740e		       00		      .byte.b	_00
   8269  740f		       00		      .byte.b	_00
   8270  7410				   playfieldcolorL0441
   8271  7410		       c2		      .byte.b	_C2
   8272  7411		       c2		      .byte.b	_C2
   8273  7412		       00		      .byte.b	_00
   8274  7413		       00		      .byte.b	_00
   8275  7414		       00		      .byte.b	_00
   8276  7415		       00		      .byte.b	_00
   8277  7416		       00		      .byte.b	_00
   8278  7417		       00		      .byte.b	_00
   8279  7418		       00		      .byte.b	_00
   8280  7419		       00		      .byte.b	_00
   8281  741a		       00		      .byte.b	_00
   8282  741b		       00		      .byte.b	_00
   8283  741c		       00		      .byte.b	_00
   8284  741d		       00		      .byte.b	_00
   8285  741e		       00		      .byte.b	_00
   8286  741f		       00		      .byte.b	_00
   8287  7420		       00		      .byte.b	_00
   8288  7421		       00		      .byte.b	_00
   8289  7422		       00		      .byte.b	_00
   8290  7423		       00		      .byte.b	_00
   8291  7424		       00		      .byte.b	_00
   8292  7425		       00		      .byte.b	_00
   8293  7426		       00		      .byte.b	_00
   8294  7427		       00		      .byte.b	_00
   8295  7428		       00		      .byte.b	_00
   8296  7429		       00		      .byte.b	_00
   8297  742a		       00		      .byte.b	_00
   8298  742b		       00		      .byte.b	_00
   8299  742c		       00		      .byte.b	_00
   8300  742d		       00		      .byte.b	_00
   8301  742e		       00		      .byte.b	_00
   8302  742f		       00		      .byte.b	_00
   8303  7430		       00		      .byte.b	_00
   8304  7431		       00		      .byte.b	_00
   8305  7432		       00		      .byte.b	_00
   8306  7433		       00		      .byte.b	_00
   8307  7434		       00		      .byte.b	_00
   8308  7435		       00		      .byte.b	_00
   8309  7436		       00		      .byte.b	_00
   8310  7437		       00		      .byte.b	_00
   8311  7438		       00		      .byte.b	_00
   8312  7439		       00		      .byte.b	_00
   8313  743a		       00		      .byte.b	_00
   8314  743b		       00		      .byte.b	_00
   8315  743c		       00		      .byte.b	_00
   8316  743d		       00		      .byte.b	_00
   8317  743e		       00		      .byte.b	_00
   8318  743f		       00		      .byte.b	_00
   8319  7440		       00		      .byte.b	_00
   8320  7441		       00		      .byte.b	_00
   8321  7442		       00		      .byte.b	_00
   8322  7443		       00		      .byte.b	_00
   8323  7444		       00		      .byte.b	_00
   8324  7445		       00		      .byte.b	_00
   8325  7446		       00		      .byte.b	_00
   8326  7447		       34		      .byte.b	_34
   8327  7448		       34		      .byte.b	_34
   8328  7449		       34		      .byte.b	_34
   8329  744a		       34		      .byte.b	_34
   8330  744b		       34		      .byte.b	_34
   8331  744c		       34		      .byte.b	_34
   8332  744d		       34		      .byte.b	_34
   8333  744e		       34		      .byte.b	_34
   8334  744f		       34		      .byte.b	_34
   8335  7450		       f2		      .byte.b	_F2
   8336  7451		       f2		      .byte.b	_F2
   8337  7452		       f2		      .byte.b	_F2
   8338  7453		       f2		      .byte.b	_F2
   8339  7454		       f2		      .byte.b	_F2
   8340  7455		       f2		      .byte.b	_F2
   8341  7456		       f2		      .byte.b	_F2
   8342  7457		       f2		      .byte.b	_F2
   8343  7458		       f2		      .byte.b	_F2
   8344  7459		       f2		      .byte.b	_F2
   8345  745a		       f2		      .byte.b	_F2
   8346  745b		       f2		      .byte.b	_F2
   8347  745c		       f2		      .byte.b	_F2
   8348  745d		       f2		      .byte.b	_F2
   8349  745e		       f2		      .byte.b	_F2
   8350  745f		       f2		      .byte.b	_F2
   8351  7460		       f2		      .byte.b	_F2
   8352  7461		       f2		      .byte.b	_F2
   8353  7462		       f2		      .byte.b	_F2
   8354  7463		       f2		      .byte.b	_F2
   8355  7464		       f2		      .byte.b	_F2
   8356  7465		       f2		      .byte.b	_F2
   8357  7466		       00		      .byte.b	_00
   8358  7467		       00		      .byte.b	_00
   8359  7468				   playfieldcolorL0444
   8360  7468		       c2		      .byte.b	_C2
   8361  7469		       c2		      .byte.b	_C2
   8362  746a		       00		      .byte.b	_00
   8363  746b		       00		      .byte.b	_00
   8364  746c		       00		      .byte.b	_00
   8365  746d		       00		      .byte.b	_00
   8366  746e		       00		      .byte.b	_00
   8367  746f		       00		      .byte.b	_00
   8368  7470		       00		      .byte.b	_00
   8369  7471		       00		      .byte.b	_00
   8370  7472		       00		      .byte.b	_00
   8371  7473		       00		      .byte.b	_00
   8372  7474		       00		      .byte.b	_00
   8373  7475		       00		      .byte.b	_00
   8374  7476		       00		      .byte.b	_00
   8375  7477		       00		      .byte.b	_00
   8376  7478		       00		      .byte.b	_00
   8377  7479		       00		      .byte.b	_00
   8378  747a		       00		      .byte.b	_00
   8379  747b		       00		      .byte.b	_00
   8380  747c		       00		      .byte.b	_00
   8381  747d		       00		      .byte.b	_00
   8382  747e		       00		      .byte.b	_00
   8383  747f		       00		      .byte.b	_00
   8384  7480		       00		      .byte.b	_00
   8385  7481		       00		      .byte.b	_00
   8386  7482		       00		      .byte.b	_00
   8387  7483		       00		      .byte.b	_00
   8388  7484		       00		      .byte.b	_00
   8389  7485		       00		      .byte.b	_00
   8390  7486		       00		      .byte.b	_00
   8391  7487		       00		      .byte.b	_00
   8392  7488		       00		      .byte.b	_00
   8393  7489		       00		      .byte.b	_00
   8394  748a		       00		      .byte.b	_00
   8395  748b		       00		      .byte.b	_00
   8396  748c		       00		      .byte.b	_00
   8397  748d		       00		      .byte.b	_00
   8398  748e		       00		      .byte.b	_00
   8399  748f		       00		      .byte.b	_00
   8400  7490		       00		      .byte.b	_00
   8401  7491		       00		      .byte.b	_00
   8402  7492		       00		      .byte.b	_00
   8403  7493		       00		      .byte.b	_00
   8404  7494		       00		      .byte.b	_00
   8405  7495		       00		      .byte.b	_00
   8406  7496		       00		      .byte.b	_00
   8407  7497		       00		      .byte.b	_00
   8408  7498		       00		      .byte.b	_00
   8409  7499		       00		      .byte.b	_00
   8410  749a		       00		      .byte.b	_00
   8411  749b		       00		      .byte.b	_00
   8412  749c		       00		      .byte.b	_00
   8413  749d		       00		      .byte.b	_00
   8414  749e		       00		      .byte.b	_00
   8415  749f		       34		      .byte.b	_34
   8416  74a0		       34		      .byte.b	_34
   8417  74a1		       34		      .byte.b	_34
   8418  74a2		       34		      .byte.b	_34
   8419  74a3		       34		      .byte.b	_34
   8420  74a4		       34		      .byte.b	_34
   8421  74a5		       34		      .byte.b	_34
   8422  74a6		       34		      .byte.b	_34
   8423  74a7		       34		      .byte.b	_34
   8424  74a8		       f2		      .byte.b	_F2
   8425  74a9		       f2		      .byte.b	_F2
   8426  74aa		       f2		      .byte.b	_F2
   8427  74ab		       f2		      .byte.b	_F2
   8428  74ac		       f2		      .byte.b	_F2
   8429  74ad		       f2		      .byte.b	_F2
   8430  74ae		       f2		      .byte.b	_F2
   8431  74af		       f2		      .byte.b	_F2
   8432  74b0		       f2		      .byte.b	_F2
   8433  74b1		       f2		      .byte.b	_F2
   8434  74b2		       f2		      .byte.b	_F2
   8435  74b3		       f2		      .byte.b	_F2
   8436  74b4		       f2		      .byte.b	_F2
   8437  74b5		       f2		      .byte.b	_F2
   8438  74b6		       f2		      .byte.b	_F2
   8439  74b7		       f2		      .byte.b	_F2
   8440  74b8		       f2		      .byte.b	_F2
   8441  74b9		       f2		      .byte.b	_F2
   8442  74ba		       f2		      .byte.b	_F2
   8443  74bb		       f2		      .byte.b	_F2
   8444  74bc		       f2		      .byte.b	_F2
   8445  74bd		       f2		      .byte.b	_F2
   8446  74be		       00		      .byte.b	_00
   8447  74bf		       00		      .byte.b	_00
   8448  74c0				   playfieldcolorL0448
   8449  74c0		       c2		      .byte.b	_C2
   8450  74c1		       c2		      .byte.b	_C2
   8451  74c2		       00		      .byte.b	_00
   8452  74c3		       00		      .byte.b	_00
   8453  74c4		       00		      .byte.b	_00
   8454  74c5		       00		      .byte.b	_00
   8455  74c6		       00		      .byte.b	_00
   8456  74c7		       00		      .byte.b	_00
   8457  74c8		       00		      .byte.b	_00
   8458  74c9		       00		      .byte.b	_00
   8459  74ca		       00		      .byte.b	_00
   8460  74cb		       00		      .byte.b	_00
   8461  74cc		       00		      .byte.b	_00
   8462  74cd		       00		      .byte.b	_00
   8463  74ce		       00		      .byte.b	_00
   8464  74cf		       00		      .byte.b	_00
   8465  74d0		       00		      .byte.b	_00
   8466  74d1		       00		      .byte.b	_00
   8467  74d2		       00		      .byte.b	_00
   8468  74d3		       00		      .byte.b	_00
   8469  74d4		       00		      .byte.b	_00
   8470  74d5		       00		      .byte.b	_00
   8471  74d6		       00		      .byte.b	_00
   8472  74d7		       00		      .byte.b	_00
   8473  74d8		       00		      .byte.b	_00
   8474  74d9		       00		      .byte.b	_00
   8475  74da		       00		      .byte.b	_00
   8476  74db		       00		      .byte.b	_00
   8477  74dc		       00		      .byte.b	_00
   8478  74dd		       00		      .byte.b	_00
   8479  74de		       00		      .byte.b	_00
   8480  74df		       00		      .byte.b	_00
   8481  74e0		       00		      .byte.b	_00
   8482  74e1		       00		      .byte.b	_00
   8483  74e2		       00		      .byte.b	_00
   8484  74e3		       00		      .byte.b	_00
   8485  74e4		       00		      .byte.b	_00
   8486  74e5		       00		      .byte.b	_00
   8487  74e6		       00		      .byte.b	_00
   8488  74e7		       00		      .byte.b	_00
   8489  74e8		       00		      .byte.b	_00
   8490  74e9		       00		      .byte.b	_00
   8491  74ea		       00		      .byte.b	_00
   8492  74eb		       00		      .byte.b	_00
   8493  74ec		       00		      .byte.b	_00
   8494  74ed		       00		      .byte.b	_00
   8495  74ee		       00		      .byte.b	_00
   8496  74ef		       00		      .byte.b	_00
   8497  74f0		       00		      .byte.b	_00
   8498  74f1		       00		      .byte.b	_00
   8499  74f2		       00		      .byte.b	_00
   8500  74f3		       00		      .byte.b	_00
   8501  74f4		       00		      .byte.b	_00
   8502  74f5		       00		      .byte.b	_00
   8503  74f6		       00		      .byte.b	_00
   8504  74f7		       34		      .byte.b	_34
   8505  74f8		       34		      .byte.b	_34
   8506  74f9		       34		      .byte.b	_34
   8507  74fa		       34		      .byte.b	_34
   8508  74fb		       34		      .byte.b	_34
   8509  74fc		       34		      .byte.b	_34
   8510  74fd		       34		      .byte.b	_34
   8511  74fe		       34		      .byte.b	_34
   8512  74ff		       34		      .byte.b	_34
   8513  7500		       34		      .byte.b	_34
   8514  7501		       34		      .byte.b	_34
   8515  7502		       34		      .byte.b	_34
   8516  7503		       f2		      .byte.b	_F2
   8517  7504		       f2		      .byte.b	_F2
   8518  7505		       f2		      .byte.b	_F2
   8519  7506		       f2		      .byte.b	_F2
   8520  7507		       f2		      .byte.b	_F2
   8521  7508		       f2		      .byte.b	_F2
   8522  7509		       f2		      .byte.b	_F2
   8523  750a		       f2		      .byte.b	_F2
   8524  750b		       f2		      .byte.b	_F2
   8525  750c		       f2		      .byte.b	_F2
   8526  750d		       f2		      .byte.b	_F2
   8527  750e		       f2		      .byte.b	_F2
   8528  750f		       f2		      .byte.b	_F2
   8529  7510		       f2		      .byte.b	_F2
   8530  7511		       f2		      .byte.b	_F2
   8531  7512		       f2		      .byte.b	_F2
   8532  7513		       f2		      .byte.b	_F2
   8533  7514		       f2		      .byte.b	_F2
   8534  7515		       f2		      .byte.b	_F2
   8535  7516		       00		      .byte.b	_00
   8536  7517		       00		      .byte.b	_00
   8537  7518				   playfieldcolorL0451
   8538  7518		       c2		      .byte.b	_C2
   8539  7519		       c2		      .byte.b	_C2
   8540  751a		       00		      .byte.b	_00
   8541  751b		       00		      .byte.b	_00
   8542  751c		       00		      .byte.b	_00
   8543  751d		       00		      .byte.b	_00
   8544  751e		       00		      .byte.b	_00
   8545  751f		       00		      .byte.b	_00
   8546  7520		       00		      .byte.b	_00
   8547  7521		       00		      .byte.b	_00
   8548  7522		       00		      .byte.b	_00
   8549  7523		       00		      .byte.b	_00
   8550  7524		       00		      .byte.b	_00
   8551  7525		       00		      .byte.b	_00
   8552  7526		       00		      .byte.b	_00
   8553  7527		       00		      .byte.b	_00
   8554  7528		       00		      .byte.b	_00
   8555  7529		       00		      .byte.b	_00
   8556  752a		       00		      .byte.b	_00
   8557  752b		       00		      .byte.b	_00
   8558  752c		       00		      .byte.b	_00
   8559  752d		       00		      .byte.b	_00
   8560  752e		       00		      .byte.b	_00
   8561  752f		       00		      .byte.b	_00
   8562  7530		       00		      .byte.b	_00
   8563  7531		       00		      .byte.b	_00
   8564  7532		       00		      .byte.b	_00
   8565  7533		       00		      .byte.b	_00
   8566  7534		       00		      .byte.b	_00
   8567  7535		       00		      .byte.b	_00
   8568  7536		       00		      .byte.b	_00
   8569  7537		       00		      .byte.b	_00
   8570  7538		       00		      .byte.b	_00
   8571  7539		       00		      .byte.b	_00
   8572  753a		       00		      .byte.b	_00
   8573  753b		       00		      .byte.b	_00
   8574  753c		       00		      .byte.b	_00
   8575  753d		       00		      .byte.b	_00
   8576  753e		       00		      .byte.b	_00
   8577  753f		       00		      .byte.b	_00
   8578  7540		       00		      .byte.b	_00
   8579  7541		       00		      .byte.b	_00
   8580  7542		       00		      .byte.b	_00
   8581  7543		       00		      .byte.b	_00
   8582  7544		       00		      .byte.b	_00
   8583  7545		       00		      .byte.b	_00
   8584  7546		       00		      .byte.b	_00
   8585  7547		       00		      .byte.b	_00
   8586  7548		       00		      .byte.b	_00
   8587  7549		       00		      .byte.b	_00
   8588  754a		       00		      .byte.b	_00
   8589  754b		       00		      .byte.b	_00
   8590  754c		       00		      .byte.b	_00
   8591  754d		       00		      .byte.b	_00
   8592  754e		       00		      .byte.b	_00
   8593  754f		       34		      .byte.b	_34
   8594  7550		       34		      .byte.b	_34
   8595  7551		       34		      .byte.b	_34
   8596  7552		       34		      .byte.b	_34
   8597  7553		       34		      .byte.b	_34
   8598  7554		       34		      .byte.b	_34
   8599  7555		       34		      .byte.b	_34
   8600  7556		       34		      .byte.b	_34
   8601  7557		       34		      .byte.b	_34
   8602  7558		       34		      .byte.b	_34
   8603  7559		       34		      .byte.b	_34
   8604  755a		       34		      .byte.b	_34
   8605  755b		       34		      .byte.b	_34
   8606  755c		       34		      .byte.b	_34
   8607  755d		       34		      .byte.b	_34
   8608  755e		       f2		      .byte.b	_F2
   8609  755f		       f2		      .byte.b	_F2
   8610  7560		       f2		      .byte.b	_F2
   8611  7561		       f2		      .byte.b	_F2
   8612  7562		       f2		      .byte.b	_F2
   8613  7563		       f2		      .byte.b	_F2
   8614  7564		       f2		      .byte.b	_F2
   8615  7565		       f2		      .byte.b	_F2
   8616  7566		       f2		      .byte.b	_F2
   8617  7567		       f2		      .byte.b	_F2
   8618  7568		       f2		      .byte.b	_F2
   8619  7569		       f2		      .byte.b	_F2
   8620  756a		       f2		      .byte.b	_F2
   8621  756b		       f2		      .byte.b	_F2
   8622  756c		       f2		      .byte.b	_F2
   8623  756d		       f2		      .byte.b	_F2
   8624  756e		       00		      .byte.b	_00
   8625  756f		       00		      .byte.b	_00
   8626  7570				   playfieldcolorL0453
   8627  7570		       c2		      .byte.b	_C2
   8628  7571		       c2		      .byte.b	_C2
   8629  7572		       00		      .byte.b	_00
   8630  7573		       00		      .byte.b	_00
   8631  7574		       00		      .byte.b	_00
   8632  7575		       00		      .byte.b	_00
   8633  7576		       00		      .byte.b	_00
   8634  7577		       00		      .byte.b	_00
   8635  7578		       00		      .byte.b	_00
   8636  7579		       00		      .byte.b	_00
   8637  757a		       00		      .byte.b	_00
   8638  757b		       00		      .byte.b	_00
   8639  757c		       00		      .byte.b	_00
   8640  757d		       00		      .byte.b	_00
   8641  757e		       00		      .byte.b	_00
   8642  757f		       00		      .byte.b	_00
   8643  7580		       00		      .byte.b	_00
   8644  7581		       00		      .byte.b	_00
   8645  7582		       00		      .byte.b	_00
   8646  7583		       00		      .byte.b	_00
   8647  7584		       00		      .byte.b	_00
   8648  7585		       00		      .byte.b	_00
   8649  7586		       00		      .byte.b	_00
   8650  7587		       00		      .byte.b	_00
   8651  7588		       00		      .byte.b	_00
   8652  7589		       00		      .byte.b	_00
   8653  758a		       00		      .byte.b	_00
   8654  758b		       00		      .byte.b	_00
   8655  758c		       00		      .byte.b	_00
   8656  758d		       00		      .byte.b	_00
   8657  758e		       00		      .byte.b	_00
   8658  758f		       00		      .byte.b	_00
   8659  7590		       00		      .byte.b	_00
   8660  7591		       00		      .byte.b	_00
   8661  7592		       00		      .byte.b	_00
   8662  7593		       00		      .byte.b	_00
   8663  7594		       00		      .byte.b	_00
   8664  7595		       00		      .byte.b	_00
   8665  7596		       00		      .byte.b	_00
   8666  7597		       00		      .byte.b	_00
   8667  7598		       00		      .byte.b	_00
   8668  7599		       00		      .byte.b	_00
   8669  759a		       00		      .byte.b	_00
   8670  759b		       00		      .byte.b	_00
   8671  759c		       00		      .byte.b	_00
   8672  759d		       00		      .byte.b	_00
   8673  759e		       00		      .byte.b	_00
   8674  759f		       00		      .byte.b	_00
   8675  75a0		       00		      .byte.b	_00
   8676  75a1		       00		      .byte.b	_00
   8677  75a2		       00		      .byte.b	_00
   8678  75a3		       00		      .byte.b	_00
   8679  75a4		       00		      .byte.b	_00
   8680  75a5		       00		      .byte.b	_00
   8681  75a6		       00		      .byte.b	_00
   8682  75a7		       34		      .byte.b	_34
   8683  75a8		       34		      .byte.b	_34
   8684  75a9		       34		      .byte.b	_34
   8685  75aa		       34		      .byte.b	_34
   8686  75ab		       34		      .byte.b	_34
   8687  75ac		       34		      .byte.b	_34
   8688  75ad		       34		      .byte.b	_34
   8689  75ae		       34		      .byte.b	_34
   8690  75af		       34		      .byte.b	_34
   8691  75b0		       34		      .byte.b	_34
   8692  75b1		       34		      .byte.b	_34
   8693  75b2		       34		      .byte.b	_34
   8694  75b3		       34		      .byte.b	_34
   8695  75b4		       34		      .byte.b	_34
   8696  75b5		       34		      .byte.b	_34
   8697  75b6		       34		      .byte.b	_34
   8698  75b7		       34		      .byte.b	_34
   8699  75b8		       34		      .byte.b	_34
   8700  75b9		       f2		      .byte.b	_F2
   8701  75ba		       f2		      .byte.b	_F2
   8702  75bb		       f2		      .byte.b	_F2
   8703  75bc		       f2		      .byte.b	_F2
   8704  75bd		       f2		      .byte.b	_F2
   8705  75be		       f2		      .byte.b	_F2
   8706  75bf		       f2		      .byte.b	_F2
   8707  75c0		       f2		      .byte.b	_F2
   8708  75c1		       f2		      .byte.b	_F2
   8709  75c2		       f2		      .byte.b	_F2
   8710  75c3		       f2		      .byte.b	_F2
   8711  75c4		       f2		      .byte.b	_F2
   8712  75c5		       f2		      .byte.b	_F2
   8713  75c6		       00		      .byte.b	_00
   8714  75c7		       00		      .byte.b	_00
   8715  75c8				   playfieldcolorL0457
   8716  75c8		       c2		      .byte.b	_C2
   8717  75c9		       c2		      .byte.b	_C2
   8718  75ca		       00		      .byte.b	_00
   8719  75cb		       00		      .byte.b	_00
   8720  75cc		       00		      .byte.b	_00
   8721  75cd		       00		      .byte.b	_00
   8722  75ce		       00		      .byte.b	_00
   8723  75cf		       00		      .byte.b	_00
   8724  75d0		       00		      .byte.b	_00
   8725  75d1		       00		      .byte.b	_00
   8726  75d2		       00		      .byte.b	_00
   8727  75d3		       00		      .byte.b	_00
   8728  75d4		       00		      .byte.b	_00
   8729  75d5		       00		      .byte.b	_00
   8730  75d6		       00		      .byte.b	_00
   8731  75d7		       00		      .byte.b	_00
   8732  75d8		       00		      .byte.b	_00
   8733  75d9		       00		      .byte.b	_00
   8734  75da		       00		      .byte.b	_00
   8735  75db		       00		      .byte.b	_00
   8736  75dc		       00		      .byte.b	_00
   8737  75dd		       00		      .byte.b	_00
   8738  75de		       00		      .byte.b	_00
   8739  75df		       00		      .byte.b	_00
   8740  75e0		       00		      .byte.b	_00
   8741  75e1		       00		      .byte.b	_00
   8742  75e2		       00		      .byte.b	_00
   8743  75e3		       00		      .byte.b	_00
   8744  75e4		       00		      .byte.b	_00
   8745  75e5		       00		      .byte.b	_00
   8746  75e6		       00		      .byte.b	_00
   8747  75e7		       00		      .byte.b	_00
   8748  75e8		       00		      .byte.b	_00
   8749  75e9		       00		      .byte.b	_00
   8750  75ea		       00		      .byte.b	_00
   8751  75eb		       00		      .byte.b	_00
   8752  75ec		       00		      .byte.b	_00
   8753  75ed		       00		      .byte.b	_00
   8754  75ee		       00		      .byte.b	_00
   8755  75ef		       00		      .byte.b	_00
   8756  75f0		       00		      .byte.b	_00
   8757  75f1		       00		      .byte.b	_00
   8758  75f2		       00		      .byte.b	_00
   8759  75f3		       00		      .byte.b	_00
   8760  75f4		       00		      .byte.b	_00
   8761  75f5		       00		      .byte.b	_00
   8762  75f6		       00		      .byte.b	_00
   8763  75f7		       00		      .byte.b	_00
   8764  75f8		       00		      .byte.b	_00
   8765  75f9		       00		      .byte.b	_00
   8766  75fa		       00		      .byte.b	_00
   8767  75fb		       00		      .byte.b	_00
   8768  75fc		       00		      .byte.b	_00
   8769  75fd		       00		      .byte.b	_00
   8770  75fe		       00		      .byte.b	_00
   8771  75ff		       40		      .byte.b	_40
   8772  7600		       40		      .byte.b	_40
   8773  7601		       40		      .byte.b	_40
   8774  7602		       40		      .byte.b	_40
   8775  7603		       40		      .byte.b	_40
   8776  7604		       40		      .byte.b	_40
   8777  7605		       40		      .byte.b	_40
   8778  7606		       40		      .byte.b	_40
   8779  7607		       40		      .byte.b	_40
   8780  7608		       40		      .byte.b	_40
   8781  7609		       40		      .byte.b	_40
   8782  760a		       40		      .byte.b	_40
   8783  760b		       40		      .byte.b	_40
   8784  760c		       40		      .byte.b	_40
   8785  760d		       40		      .byte.b	_40
   8786  760e		       40		      .byte.b	_40
   8787  760f		       40		      .byte.b	_40
   8788  7610		       40		      .byte.b	_40
   8789  7611		       40		      .byte.b	_40
   8790  7612		       40		      .byte.b	_40
   8791  7613		       40		      .byte.b	_40
   8792  7614		       f2		      .byte.b	_F2
   8793  7615		       f2		      .byte.b	_F2
   8794  7616		       f2		      .byte.b	_F2
   8795  7617		       f2		      .byte.b	_F2
   8796  7618		       f2		      .byte.b	_F2
   8797  7619		       f2		      .byte.b	_F2
   8798  761a		       f2		      .byte.b	_F2
   8799  761b		       f2		      .byte.b	_F2
   8800  761c		       f2		      .byte.b	_F2
   8801  761d		       f2		      .byte.b	_F2
   8802  761e		       00		      .byte.b	_00
   8803  761f		       00		      .byte.b	_00
   8804  7620				   playfieldcolorL0459
   8805  7620		       c2		      .byte.b	_C2
   8806  7621		       c2		      .byte.b	_C2
   8807  7622		       00		      .byte.b	_00
   8808  7623		       00		      .byte.b	_00
   8809  7624		       00		      .byte.b	_00
   8810  7625		       00		      .byte.b	_00
   8811  7626		       00		      .byte.b	_00
   8812  7627		       00		      .byte.b	_00
   8813  7628		       00		      .byte.b	_00
   8814  7629		       00		      .byte.b	_00
   8815  762a		       00		      .byte.b	_00
   8816  762b		       00		      .byte.b	_00
   8817  762c		       00		      .byte.b	_00
   8818  762d		       00		      .byte.b	_00
   8819  762e		       00		      .byte.b	_00
   8820  762f		       00		      .byte.b	_00
   8821  7630		       00		      .byte.b	_00
   8822  7631		       00		      .byte.b	_00
   8823  7632		       00		      .byte.b	_00
   8824  7633		       00		      .byte.b	_00
   8825  7634		       00		      .byte.b	_00
   8826  7635		       00		      .byte.b	_00
   8827  7636		       00		      .byte.b	_00
   8828  7637		       00		      .byte.b	_00
   8829  7638		       00		      .byte.b	_00
   8830  7639		       00		      .byte.b	_00
   8831  763a		       00		      .byte.b	_00
   8832  763b		       00		      .byte.b	_00
   8833  763c		       00		      .byte.b	_00
   8834  763d		       00		      .byte.b	_00
   8835  763e		       00		      .byte.b	_00
   8836  763f		       00		      .byte.b	_00
   8837  7640		       00		      .byte.b	_00
   8838  7641		       00		      .byte.b	_00
   8839  7642		       00		      .byte.b	_00
   8840  7643		       00		      .byte.b	_00
   8841  7644		       00		      .byte.b	_00
   8842  7645		       00		      .byte.b	_00
   8843  7646		       00		      .byte.b	_00
   8844  7647		       00		      .byte.b	_00
   8845  7648		       00		      .byte.b	_00
   8846  7649		       00		      .byte.b	_00
   8847  764a		       00		      .byte.b	_00
   8848  764b		       00		      .byte.b	_00
   8849  764c		       00		      .byte.b	_00
   8850  764d		       00		      .byte.b	_00
   8851  764e		       00		      .byte.b	_00
   8852  764f		       00		      .byte.b	_00
   8853  7650		       00		      .byte.b	_00
   8854  7651		       00		      .byte.b	_00
   8855  7652		       00		      .byte.b	_00
   8856  7653		       00		      .byte.b	_00
   8857  7654		       00		      .byte.b	_00
   8858  7655		       00		      .byte.b	_00
   8859  7656		       00		      .byte.b	_00
   8860  7657		       40		      .byte.b	_40
   8861  7658		       40		      .byte.b	_40
   8862  7659		       40		      .byte.b	_40
   8863  765a		       40		      .byte.b	_40
   8864  765b		       40		      .byte.b	_40
   8865  765c		       40		      .byte.b	_40
   8866  765d		       40		      .byte.b	_40
   8867  765e		       40		      .byte.b	_40
   8868  765f		       40		      .byte.b	_40
   8869  7660		       40		      .byte.b	_40
   8870  7661		       40		      .byte.b	_40
   8871  7662		       40		      .byte.b	_40
   8872  7663		       40		      .byte.b	_40
   8873  7664		       40		      .byte.b	_40
   8874  7665		       40		      .byte.b	_40
   8875  7666		       40		      .byte.b	_40
   8876  7667		       40		      .byte.b	_40
   8877  7668		       40		      .byte.b	_40
   8878  7669		       40		      .byte.b	_40
   8879  766a		       40		      .byte.b	_40
   8880  766b		       40		      .byte.b	_40
   8881  766c		       40		      .byte.b	_40
   8882  766d		       40		      .byte.b	_40
   8883  766e		       40		      .byte.b	_40
   8884  766f		       f2		      .byte.b	_F2
   8885  7670		       f2		      .byte.b	_F2
   8886  7671		       f2		      .byte.b	_F2
   8887  7672		       f2		      .byte.b	_F2
   8888  7673		       f2		      .byte.b	_F2
   8889  7674		       f2		      .byte.b	_F2
   8890  7675		       f2		      .byte.b	_F2
   8891  7676		       00		      .byte.b	_00
   8892  7677		       00		      .byte.b	_00
   8893  7678				   playfieldcolorL0461
   8894  7678		       c2		      .byte.b	_C2
   8895  7679		       c2		      .byte.b	_C2
   8896  767a		       00		      .byte.b	_00
   8897  767b		       00		      .byte.b	_00
   8898  767c		       00		      .byte.b	_00
   8899  767d		       00		      .byte.b	_00
   8900  767e		       00		      .byte.b	_00
   8901  767f		       00		      .byte.b	_00
   8902  7680		       00		      .byte.b	_00
   8903  7681		       00		      .byte.b	_00
   8904  7682		       00		      .byte.b	_00
   8905  7683		       00		      .byte.b	_00
   8906  7684		       00		      .byte.b	_00
   8907  7685		       00		      .byte.b	_00
   8908  7686		       00		      .byte.b	_00
   8909  7687		       00		      .byte.b	_00
   8910  7688		       00		      .byte.b	_00
   8911  7689		       00		      .byte.b	_00
   8912  768a		       00		      .byte.b	_00
   8913  768b		       00		      .byte.b	_00
   8914  768c		       00		      .byte.b	_00
   8915  768d		       00		      .byte.b	_00
   8916  768e		       00		      .byte.b	_00
   8917  768f		       00		      .byte.b	_00
   8918  7690		       00		      .byte.b	_00
   8919  7691		       00		      .byte.b	_00
   8920  7692		       00		      .byte.b	_00
   8921  7693		       00		      .byte.b	_00
   8922  7694		       00		      .byte.b	_00
   8923  7695		       00		      .byte.b	_00
   8924  7696		       00		      .byte.b	_00
   8925  7697		       00		      .byte.b	_00
   8926  7698		       00		      .byte.b	_00
   8927  7699		       00		      .byte.b	_00
   8928  769a		       00		      .byte.b	_00
   8929  769b		       00		      .byte.b	_00
   8930  769c		       00		      .byte.b	_00
   8931  769d		       00		      .byte.b	_00
   8932  769e		       00		      .byte.b	_00
   8933  769f		       00		      .byte.b	_00
   8934  76a0		       00		      .byte.b	_00
   8935  76a1		       00		      .byte.b	_00
   8936  76a2		       00		      .byte.b	_00
   8937  76a3		       00		      .byte.b	_00
   8938  76a4		       00		      .byte.b	_00
   8939  76a5		       00		      .byte.b	_00
   8940  76a6		       00		      .byte.b	_00
   8941  76a7		       00		      .byte.b	_00
   8942  76a8		       00		      .byte.b	_00
   8943  76a9		       00		      .byte.b	_00
   8944  76aa		       00		      .byte.b	_00
   8945  76ab		       00		      .byte.b	_00
   8946  76ac		       00		      .byte.b	_00
   8947  76ad		       00		      .byte.b	_00
   8948  76ae		       00		      .byte.b	_00
   8949  76af		       40		      .byte.b	_40
   8950  76b0		       40		      .byte.b	_40
   8951  76b1		       40		      .byte.b	_40
   8952  76b2		       40		      .byte.b	_40
   8953  76b3		       40		      .byte.b	_40
   8954  76b4		       40		      .byte.b	_40
   8955  76b5		       40		      .byte.b	_40
   8956  76b6		       40		      .byte.b	_40
   8957  76b7		       40		      .byte.b	_40
   8958  76b8		       40		      .byte.b	_40
   8959  76b9		       40		      .byte.b	_40
   8960  76ba		       40		      .byte.b	_40
   8961  76bb		       40		      .byte.b	_40
   8962  76bc		       40		      .byte.b	_40
   8963  76bd		       40		      .byte.b	_40
   8964  76be		       40		      .byte.b	_40
   8965  76bf		       40		      .byte.b	_40
   8966  76c0		       40		      .byte.b	_40
   8967  76c1		       40		      .byte.b	_40
   8968  76c2		       40		      .byte.b	_40
   8969  76c3		       40		      .byte.b	_40
   8970  76c4		       40		      .byte.b	_40
   8971  76c5		       40		      .byte.b	_40
   8972  76c6		       40		      .byte.b	_40
   8973  76c7		       f2		      .byte.b	_F2
   8974  76c8		       f2		      .byte.b	_F2
   8975  76c9		       f2		      .byte.b	_F2
   8976  76ca		       f2		      .byte.b	_F2
   8977  76cb		       f2		      .byte.b	_F2
   8978  76cc		       f2		      .byte.b	_F2
   8979  76cd		       f2		      .byte.b	_F2
   8980  76ce		       00		      .byte.b	_00
   8981  76cf		       00		      .byte.b	_00
   8982  76d0				   playfieldcolorL0463
   8983  76d0		       c2		      .byte.b	_C2
   8984  76d1		       c2		      .byte.b	_C2
   8985  76d2		       00		      .byte.b	_00
   8986  76d3		       00		      .byte.b	_00
   8987  76d4		       00		      .byte.b	_00
   8988  76d5		       00		      .byte.b	_00
   8989  76d6		       00		      .byte.b	_00
   8990  76d7		       00		      .byte.b	_00
   8991  76d8		       00		      .byte.b	_00
   8992  76d9		       00		      .byte.b	_00
   8993  76da		       00		      .byte.b	_00
   8994  76db		       00		      .byte.b	_00
   8995  76dc		       00		      .byte.b	_00
   8996  76dd		       00		      .byte.b	_00
   8997  76de		       00		      .byte.b	_00
   8998  76df		       00		      .byte.b	_00
   8999  76e0		       00		      .byte.b	_00
   9000  76e1		       00		      .byte.b	_00
   9001  76e2		       00		      .byte.b	_00
   9002  76e3		       00		      .byte.b	_00
   9003  76e4		       00		      .byte.b	_00
   9004  76e5		       00		      .byte.b	_00
   9005  76e6		       00		      .byte.b	_00
   9006  76e7		       00		      .byte.b	_00
   9007  76e8		       00		      .byte.b	_00
   9008  76e9		       00		      .byte.b	_00
   9009  76ea		       00		      .byte.b	_00
   9010  76eb		       00		      .byte.b	_00
   9011  76ec		       00		      .byte.b	_00
   9012  76ed		       00		      .byte.b	_00
   9013  76ee		       00		      .byte.b	_00
   9014  76ef		       00		      .byte.b	_00
   9015  76f0		       00		      .byte.b	_00
   9016  76f1		       00		      .byte.b	_00
   9017  76f2		       00		      .byte.b	_00
   9018  76f3		       00		      .byte.b	_00
   9019  76f4		       00		      .byte.b	_00
   9020  76f5		       00		      .byte.b	_00
   9021  76f6		       00		      .byte.b	_00
   9022  76f7		       00		      .byte.b	_00
   9023  76f8		       00		      .byte.b	_00
   9024  76f9		       00		      .byte.b	_00
   9025  76fa		       00		      .byte.b	_00
   9026  76fb		       00		      .byte.b	_00
   9027  76fc		       00		      .byte.b	_00
   9028  76fd		       00		      .byte.b	_00
   9029  76fe		       00		      .byte.b	_00
   9030  76ff		       00		      .byte.b	_00
   9031  7700		       00		      .byte.b	_00
   9032  7701		       00		      .byte.b	_00
   9033  7702		       00		      .byte.b	_00
   9034  7703		       00		      .byte.b	_00
   9035  7704		       00		      .byte.b	_00
   9036  7705		       00		      .byte.b	_00
   9037  7706		       00		      .byte.b	_00
   9038  7707		       40		      .byte.b	_40
   9039  7708		       40		      .byte.b	_40
   9040  7709		       40		      .byte.b	_40
   9041  770a		       40		      .byte.b	_40
   9042  770b		       40		      .byte.b	_40
   9043  770c		       40		      .byte.b	_40
   9044  770d		       40		      .byte.b	_40
   9045  770e		       40		      .byte.b	_40
   9046  770f		       40		      .byte.b	_40
   9047  7710		       40		      .byte.b	_40
   9048  7711		       40		      .byte.b	_40
   9049  7712		       40		      .byte.b	_40
   9050  7713		       40		      .byte.b	_40
   9051  7714		       40		      .byte.b	_40
   9052  7715		       40		      .byte.b	_40
   9053  7716		       40		      .byte.b	_40
   9054  7717		       40		      .byte.b	_40
   9055  7718		       40		      .byte.b	_40
   9056  7719		       40		      .byte.b	_40
   9057  771a		       40		      .byte.b	_40
   9058  771b		       40		      .byte.b	_40
   9059  771c		       40		      .byte.b	_40
   9060  771d		       40		      .byte.b	_40
   9061  771e		       40		      .byte.b	_40
   9062  771f		       40		      .byte.b	_40
   9063  7720		       40		      .byte.b	_40
   9064  7721		       40		      .byte.b	_40
   9065  7722		       40		      .byte.b	_40
   9066  7723		       f2		      .byte.b	_F2
   9067  7724		       f2		      .byte.b	_F2
   9068  7725		       f2		      .byte.b	_F2
   9069  7726		       00		      .byte.b	_00
   9070  7727		       00		      .byte.b	_00
   9071  7728				   playfieldcolorL0465
   9072  7728		       c2		      .byte.b	_C2
   9073  7729		       c2		      .byte.b	_C2
   9074  772a		       00		      .byte.b	_00
   9075  772b		       00		      .byte.b	_00
   9076  772c		       00		      .byte.b	_00
   9077  772d		       00		      .byte.b	_00
   9078  772e		       00		      .byte.b	_00
   9079  772f		       00		      .byte.b	_00
   9080  7730		       00		      .byte.b	_00
   9081  7731		       00		      .byte.b	_00
   9082  7732		       00		      .byte.b	_00
   9083  7733		       00		      .byte.b	_00
   9084  7734		       00		      .byte.b	_00
   9085  7735		       00		      .byte.b	_00
   9086  7736		       00		      .byte.b	_00
   9087  7737		       00		      .byte.b	_00
   9088  7738		       00		      .byte.b	_00
   9089  7739		       00		      .byte.b	_00
   9090  773a		       00		      .byte.b	_00
   9091  773b		       00		      .byte.b	_00
   9092  773c		       00		      .byte.b	_00
   9093  773d		       00		      .byte.b	_00
   9094  773e		       00		      .byte.b	_00
   9095  773f		       00		      .byte.b	_00
   9096  7740		       00		      .byte.b	_00
   9097  7741		       00		      .byte.b	_00
   9098  7742		       00		      .byte.b	_00
   9099  7743		       00		      .byte.b	_00
   9100  7744		       00		      .byte.b	_00
   9101  7745		       00		      .byte.b	_00
   9102  7746		       00		      .byte.b	_00
   9103  7747		       00		      .byte.b	_00
   9104  7748		       00		      .byte.b	_00
   9105  7749		       00		      .byte.b	_00
   9106  774a		       00		      .byte.b	_00
   9107  774b		       00		      .byte.b	_00
   9108  774c		       00		      .byte.b	_00
   9109  774d		       00		      .byte.b	_00
   9110  774e		       00		      .byte.b	_00
   9111  774f		       00		      .byte.b	_00
   9112  7750		       00		      .byte.b	_00
   9113  7751		       00		      .byte.b	_00
   9114  7752		       00		      .byte.b	_00
   9115  7753		       00		      .byte.b	_00
   9116  7754		       00		      .byte.b	_00
   9117  7755		       00		      .byte.b	_00
   9118  7756		       00		      .byte.b	_00
   9119  7757		       00		      .byte.b	_00
   9120  7758		       00		      .byte.b	_00
   9121  7759		       00		      .byte.b	_00
   9122  775a		       00		      .byte.b	_00
   9123  775b		       00		      .byte.b	_00
   9124  775c		       00		      .byte.b	_00
   9125  775d		       00		      .byte.b	_00
   9126  775e		       00		      .byte.b	_00
   9127  775f		       40		      .byte.b	_40
   9128  7760		       40		      .byte.b	_40
   9129  7761		       40		      .byte.b	_40
   9130  7762		       40		      .byte.b	_40
   9131  7763		       40		      .byte.b	_40
   9132  7764		       40		      .byte.b	_40
   9133  7765		       40		      .byte.b	_40
   9134  7766		       40		      .byte.b	_40
   9135  7767		       40		      .byte.b	_40
   9136  7768		       40		      .byte.b	_40
   9137  7769		       40		      .byte.b	_40
   9138  776a		       40		      .byte.b	_40
   9139  776b		       40		      .byte.b	_40
   9140  776c		       40		      .byte.b	_40
   9141  776d		       40		      .byte.b	_40
   9142  776e		       40		      .byte.b	_40
   9143  776f		       40		      .byte.b	_40
   9144  7770		       40		      .byte.b	_40
   9145  7771		       40		      .byte.b	_40
   9146  7772		       40		      .byte.b	_40
   9147  7773		       40		      .byte.b	_40
   9148  7774		       40		      .byte.b	_40
   9149  7775		       40		      .byte.b	_40
   9150  7776		       40		      .byte.b	_40
   9151  7777		       40		      .byte.b	_40
   9152  7778		       40		      .byte.b	_40
   9153  7779		       40		      .byte.b	_40
   9154  777a		       40		      .byte.b	_40
   9155  777b		       40		      .byte.b	_40
   9156  777c		       40		      .byte.b	_40
   9157  777d		       40		      .byte.b	_40
   9158  777e		       00		      .byte.b	_00
   9159  777f		       00		      .byte.b	_00
   9160  7780				   playerL0484_0
   9161  7780		       00		      .byte.b	%00000000
   9162  7781		       42		      .byte.b	%01000010
   9163  7782		       42		      .byte.b	%01000010
   9164  7783		       5a		      .byte.b	%01011010
   9165  7784		       7e		      .byte.b	%01111110
   9166  7785		       24		      .byte.b	%00100100
   9167  7786		       18		      .byte.b	%00011000
   9168  7787		       18		      .byte.b	%00011000
   9169  7788		       3c		      .byte.b	%00111100
   9170  7789		       5a		      .byte.b	%01011010
   9171  778a		       18		      .byte.b	%00011000
   9172  778b		       18		      .byte.b	%00011000
   9173  778c		       18		      .byte.b	%00011000
   9174  778d		       3c		      .byte.b	%00111100
   9175  778e		       24		      .byte.b	%00100100
   9176  778f				   playercolorL0485_0
   9177  778f		       00		      .byte.b	$00	;
   9178  7790		       00		      .byte.b	$00	;
   9179  7791		       00		      .byte.b	$00	;
   9180  7792		       00		      .byte.b	$00	;
   9181  7793		       00		      .byte.b	$00	;
   9182  7794		       0e		      .byte.b	$0E	;
   9183  7795		       70		      .byte.b	$70	;
   9184  7796		       70		      .byte.b	$70	;
   9185  7797		       70		      .byte.b	$70	;
   9186  7798		       94		      .byte.b	$94	;
   9187  7799		       70		      .byte.b	$70	;
   9188  779a		       70		      .byte.b	$70	;
   9189  779b		       70		      .byte.b	$70	;
   9190  779c		       70		      .byte.b	$70	;
   9191  779d		       40		      .byte.b	$40	;
   9192  779e				   playerL0487_0
   9193  779e		       18		      .byte.b	%00011000
   9194  779f		       bd		      .byte.b	%10111101
   9195  77a0		       99		      .byte.b	%10011001
   9196  77a1		       5a		      .byte.b	%01011010
   9197  77a2		       7e		      .byte.b	%01111110
   9198  77a3		       24		      .byte.b	%00100100
   9199  77a4		       18		      .byte.b	%00011000
   9200  77a5		       18		      .byte.b	%00011000
   9201  77a6		       3c		      .byte.b	%00111100
   9202  77a7		       5a		      .byte.b	%01011010
   9203  77a8		       18		      .byte.b	%00011000
   9204  77a9		       18		      .byte.b	%00011000
   9205  77aa		       18		      .byte.b	%00011000
   9206  77ab		       3c		      .byte.b	%00111100
   9207  77ac		       24		      .byte.b	%00100100
   9208  77ad				   playercolorL0488_0
   9209  77ad		       40		      .byte.b	$40	;
   9210  77ae		       40		      .byte.b	$40	;
   9211  77af		       40		      .byte.b	$40	;
   9212  77b0		       40		      .byte.b	$40	;
   9213  77b1		       40		      .byte.b	$40	;
   9214  77b2		       f6		      .byte.b	$F6	;
   9215  77b3		       70		      .byte.b	$70	;
   9216  77b4		       70		      .byte.b	$70	;
   9217  77b5		       70		      .byte.b	$70	;
   9218  77b6		       94		      .byte.b	$94	;
   9219  77b7		       70		      .byte.b	$70	;
   9220  77b8		       70		      .byte.b	$70	;
   9221  77b9		       70		      .byte.b	$70	;
   9222  77ba		       70		      .byte.b	$70	;
   9223  77bb		       00		      .byte.b	$00	;
   9224  77bc				   playerL0490_0
   9225  77bc		       00		      .byte.b	%00000000
   9226  77bd		       42		      .byte.b	%01000010
   9227  77be		       42		      .byte.b	%01000010
   9228  77bf		       5a		      .byte.b	%01011010
   9229  77c0		       7e		      .byte.b	%01111110
   9230  77c1		       24		      .byte.b	%00100100
   9231  77c2		       18		      .byte.b	%00011000
   9232  77c3		       19		      .byte.b	%00011001
   9233  77c4		       3d		      .byte.b	%00111101
   9234  77c5		       5b		      .byte.b	%01011011
   9235  77c6		       19		      .byte.b	%00011001
   9236  77c7		       19		      .byte.b	%00011001
   9237  77c8		       19		      .byte.b	%00011001
   9238  77c9		       3c		      .byte.b	%00111100
   9239  77ca		       24		      .byte.b	%00100100
   9240  77cb				   playercolorL0491_0
   9241  77cb		       00		      .byte.b	$00	;
   9242  77cc		       00		      .byte.b	$00	;
   9243  77cd		       00		      .byte.b	$00	;
   9244  77ce		       00		      .byte.b	$00	;
   9245  77cf		       00		      .byte.b	$00	;
   9246  77d0		       70		      .byte.b	$70	;
   9247  77d1		       70		      .byte.b	$70	;
   9248  77d2		       40		      .byte.b	$40	;
   9249  77d3		       40		      .byte.b	$40	;
   9250  77d4		       40		      .byte.b	$40	;
   9251  77d5		       40		      .byte.b	$40	;
   9252  77d6		       40		      .byte.b	$40	;
   9253  77d7		       40		      .byte.b	$40	;
   9254  77d8		       70		      .byte.b	$70	;
   9255  77d9		       c6		      .byte.b	$C6	;
   9256  77da				   playerL0493_0
   9257  77da		       00		      .byte.b	%00000000
   9258  77db		       42		      .byte.b	%01000010
   9259  77dc		       42		      .byte.b	%01000010
   9260  77dd		       5a		      .byte.b	%01011010
   9261  77de		       7e		      .byte.b	%01111110
   9262  77df		       24		      .byte.b	%00100100
   9263  77e0		       18		      .byte.b	%00011000
   9264  77e1		       19		      .byte.b	%00011001
   9265  77e2		       3d		      .byte.b	%00111101
   9266  77e3		       5b		      .byte.b	%01011011
   9267  77e4		       19		      .byte.b	%00011001
   9268  77e5		       19		      .byte.b	%00011001
   9269  77e6		       19		      .byte.b	%00011001
   9270  77e7		       3c		      .byte.b	%00111100
   9271  77e8		       24		      .byte.b	%00100100
   9272  77e9				   playercolorL0494_0
   9273  77e9		       00		      .byte.b	$00	;
   9274  77ea		       00		      .byte.b	$00	;
   9275  77eb		       00		      .byte.b	$00	;
   9276  77ec		       00		      .byte.b	$00	;
   9277  77ed		       00		      .byte.b	$00	;
   9278  77ee		       70		      .byte.b	$70	;
   9279  77ef		       70		      .byte.b	$70	;
   9280  77f0		       40		      .byte.b	$40	;
   9281  77f1		       40		      .byte.b	$40	;
   9282  77f2		       40		      .byte.b	$40	;
   9283  77f3		       40		      .byte.b	$40	;
   9284  77f4		       40		      .byte.b	$40	;
   9285  77f5		       40		      .byte.b	$40	;
   9286  77f6		       70		      .byte.b	$70	;
   9287  77f7		       c5		      .byte.b	$C5	;
   9288  77f8				   playercolor225then_0
   9289  77f8		       1c		      .byte.b	$1C	;
   9290  77f9		       1c		      .byte.b	$1C	;
   9291  77fa		       1c		      .byte.b	$1C	;
   9292  77fb		       1c		      .byte.b	$1C	;
   9293  77fc		       1c		      .byte.b	$1C	;
   9294  77fd		       1c		      .byte.b	$1C	;
   9295  77fe		       1c		      .byte.b	$1C	;
   9296  77ff		       1c		      .byte.b	$1C	;
   9297  7800		       1c		      .byte.b	$1C	;
   9298  7801		       1c		      .byte.b	$1C	;
   9299  7802		       1c		      .byte.b	$1C	;  
   9300  7803		       1c		      .byte.b	$1C	;
   9301  7804		       1c		      .byte.b	$1C	;
   9302  7805		       1c		      .byte.b	$1C	;
   9303  7806		       1c		      .byte.b	$1C	;
   9304  7807		       1c		      .byte.b	$1C
   9305  7808				   playercolor226then_0
   9306  7808		       cc		      .byte.b	$CC	;
   9307  7809		       cc		      .byte.b	$CC	;
   9308  780a		       cc		      .byte.b	$CC	;
   9309  780b		       cc		      .byte.b	$CC	;
   9310  780c		       cc		      .byte.b	$CC	;
   9311  780d		       cc		      .byte.b	$CC	;
   9312  780e		       cc		      .byte.b	$CC	;
   9313  780f		       cc		      .byte.b	$CC	;
   9314  7810		       cc		      .byte.b	$CC	;
   9315  7811		       cc		      .byte.b	$CC	;
   9316  7812		       cc		      .byte.b	$CC	;  
   9317  7813		       cc		      .byte.b	$CC	;
   9318  7814		       cc		      .byte.b	$CC	;
   9319  7815		       cc		      .byte.b	$CC	;
   9320  7816		       cc		      .byte.b	$CC	;
   9321  7817		       cc		      .byte.b	$CC
   9322  7818		       cc		      .byte.b	$CC	;
   9323  7819		       cc		      .byte.b	$CC
   9324  781a				   player228then_2
   9325  781a		       81		      .byte.b	%10000001
   9326  781b		       42		      .byte.b	%01000010
   9327  781c		       5a		      .byte.b	%01011010
   9328  781d		       5a		      .byte.b	%01011010
   9329  781e		       24		      .byte.b	%00100100
   9330  781f		       99		      .byte.b	%10011001
   9331  7820		       5a		      .byte.b	%01011010
   9332  7821		       24		      .byte.b	%00100100
   9333  7822				   player230then_2
   9334  7822		       00		      .byte.b	%00000000
   9335  7823		       40		      .byte.b	%01000000
   9336  7824		       00		      .byte.b	%00000000
   9337  7825		       30		      .byte.b	%00110000
   9338  7826		       14		      .byte.b	%00010100
   9339  7827		       00		      .byte.b	%00000000
   9340  7828		       48		      .byte.b	%01001000
   9341  7829		       00		      .byte.b	%00000000
   9342  782a				   player232then_3
   9343  782a		       18		      .byte.b	%00011000
   9344  782b		       7e		      .byte.b	%01111110
   9345  782c		       5a		      .byte.b	%01011010
   9346  782d		       db		      .byte.b	%11011011
   9347  782e		       ff		      .byte.b	%11111111
   9348  782f		       3c		      .byte.b	%00111100
   9349  7830		       18		      .byte.b	%00011000
   9350  7831		       00		      .byte.b	%00000000
   9351  7832				   player234then_3
   9352  7832		       00		      .byte.b	%00000000
   9353  7833		       40		      .byte.b	%01000000
   9354  7834		       00		      .byte.b	%00000000
   9355  7835		       30		      .byte.b	%00110000
   9356  7836		       14		      .byte.b	%00010100
   9357  7837		       00		      .byte.b	%00000000
   9358  7838		       48		      .byte.b	%01001000
   9359  7839		       00		      .byte.b	%00000000
   9360  783a				   player236then_1
   9361  783a		       81		      .byte.b	%10000001
   9362  783b		       42		      .byte.b	%01000010
   9363  783c		       5a		      .byte.b	%01011010
   9364  783d		       5a		      .byte.b	%01011010
   9365  783e		       24		      .byte.b	%00100100
   9366  783f		       99		      .byte.b	%10011001
   9367  7840		       5a		      .byte.b	%01011010
   9368  7841		       24		      .byte.b	%00100100
   9369  7842				   player238then_1
   9370  7842		       00		      .byte.b	%00000000
   9371  7843		       40		      .byte.b	%01000000
   9372  7844		       00		      .byte.b	%00000000
   9373  7845		       30		      .byte.b	%00110000
   9374  7846		       14		      .byte.b	%00010100
   9375  7847		       00		      .byte.b	%00000000
   9376  7848		       48		      .byte.b	%01001000
   9377  7849		       00		      .byte.b	%00000000
   9378  784a				   playercolor239then_2
   9379  784a		       b4		      .byte.b	$B4	;
   9380  784b		       d0		      .byte.b	$D0	;
   9381  784c		       d0		      .byte.b	$D0	;
   9382  784d		       d0		      .byte.b	$D0	;
   9383  784e		       d0		      .byte.b	$D0	;
   9384  784f		       d0		      .byte.b	$D0	;
   9385  7850		       c2		      .byte.b	$C2	;
   9386  7851		       c6		      .byte.b	$C6	;
   9387  7852				   playercolor240then_3
   9388  7852		       30		      .byte.b	$30	;
   9389  7853		       e0		      .byte.b	$E0	;
   9390  7854		       b2		      .byte.b	$B2	;
   9391  7855		       c4		      .byte.b	$C4	;
   9392  7856		       b0		      .byte.b	$B0	;
   9393  7857		       70		      .byte.b	$70	;
   9394  7858		       1e		      .byte.b	$1E	;
   9395  7859		       0e		      .byte.b	$0E	;
   9396  785a				   playercolor241then_1
   9397  785a		       30		      .byte.b	$30	;
   9398  785b		       44		      .byte.b	$44	;
   9399  785c		       b2		      .byte.b	$B2	;
   9400  785d		       c4		      .byte.b	$C4	;
   9401  785e		       42		      .byte.b	$42	;
   9402  785f		       c0		      .byte.b	$C0	;
   9403  7860		       30		      .byte.b	$30	;
   9404  7861		       0e		      .byte.b	$0E	;
   9405  7862				   player243then_2
   9406  7862		       42		      .byte.b	%01000010
   9407  7863		       42		      .byte.b	%01000010
   9408  7864		       5a		      .byte.b	%01011010
   9409  7865		       5a		      .byte.b	%01011010
   9410  7866		       24		      .byte.b	%00100100
   9411  7867		       18		      .byte.b	%00011000
   9412  7868		       db		      .byte.b	%11011011
   9413  7869		       24		      .byte.b	%00100100
   9414  786a				   player245then_2
   9415  786a		       04		      .byte.b	%00000100
   9416  786b		       40		      .byte.b	%01000000
   9417  786c		       01		      .byte.b	%00000001
   9418  786d		       00		      .byte.b	%00000000
   9419  786e		       02		      .byte.b	%00000010
   9420  786f		       80		      .byte.b	%10000000
   9421  7870		       02		      .byte.b	%00000010
   9422  7871		       20		      .byte.b	%00100000
   9423  7872				   player247then_3
   9424  7872		       00		      .byte.b	%00000000
   9425  7873		       7e		      .byte.b	%01111110
   9426  7874		       5a		      .byte.b	%01011010
   9427  7875		       db		      .byte.b	%11011011
   9428  7876		       ff		      .byte.b	%11111111
   9429  7877		       3c		      .byte.b	%00111100
   9430  7878		       18		      .byte.b	%00011000
   9431  7879		       00		      .byte.b	%00000000
   9432  787a				   player249then_3
   9433  787a		       04		      .byte.b	%00000100
   9434  787b		       40		      .byte.b	%01000000
   9435  787c		       01		      .byte.b	%00000001
   9436  787d		       00		      .byte.b	%00000000
   9437  787e		       02		      .byte.b	%00000010
   9438  787f		       80		      .byte.b	%10000000
   9439  7880		       02		      .byte.b	%00000010
   9440  7881		       20		      .byte.b	%00100000
   9441  7882				   player251then_1
   9442  7882		       42		      .byte.b	%01000010
   9443  7883		       42		      .byte.b	%01000010
   9444  7884		       5a		      .byte.b	%01011010
   9445  7885		       5a		      .byte.b	%01011010
   9446  7886		       24		      .byte.b	%00100100
   9447  7887		       18		      .byte.b	%00011000
   9448  7888		       db		      .byte.b	%11011011
   9449  7889		       24		      .byte.b	%00100100
   9450  788a				   player253then_1
   9451  788a		       04		      .byte.b	%00000100
   9452  788b		       40		      .byte.b	%01000000
   9453  788c		       01		      .byte.b	%00000001
   9454  788d		       00		      .byte.b	%00000000
   9455  788e		       02		      .byte.b	%00000010
   9456  788f		       80		      .byte.b	%10000000
   9457  7890		       02		      .byte.b	%00000010
   9458  7891		       20		      .byte.b	%00100000
   9459  7892				   playercolor254then_2
   9460  7892		       b4		      .byte.b	$B4	;
   9461  7893		       d0		      .byte.b	$D0	;
   9462  7894		       d0		      .byte.b	$D0	;
   9463  7895		       d0		      .byte.b	$D0	;
   9464  7896		       d0		      .byte.b	$D0	;
   9465  7897		       d0		      .byte.b	$D0	;
   9466  7898		       c2		      .byte.b	$C2	;
   9467  7899		       c4		      .byte.b	$C4	;
   9468  789a				   playercolor255then_3
   9469  789a		       30		      .byte.b	$30	;
   9470  789b		       e0		      .byte.b	$E0	;
   9471  789c		       b2		      .byte.b	$B2	;
   9472  789d		       c4		      .byte.b	$C4	;
   9473  789e		       b0		      .byte.b	$B0	;
   9474  789f		       70		      .byte.b	$70	;
   9475  78a0		       1e		      .byte.b	$1E	;
   9476  78a1		       0e		      .byte.b	$0E	;
   9477  78a2				   playercolor256then_1
   9478  78a2		       30		      .byte.b	$30	;
   9479  78a3		       44		      .byte.b	$44	;
   9480  78a4		       b2		      .byte.b	$B2	;
   9481  78a5		       c4		      .byte.b	$C4	;
   9482  78a6		       42		      .byte.b	$42	;
   9483  78a7		       c0		      .byte.b	$C0	;
   9484  78a8		       30		      .byte.b	$30	;
   9485  78a9		       0e		      .byte.b	$0E	;
   9486  78aa				   player258then_2
   9487  78aa		       24		      .byte.b	%00100100
   9488  78ab		       42		      .byte.b	%01000010
   9489  78ac		       5a		      .byte.b	%01011010
   9490  78ad		       5a		      .byte.b	%01011010
   9491  78ae		       24		      .byte.b	%00100100
   9492  78af		       99		      .byte.b	%10011001
   9493  78b0		       5a		      .byte.b	%01011010
   9494  78b1		       24		      .byte.b	%00100100
   9495  78b2				   player260then_2
   9496  78b2		       08		      .byte.b	%00001000
   9497  78b3		       00		      .byte.b	%00000000
   9498  78b4		       00		      .byte.b	%00000000
   9499  78b5		       00		      .byte.b	%00000000
   9500  78b6		       80		      .byte.b	%10000000
   9501  78b7		       00		      .byte.b	%00000000
   9502  78b8		       00		      .byte.b	%00000000
   9503  78b9		       21		      .byte.b	%00100001
   9504  78ba				   player261then_3
   9505  78ba		       18		      .byte.b	%00011000
   9506  78bb		       7e		      .byte.b	%01111110
   9507  78bc		       7e		      .byte.b	%01111110
   9508  78bd		       ff		      .byte.b	%11111111
   9509  78be		       ff		      .byte.b	%11111111
   9510  78bf		       3c		      .byte.b	%00111100
   9511  78c0		       18		      .byte.b	%00011000
   9512  78c1		       00		      .byte.b	%00000000
   9513  78c2				   player263then_1
   9514  78c2		       24		      .byte.b	%00100100
   9515  78c3		       42		      .byte.b	%01000010
   9516  78c4		       5a		      .byte.b	%01011010
   9517  78c5		       5a		      .byte.b	%01011010
   9518  78c6		       24		      .byte.b	%00100100
   9519  78c7		       99		      .byte.b	%10011001
   9520  78c8		       5a		      .byte.b	%01011010
   9521  78c9		       24		      .byte.b	%00100100
   9522  78ca				   player265then_1
   9523  78ca		       08		      .byte.b	%00001000
   9524  78cb		       00		      .byte.b	%00000000
   9525  78cc		       00		      .byte.b	%00000000
   9526  78cd		       00		      .byte.b	%00000000
   9527  78ce		       80		      .byte.b	%10000000
   9528  78cf		       00		      .byte.b	%00000000
   9529  78d0		       00		      .byte.b	%00000000
   9530  78d1		       21		      .byte.b	%00100001
   9531  78d2				   playercolor266then_2
   9532  78d2		       b4		      .byte.b	$B4	;
   9533  78d3		       d0		      .byte.b	$D0	;
   9534  78d4		       d0		      .byte.b	$D0	;
   9535  78d5		       d0		      .byte.b	$D0	;
   9536  78d6		       d0		      .byte.b	$D0	;
   9537  78d7		       d0		      .byte.b	$D0	;
   9538  78d8		       c2		      .byte.b	$C2	;
   9539  78d9		       c6		      .byte.b	$C6	;
   9540  78da				   playercolor267then_3
   9541  78da		       16		      .byte.b	$16	;
   9542  78db		       e0		      .byte.b	$E0	;
   9543  78dc		       b2		      .byte.b	$B2	;
   9544  78dd		       c4		      .byte.b	$C4	;
   9545  78de		       b0		      .byte.b	$B0	;
   9546  78df		       70		      .byte.b	$70	;
   9547  78e0		       30		      .byte.b	$30	;
   9548  78e1		       0e		      .byte.b	$0E	;
   9549  78e2				   playercolor268then_1
   9550  78e2		       30		      .byte.b	$30	;
   9551  78e3		       44		      .byte.b	$44	;
   9552  78e4		       b2		      .byte.b	$B2	;
   9553  78e5		       c4		      .byte.b	$C4	;
   9554  78e6		       42		      .byte.b	$42	;
   9555  78e7		       c0		      .byte.b	$C0	;
   9556  78e8		       30		      .byte.b	$30	;
   9557  78e9		       0e		      .byte.b	$0E	;
   9558  78ea				   player269then_5
   9559  78ea		       09		      .byte.b	%00001001
   9560  78eb		       04		      .byte.b	%00000100
   9561  78ec		       08		      .byte.b	%00001000
   9562  78ed		       0c		      .byte.b	%00001100
   9563  78ee		       1c		      .byte.b	%00011100
   9564  78ef		       1c		      .byte.b	%00011100
   9565  78f0		       1c		      .byte.b	%00011100
   9566  78f1		       18		      .byte.b	%00011000
   9567  78f2				   playercolor270then_5
   9568  78f2		       0e		      .byte.b	$0E	;
   9569  78f3		       06		      .byte.b	$06	;
   9570  78f4		       40		      .byte.b	$40	;
   9571  78f5		       32		      .byte.b	$32	;
   9572  78f6		       40		      .byte.b	$40	;
   9573  78f7		       34		      .byte.b	$34	;
   9574  78f8		       42		      .byte.b	$42	;
   9575  78f9		       40		      .byte.b	$40	;
   9576  78fa				   player271then_5
   9577  78fa		       02		      .byte.b	%00000010
   9578  78fb		       05		      .byte.b	%00000101
   9579  78fc		       0c		      .byte.b	%00001100
   9580  78fd		       0e		      .byte.b	%00001110
   9581  78fe		       0e		      .byte.b	%00001110
   9582  78ff		       0c		      .byte.b	%00001100
   9583  7900		       1c		      .byte.b	%00011100
   9584  7901		       18		      .byte.b	%00011000
   9585  7902				   playercolor272then_5
   9586  7902		       0e		      .byte.b	$0E	;
   9587  7903		       06		      .byte.b	$06	;
   9588  7904		       40		      .byte.b	$40	;
   9589  7905		       32		      .byte.b	$32	;
   9590  7906		       40		      .byte.b	$40	;
   9591  7907		       34		      .byte.b	$34	;
   9592  7908		       42		      .byte.b	$42	;
   9593  7909		       40		      .byte.b	$40	;
   9594  790a				   player273then_5
   9595  790a		       05		      .byte.b	%00000101
   9596  790b		       08		      .byte.b	%00001000
   9597  790c		       06		      .byte.b	%00000110
   9598  790d		       0c		      .byte.b	%00001100
   9599  790e		       0e		      .byte.b	%00001110
   9600  790f		       1c		      .byte.b	%00011100
   9601  7910		       18		      .byte.b	%00011000
   9602  7911		       18		      .byte.b	%00011000
   9603  7912				   playercolor274then_5
   9604  7912		       0e		      .byte.b	$0E	;
   9605  7913		       06		      .byte.b	$06	;
   9606  7914		       40		      .byte.b	$40	;
   9607  7915		       32		      .byte.b	$32	;
   9608  7916		       40		      .byte.b	$40	;
   9609  7917		       34		      .byte.b	$34	;
   9610  7918		       42		      .byte.b	$42	;
   9611  7919		       40		      .byte.b	$40	;
   9612  791a				   player275then_4
   9613  791a		       fe		      .byte.b	%11111110
   9614  791b		       82		      .byte.b	%10000010
   9615  791c		       92		      .byte.b	%10010010
   9616  791d		       92		      .byte.b	%10010010
   9617  791e		       ba		      .byte.b	%10111010
   9618  791f		       92		      .byte.b	%10010010
   9619  7920		       92		      .byte.b	%10010010
   9620  7921		       82		      .byte.b	%10000010
   9621  7922		       fe		      .byte.b	%11111110
   9622  7923				   playercolor276then_4
   9623  7923		       30		      .byte.b	$30	;
   9624  7924		       30		      .byte.b	$30	;
   9625  7925		       30		      .byte.b	$30	;
   9626  7926		       30		      .byte.b	$30	;
   9627  7927		       30		      .byte.b	$30	;
   9628  7928		       30		      .byte.b	$30	;
   9629  7929		       30		      .byte.b	$30	;
   9630  792a		       40		      .byte.b	$40	;
   9631  792b		       40		      .byte.b	$40	;
   9632  792c				   PF_data2
   9633  792c		       00		      .byte.b	%00000000
   9634  792d		       00		      .byte.b	%00000000
   9635  792e		       00		      .byte.b	%00000000
   9636  792f		       00		      .byte.b	%00000000
   9637  7930		       00		      .byte.b	%00000000
   9638  7931		       00		      .byte.b	%00000000
   9639  7932		       00		      .byte.b	%00000000
   9640  7933		       00		      .byte.b	%00000000
   9641  7934		       00		      .byte.b	%00000000
   9642  7935		       00		      .byte.b	%00000000
   9643  7936		       00		      .byte.b	%00000000
   9644  7937		       00		      .byte.b	%00000000
   9645  7938		       00		      .byte.b	%00000000
   9646  7939		       1e		      .byte.b	%00011110
   9647  793a		       1e		      .byte.b	%00011110
   9648  793b		       02		      .byte.b	%00000010
   9649  793c		       02		      .byte.b	%00000010
   9650  793d		       02		      .byte.b	%00000010
   9651  793e		       02		      .byte.b	%00000010
   9652  793f		       02		      .byte.b	%00000010
   9653  7940		       02		      .byte.b	%00000010
   9654  7941		       02		      .byte.b	%00000010
   9655  7942		       02		      .byte.b	%00000010
   9656  7943		       0e		      .byte.b	%00001110
   9657  7944		       0e		      .byte.b	%00001110
   9658  7945		       02		      .byte.b	%00000010
   9659  7946		       02		      .byte.b	%00000010
   9660  7947		       02		      .byte.b	%00000010
   9661  7948		       02		      .byte.b	%00000010
   9662  7949		       02		      .byte.b	%00000010
   9663  794a		       02		      .byte.b	%00000010
   9664  794b		       02		      .byte.b	%00000010
   9665  794c		       02		      .byte.b	%00000010
   9666  794d		       02		      .byte.b	%00000010
   9667  794e		       02		      .byte.b	%00000010
   9668  794f		       1e		      .byte.b	%00011110
   9669  7950		       1e		      .byte.b	%00011110
   9670  7951		       00		      .byte.b	%00000000
   9671  7952		       00		      .byte.b	%00000000
   9672  7953		       00		      .byte.b	%00000000
   9673  7954		       00		      .byte.b	%00000000
   9674  7955		       00		      .byte.b	%00000000
   9675  7956		       00		      .byte.b	%00000000
   9676  7957		       00		      .byte.b	%00000000
   9677  7958		       00		      .byte.b	%00000000
   9678  7959		       00		      .byte.b	%00000000
   9679  795a		       1e		      .byte.b	%00011110
   9680  795b		       1e		      .byte.b	%00011110
   9681  795c		       12		      .byte.b	%00010010
   9682  795d		       12		      .byte.b	%00010010
   9683  795e		       12		      .byte.b	%00010010
   9684  795f		       12		      .byte.b	%00010010
   9685  7960		       12		      .byte.b	%00010010
   9686  7961		       12		      .byte.b	%00010010
   9687  7962		       12		      .byte.b	%00010010
   9688  7963		       1e		      .byte.b	%00011110
   9689  7964		       0e		      .byte.b	%00001110
   9690  7965		       0e		      .byte.b	%00001110
   9691  7966		       0a		      .byte.b	%00001010
   9692  7967		       0a		      .byte.b	%00001010
   9693  7968		       0a		      .byte.b	%00001010
   9694  7969		       0a		      .byte.b	%00001010
   9695  796a		       1a		      .byte.b	%00011010
   9696  796b		       12		      .byte.b	%00010010
   9697  796c		       12		      .byte.b	%00010010
   9698  796d		       12		      .byte.b	%00010010
   9699  796e		       12		      .byte.b	%00010010
   9700  796f		       12		      .byte.b	%00010010
   9701  7970		       12		      .byte.b	%00010010
   9702  7971		       12		      .byte.b	%00010010
   9703  7972		       00		      .byte.b	%00000000
   9704  7973		       00		      .byte.b	%00000000
   9705  7974		       00		      .byte.b	%00000000
   9706  7975		       00		      .byte.b	%00000000
   9707  7976		       00		      .byte.b	%00000000
   9708  7977		       00		      .byte.b	%00000000
   9709  7978		       00		      .byte.b	%00000000
   9710  7979		       00		      .byte.b	%00000000
   9711  797a		       00		      .byte.b	%00000000
   9712  797b		       00		      .byte.b	%00000000
   9713  797c		       00		      .byte.b	%00000000
   9714  797d		       00		      .byte.b	%00000000
   9715  797e		       00		      .byte.b	%00000000
   9716  797f		       00		      .byte.b	%00000000
   9717  7980		       00		      .byte.b	%00000000
   9718  7981		       00		      .byte.b	%00000000
   9719  7982		       00		      .byte.b	%00000000
   9720  7983		       00		      .byte.b	%00000000
   9721  7984		       00		      .byte.b	%00000000
   9722  7985		       00		      .byte.b	%00000000
   9723  7986		       00		      .byte.b	%00000000
   9724  7987		       00		      .byte.b	%00000000
   9725  7988		       00		      .byte.b	%00000000
   9726  7989		       00		      .byte.b	%00000000
   9727  798a		       00		      .byte.b	%00000000
   9728  798b		       00		      .byte.b	%00000000
   9729  798c		       00		      .byte.b	%00000000
   9730  798d		       00		      .byte.b	%00000000
   9731  798e		       00		      .byte.b	%00000000
   9732  798f		       00		      .byte.b	%00000000
   9733  7990		       00		      .byte.b	%00000000
   9734  7991		       1b		      .byte.b	%00011011
   9735  7992		       1f		      .byte.b	%00011111
   9736  7993		       15		      .byte.b	%00010101
   9737  7994		       15		      .byte.b	%00010101
   9738  7995		       15		      .byte.b	%00010101
   9739  7996		       15		      .byte.b	%00010101
   9740  7997		       95		      .byte.b	%10010101
   9741  7998		       95		      .byte.b	%10010101
   9742  7999		       95		      .byte.b	%10010101
   9743  799a		       95		      .byte.b	%10010101
   9744  799b		       91		      .byte.b	%10010001
   9745  799c		       91		      .byte.b	%10010001
   9746  799d		       91		      .byte.b	%10010001
   9747  799e		       91		      .byte.b	%10010001
   9748  799f		       91		      .byte.b	%10010001
   9749  79a0		       91		      .byte.b	%10010001
   9750  79a1		       91		      .byte.b	%10010001
   9751  79a2		       91		      .byte.b	%10010001
   9752  79a3		       91		      .byte.b	%10010001
   9753  79a4		       91		      .byte.b	%10010001
   9754  79a5		       91		      .byte.b	%10010001
   9755  79a6		       91		      .byte.b	%10010001
   9756  79a7		       91		      .byte.b	%10010001
   9757  79a8		       91		      .byte.b	%10010001
   9758  79a9		       00		      .byte.b	%00000000
   9759  79aa		       00		      .byte.b	%00000000
   9760  79ab		       00		      .byte.b	%00000000
   9761  79ac		       00		      .byte.b	%00000000
   9762  79ad		       00		      .byte.b	%00000000
   9763  79ae		       00		      .byte.b	%00000000
   9764  79af		       00		      .byte.b	%00000000
   9765  79b0		       00		      .byte.b	%00000000
   9766  79b1		       00		      .byte.b	%00000000
   9767  79b2		       1e		      .byte.b	%00011110
   9768  79b3		       1e		      .byte.b	%00011110
   9769  79b4		       10		      .byte.b	%00010000
   9770  79b5		       10		      .byte.b	%00010000
   9771  79b6		       10		      .byte.b	%00010000
   9772  79b7		       10		      .byte.b	%00010000
   9773  79b8		       10		      .byte.b	%00010000
   9774  79b9		       10		      .byte.b	%00010000
   9775  79ba		       10		      .byte.b	%00010000
   9776  79bb		       10		      .byte.b	%00010000
   9777  79bc		       1c		      .byte.b	%00011100
   9778  79bd		       1c		      .byte.b	%00011100
   9779  79be		       10		      .byte.b	%00010000
   9780  79bf		       10		      .byte.b	%00010000
   9781  79c0		       10		      .byte.b	%00010000
   9782  79c1		       10		      .byte.b	%00010000
   9783  79c2		       10		      .byte.b	%00010000
   9784  79c3		       10		      .byte.b	%00010000
   9785  79c4		       10		      .byte.b	%00010000
   9786  79c5		       10		      .byte.b	%00010000
   9787  79c6		       10		      .byte.b	%00010000
   9788  79c7		       10		      .byte.b	%00010000
   9789  79c8		       1e		      .byte.b	%00011110
   9790  79c9		       1e		      .byte.b	%00011110
   9791  79ca		       00		      .byte.b	%00000000
   9792  79cb		       00		      .byte.b	%00000000
   9793  79cc		       00		      .byte.b	%00000000
   9794  79cd		       00		      .byte.b	%00000000
   9795  79ce		       00		      .byte.b	%00000000
   9796  79cf		       00		      .byte.b	%00000000
   9797  79d0		       00		      .byte.b	%00000000
   9798  79d1		       00		      .byte.b	%00000000
   9799  79d2		       00		      .byte.b	%00000000
   9800  79d3		       00		      .byte.b	%00000000
   9801  79d4		       00		      .byte.b	%00000000
   9802  79d5		       00		      .byte.b	%00000000
   9803  79d6		       00		      .byte.b	%00000000
   9804  79d7		       00		      .byte.b	%00000000
   9805  79d8		       00		      .byte.b	%00000000
   9806  79d9		       00		      .byte.b	%00000000
   9807  79da		       00		      .byte.b	%00000000
   9808  79db		       00		      .byte.b	%00000000
   9809  79dc		       00		      .byte.b	%00000000
   9810  79dd		       00		      .byte.b	%00000000
   9811  79de		       00		      .byte.b	%00000000
   9812  79df		       00		      .byte.b	%00000000
   9813  79e0		       00		      .byte.b	%00000000
   9814  79e1		       00		      .byte.b	%00000000
   9815  79e2		       00		      .byte.b	%00000000
   9816  79e3		       00		      .byte.b	%00000000
   9817  79e4		       00		      .byte.b	%00000000
   9818  79e5		       00		      .byte.b	%00000000
   9819  79e6		       00		      .byte.b	%00000000
   9820  79e7		       00		      .byte.b	%00000000
   9821  79e8		       00		      .byte.b	%00000000
   9822  79e9		       f1		      .byte.b	%11110001
   9823  79ea		       f1		      .byte.b	%11110001
   9824  79eb		       90		      .byte.b	%10010000
   9825  79ec		       90		      .byte.b	%10010000
   9826  79ed		       90		      .byte.b	%10010000
   9827  79ee		       90		      .byte.b	%10010000
   9828  79ef		       90		      .byte.b	%10010000
   9829  79f0		       08		      .byte.b	%00001000
   9830  79f1		       08		      .byte.b	%00001000
   9831  79f2		       08		      .byte.b	%00001000
   9832  79f3		       08		      .byte.b	%00001000
   9833  79f4		       08		      .byte.b	%00001000
   9834  79f5		       08		      .byte.b	%00001000
   9835  79f6		       08		      .byte.b	%00001000
   9836  79f7		       f9		      .byte.b	%11111001
   9837  79f8		       09		      .byte.b	%00001001
   9838  79f9		       09		      .byte.b	%00001001
   9839  79fa		       09		      .byte.b	%00001001
   9840  79fb		       09		      .byte.b	%00001001
   9841  79fc		       09		      .byte.b	%00001001
   9842  79fd		       09		      .byte.b	%00001001
   9843  79fe		       09		      .byte.b	%00001001
   9844  79ff		       09		      .byte.b	%00001001
   9845  7a00		       09		      .byte.b	%00001001
   9846  7a01		       00		      .byte.b	%00000000
   9847  7a02		       00		      .byte.b	%00000000
   9848  7a03		       00		      .byte.b	%00000000
   9849  7a04		       00		      .byte.b	%00000000
   9850  7a05		       00		      .byte.b	%00000000
   9851  7a06		       00		      .byte.b	%00000000
   9852  7a07		       00		      .byte.b	%00000000
   9853  7a08		       00		      .byte.b	%00000000
   9854  7a09		       89		      .byte.b	%10001001
   9855  7a0a		       89		      .byte.b	%10001001
   9856  7a0b		       89		      .byte.b	%10001001
   9857  7a0c		       89		      .byte.b	%10001001
   9858  7a0d		       89		      .byte.b	%10001001
   9859  7a0e		       89		      .byte.b	%10001001
   9860  7a0f		       89		      .byte.b	%10001001
   9861  7a10		       d1		      .byte.b	%11010001
   9862  7a11		       51		      .byte.b	%01010001
   9863  7a12		       51		      .byte.b	%01010001
   9864  7a13		       51		      .byte.b	%01010001
   9865  7a14		       51		      .byte.b	%01010001
   9866  7a15		       51		      .byte.b	%01010001
   9867  7a16		       51		      .byte.b	%01010001
   9868  7a17		       51		      .byte.b	%01010001
   9869  7a18		       51		      .byte.b	%01010001
   9870  7a19		       51		      .byte.b	%01010001
   9871  7a1a		       51		      .byte.b	%01010001
   9872  7a1b		       71		      .byte.b	%01110001
   9873  7a1c		       71		      .byte.b	%01110001
   9874  7a1d		       21		      .byte.b	%00100001
   9875  7a1e		       21		      .byte.b	%00100001
   9876  7a1f		       21		      .byte.b	%00100001
   9877  7a20		       21		      .byte.b	%00100001
   9878  7a21		       21		      .byte.b	%00100001
   9879  7a22		       00		      .byte.b	%00000000
   9880  7a23		       00		      .byte.b	%00000000
   9881  7a24		       00		      .byte.b	%00000000
   9882  7a25		       00		      .byte.b	%00000000
   9883  7a26		       00		      .byte.b	%00000000
   9884  7a27		       00		      .byte.b	%00000000
   9885  7a28		       00		      .byte.b	%00000000
   9886  7a29		       00		      .byte.b	%00000000
   9887  7a2a		       00		      .byte.b	%00000000
   9888  7a2b		       00		      .byte.b	%00000000
   9889  7a2c		       00		      .byte.b	%00000000
   9890  7a2d		       00		      .byte.b	%00000000
   9891  7a2e		       00		      .byte.b	%00000000
   9892  7a2f		       00		      .byte.b	%00000000
   9893  7a30		       00		      .byte.b	%00000000
   9894  7a31		       00		      .byte.b	%00000000
   9895  7a32		       00		      .byte.b	%00000000
   9896  7a33		       00		      .byte.b	%00000000
   9897  7a34		       00		      .byte.b	%00000000
   9898  7a35		       00		      .byte.b	%00000000
   9899  7a36		       00		      .byte.b	%00000000
   9900  7a37		       00		      .byte.b	%00000000
   9901  7a38		       00		      .byte.b	%00000000
   9902  7a39		       00		      .byte.b	%00000000
   9903  7a3a		       00		      .byte.b	%00000000
   9904  7a3b		       00		      .byte.b	%00000000
   9905  7a3c		       00		      .byte.b	%00000000
   9906  7a3d		       00		      .byte.b	%00000000
   9907  7a3e		       00		      .byte.b	%00000000
   9908  7a3f		       00		      .byte.b	%00000000
   9909  7a40		       00		      .byte.b	%00000000
   9910  7a41		       0f		      .byte.b	%00001111
   9911  7a42		       0f		      .byte.b	%00001111
   9912  7a43		       08		      .byte.b	%00001000
   9913  7a44		       08		      .byte.b	%00001000
   9914  7a45		       08		      .byte.b	%00001000
   9915  7a46		       08		      .byte.b	%00001000
   9916  7a47		       08		      .byte.b	%00001000
   9917  7a48		       08		      .byte.b	%00001000
   9918  7a49		       08		      .byte.b	%00001000
   9919  7a4a		       08		      .byte.b	%00001000
   9920  7a4b		       08		      .byte.b	%00001000
   9921  7a4c		       08		      .byte.b	%00001000
   9922  7a4d		       08		      .byte.b	%00001000
   9923  7a4e		       08		      .byte.b	%00001000
   9924  7a4f		       0b		      .byte.b	%00001011
   9925  7a50		       0b		      .byte.b	%00001011
   9926  7a51		       08		      .byte.b	%00001000
   9927  7a52		       08		      .byte.b	%00001000
   9928  7a53		       08		      .byte.b	%00001000
   9929  7a54		       08		      .byte.b	%00001000
   9930  7a55		       08		      .byte.b	%00001000
   9931  7a56		       08		      .byte.b	%00001000
   9932  7a57		       0f		      .byte.b	%00001111
   9933  7a58		       0f		      .byte.b	%00001111
   9934  7a59		       00		      .byte.b	%00000000
   9935  7a5a		       00		      .byte.b	%00000000
   9936  7a5b		       00		      .byte.b	%00000000
   9937  7a5c		       00		      .byte.b	%00000000
   9938  7a5d		       00		      .byte.b	%00000000
   9939  7a5e		       00		      .byte.b	%00000000
   9940  7a5f		       00		      .byte.b	%00000000
   9941  7a60		       00		      .byte.b	%00000000
   9942  7a61		       0f		      .byte.b	%00001111
   9943  7a62		       0f		      .byte.b	%00001111
   9944  7a63		       08		      .byte.b	%00001000
   9945  7a64		       08		      .byte.b	%00001000
   9946  7a65		       08		      .byte.b	%00001000
   9947  7a66		       08		      .byte.b	%00001000
   9948  7a67		       08		      .byte.b	%00001000
   9949  7a68		       08		      .byte.b	%00001000
   9950  7a69		       08		      .byte.b	%00001000
   9951  7a6a		       08		      .byte.b	%00001000
   9952  7a6b		       08		      .byte.b	%00001000
   9953  7a6c		       08		      .byte.b	%00001000
   9954  7a6d		       08		      .byte.b	%00001000
   9955  7a6e		       08		      .byte.b	%00001000
   9956  7a6f		       08		      .byte.b	%00001000
   9957  7a70		       08		      .byte.b	%00001000
   9958  7a71		       08		      .byte.b	%00001000
   9959  7a72		       08		      .byte.b	%00001000
   9960  7a73		       08		      .byte.b	%00001000
   9961  7a74		       08		      .byte.b	%00001000
   9962  7a75		       08		      .byte.b	%00001000
   9963  7a76		       08		      .byte.b	%00001000
   9964  7a77		       08		      .byte.b	%00001000
   9965  7a78		       0f		      .byte.b	%00001111
   9966  7a79		       0f		      .byte.b	%00001111
   9967  7a7a		       00		      .byte.b	%00000000
   9968  7a7b		       00		      .byte.b	%00000000
   9969  7a7c		       00		      .byte.b	%00000000
   9970  7a7d		       00		      .byte.b	%00000000
   9971  7a7e		       00		      .byte.b	%00000000
   9972  7a7f		       00		      .byte.b	%00000000
   9973  7a80		       00		      .byte.b	%00000000
   9974  7a81		       00		      .byte.b	%00000000
   9975  7a82		       00		      .byte.b	%00000000
   9976  7a83		       00		      .byte.b	%00000000
   9977  7a84		       00		      .byte.b	%00000000
   9978  7a85		       00		      .byte.b	%00000000
   9979  7a86		       00		      .byte.b	%00000000
   9980  7a87		       00		      .byte.b	%00000000
   9981  7a88		       00		      .byte.b	%00000000
   9982  7a89		       00		      .byte.b	%00000000
   9983  7a8a		       00		      .byte.b	%00000000
   9984  7a8b		       00		      .byte.b	%00000000
   9985  7a8c				   playfieldcolorL0552
   9986  7a8c		       00		      .byte.b	_00
   9987  7a8d		       00		      .byte.b	_00
   9988  7a8e		       00		      .byte.b	_00
   9989  7a8f		       00		      .byte.b	_00
   9990  7a90		       00		      .byte.b	_00
   9991  7a91		       00		      .byte.b	_00
   9992  7a92		       00		      .byte.b	_00
   9993  7a93		       00		      .byte.b	_00
   9994  7a94		       00		      .byte.b	_00
   9995  7a95		       00		      .byte.b	_00
   9996  7a96		       00		      .byte.b	_00
   9997  7a97		       00		      .byte.b	_00
   9998  7a98		       00		      .byte.b	_00
   9999  7a99		       00		      .byte.b	_00
  10000  7a9a		       00		      .byte.b	_00
  10001  7a9b		       00		      .byte.b	_00
  10002  7a9c		       00		      .byte.b	_00
  10003  7a9d		       00		      .byte.b	_00
  10004  7a9e		       00		      .byte.b	_00
  10005  7a9f		       00		      .byte.b	_00
  10006  7aa0		       00		      .byte.b	_00
  10007  7aa1		       00		      .byte.b	_00
  10008  7aa2		       00		      .byte.b	_00
  10009  7aa3		       00		      .byte.b	_00
  10010  7aa4		       00		      .byte.b	_00
  10011  7aa5		       00		      .byte.b	_00
  10012  7aa6		       00		      .byte.b	_00
  10013  7aa7		       00		      .byte.b	_00
  10014  7aa8		       00		      .byte.b	_00
  10015  7aa9		       00		      .byte.b	_00
  10016  7aaa		       00		      .byte.b	_00
  10017  7aab		       00		      .byte.b	_00
  10018  7aac		       00		      .byte.b	_00
  10019  7aad		       00		      .byte.b	_00
  10020  7aae		       00		      .byte.b	_00
  10021  7aaf		       00		      .byte.b	_00
  10022  7ab0		       00		      .byte.b	_00
  10023  7ab1		       00		      .byte.b	_00
  10024  7ab2		       00		      .byte.b	_00
  10025  7ab3		       00		      .byte.b	_00
  10026  7ab4		       00		      .byte.b	_00
  10027  7ab5		       00		      .byte.b	_00
  10028  7ab6		       00		      .byte.b	_00
  10029  7ab7		       00		      .byte.b	_00
  10030  7ab8		       00		      .byte.b	_00
  10031  7ab9		       00		      .byte.b	_00
  10032  7aba		       00		      .byte.b	_00
  10033  7abb		       00		      .byte.b	_00
  10034  7abc		       00		      .byte.b	_00
  10035  7abd		       00		      .byte.b	_00
  10036  7abe		       00		      .byte.b	_00
  10037  7abf		       00		      .byte.b	_00
  10038  7ac0		       00		      .byte.b	_00
  10039  7ac1		       00		      .byte.b	_00
  10040  7ac2		       00		      .byte.b	_00
  10041  7ac3		       00		      .byte.b	_00
  10042  7ac4		       00		      .byte.b	_00
  10043  7ac5		       00		      .byte.b	_00
  10044  7ac6		       00		      .byte.b	_00
  10045  7ac7		       00		      .byte.b	_00
  10046  7ac8		       00		      .byte.b	_00
  10047  7ac9		       00		      .byte.b	_00
  10048  7aca		       00		      .byte.b	_00
  10049  7acb		       00		      .byte.b	_00
  10050  7acc		       00		      .byte.b	_00
  10051  7acd		       00		      .byte.b	_00
  10052  7ace		       00		      .byte.b	_00
  10053  7acf		       00		      .byte.b	_00
  10054  7ad0		       00		      .byte.b	_00
  10055  7ad1		       00		      .byte.b	_00
  10056  7ad2		       00		      .byte.b	_00
  10057  7ad3		       00		      .byte.b	_00
  10058  7ad4		       00		      .byte.b	_00
  10059  7ad5		       00		      .byte.b	_00
  10060  7ad6		       00		      .byte.b	_00
  10061  7ad7		       00		      .byte.b	_00
  10062  7ad8		       00		      .byte.b	_00
  10063  7ad9		       00		      .byte.b	_00
  10064  7ada		       00		      .byte.b	_00
  10065  7adb		       00		      .byte.b	_00
  10066  7adc		       00		      .byte.b	_00
  10067  7add		       00		      .byte.b	_00
  10068  7ade		       00		      .byte.b	_00
  10069  7adf		       00		      .byte.b	_00
  10070  7ae0		       00		      .byte.b	_00
  10071  7ae1		       00		      .byte.b	_00
  10072  7ae2		       00		      .byte.b	_00
  10073  7ae3		       00		      .byte.b	_00
  10074  7ae4				   backgroundcolorL0553
  10075  7ae4		       0e		      .byte.b	_0E
  10076  7ae5		       42		      .byte.b	_42
  10077  7ae6		       42		      .byte.b	_42
  10078  7ae7		       42		      .byte.b	_42
  10079  7ae8		       42		      .byte.b	_42
  10080  7ae9		       42		      .byte.b	_42
  10081  7aea		       42		      .byte.b	_42
  10082  7aeb		       42		      .byte.b	_42
  10083  7aec		       42		      .byte.b	_42
  10084  7aed		       42		      .byte.b	_42
  10085  7aee		       42		      .byte.b	_42
  10086  7aef		       42		      .byte.b	_42
  10087  7af0		       42		      .byte.b	_42
  10088  7af1		       42		      .byte.b	_42
  10089  7af2		       42		      .byte.b	_42
  10090  7af3		       42		      .byte.b	_42
  10091  7af4		       42		      .byte.b	_42
  10092  7af5		       42		      .byte.b	_42
  10093  7af6		       42		      .byte.b	_42
  10094  7af7		       42		      .byte.b	_42
  10095  7af8		       42		      .byte.b	_42
  10096  7af9		       42		      .byte.b	_42
  10097  7afa		       42		      .byte.b	_42
  10098  7afb		       42		      .byte.b	_42
  10099  7afc		       42		      .byte.b	_42
  10100  7afd		       42		      .byte.b	_42
  10101  7afe		       42		      .byte.b	_42
  10102  7aff		       42		      .byte.b	_42
  10103  7b00		       42		      .byte.b	_42
  10104  7b01		       42		      .byte.b	_42
  10105  7b02		       42		      .byte.b	_42
  10106  7b03		       42		      .byte.b	_42
  10107  7b04		       42		      .byte.b	_42
  10108  7b05		       42		      .byte.b	_42
  10109  7b06		       42		      .byte.b	_42
  10110  7b07		       42		      .byte.b	_42
  10111  7b08		       42		      .byte.b	_42
  10112  7b09		       42		      .byte.b	_42
  10113  7b0a		       42		      .byte.b	_42
  10114  7b0b		       42		      .byte.b	_42
  10115  7b0c		       42		      .byte.b	_42
  10116  7b0d		       42		      .byte.b	_42
  10117  7b0e		       42		      .byte.b	_42
  10118  7b0f		       42		      .byte.b	_42
  10119  7b10		       42		      .byte.b	_42
  10120  7b11		       42		      .byte.b	_42
  10121  7b12		       42		      .byte.b	_42
  10122  7b13		       42		      .byte.b	_42
  10123  7b14		       42		      .byte.b	_42
  10124  7b15		       42		      .byte.b	_42
  10125  7b16		       42		      .byte.b	_42
  10126  7b17		       42		      .byte.b	_42
  10127  7b18		       42		      .byte.b	_42
  10128  7b19		       42		      .byte.b	_42
  10129  7b1a		       42		      .byte.b	_42
  10130  7b1b		       42		      .byte.b	_42
  10131  7b1c		       42		      .byte.b	_42
  10132  7b1d		       42		      .byte.b	_42
  10133  7b1e		       42		      .byte.b	_42
  10134  7b1f		       42		      .byte.b	_42
  10135  7b20		       42		      .byte.b	_42
  10136  7b21		       42		      .byte.b	_42
  10137  7b22		       42		      .byte.b	_42
  10138  7b23		       42		      .byte.b	_42
  10139  7b24		       42		      .byte.b	_42
  10140  7b25		       42		      .byte.b	_42
  10141  7b26		       42		      .byte.b	_42
  10142  7b27		       42		      .byte.b	_42
  10143  7b28		       42		      .byte.b	_42
  10144  7b29		       42		      .byte.b	_42
  10145  7b2a		       42		      .byte.b	_42
  10146  7b2b		       42		      .byte.b	_42
  10147  7b2c		       42		      .byte.b	_42
  10148  7b2d		       42		      .byte.b	_42
  10149  7b2e		       42		      .byte.b	_42
  10150  7b2f		       42		      .byte.b	_42
  10151  7b30		       42		      .byte.b	_42
  10152  7b31		       42		      .byte.b	_42
  10153  7b32		       42		      .byte.b	_42
  10154  7b33		       42		      .byte.b	_42
  10155  7b34		       42		      .byte.b	_42
  10156  7b35		       42		      .byte.b	_42
  10157  7b36		       42		      .byte.b	_42
  10158  7b37		       42		      .byte.b	_42
  10159  7b38		       42		      .byte.b	_42
  10160  7b39		       42		      .byte.b	_42
  10161  7b3a		       42		      .byte.b	_42
  10162  7b3b		       42		      .byte.b	_42
  10163  7b3c					      if	ECHOFIRST
      1176 bytes of ROM space left in graphics bank
  10164  7b3c					      echo	"    ",[(DPC_graphics_end - *)]d , "bytes of ROM space left in graphics bank")
  10165  7b3c					      endif
  10166  7b3c		       00 01	   ECHOFIRST  =	1
  10167  7b3c
  10168  7b3c
  10169  7b3c							; Provided under the CC0 license. See the included LICENSE.txt for details.
  10170  7b3c
  10171  7fd4					      ORG	$7FF4-bscode_length
  10172  7fd4					      RORG	$DFF4-bscode_length
  10173  7fd4				   DPC_graphics_end
  10174  7fd4
  10175  7fd4							; Provided under the CC0 license. See the included LICENSE.txt for details.
  10176  7fd4
  10177  7fd4							; every bank has this stuff at the same place
  10178  7fd4							; this code can switch to/from any bank at any entry point
  10179  7fd4							; and can preserve register values
  10180  7fd4							; note: lines not starting with a space are not placed in all banks
  10181  7fd4							;
  10182  7fd4							; line below tells the compiler how long this is - do not remove
  10183  7fd4							;size=32
  10184  7fd4
  10185  7fd4				   begin_bscode
  10186  7fd4		       a2 ff		      ldx	#$ff
  10187  7fd6					      ifconst	FASTFETCH	; using DPC+
  10188  7fd6		       8e 58 10 	      stx	FASTFETCH
  10189  7fd9					      endif
  10190  7fd9		       9a		      txs
  10191  7fda				  -	      if	bankswitch == 64
  10192  7fda				  -	      lda	#(((>(start-1)) & $0F) | $F0)
  10193  7fda					      else
  10194  7fda		       a9 18		      lda	#>(start-1)
  10195  7fdc					      endif
  10196  7fdc		       48		      pha
  10197  7fdd		       a9 e3		      lda	#<(start-1)
  10198  7fdf		       48		      pha
  10199  7fe0
  10200  7fe0				   BS_return
  10201  7fe0		       48		      pha
  10202  7fe1		       8a		      txa
  10203  7fe2		       48		      pha
  10204  7fe3		       ba		      tsx
  10205  7fe4
  10206  7fe4					      if	bankswitch != 64
  10207  7fe4		       b5 04		      lda	4,x	; get high byte of return address
  10208  7fe6
  10209  7fe6		       2a		      rol
  10210  7fe7		       2a		      rol
  10211  7fe8		       2a		      rol
  10212  7fe9		       2a		      rol
  10213  7fea		       29 07		      and	#bs_mask	;1 3 or 7 for F8/F6/F4
  10214  7fec		       aa		      tax
  10215  7fed		       e8		      inx
  10216  7fee				  -	      else
  10217  7fee				  -	      lda	4,x	; get high byte of return address
  10218  7fee				  -	      tay
  10219  7fee				  -	      ora	#$10	; change our bank nibble into a valid rom mirror
  10220  7fee				  -	      sta	4,x
  10221  7fee				  -	      tya
  10222  7fee				  -	      lsr
  10223  7fee				  -	      lsr
  10224  7fee				  -	      lsr
  10225  7fee				  -	      lsr
  10226  7fee				  -	      tax
  10227  7fee				  -	      inx
  10228  7fee					      endif
  10229  7fee
  10230  7fee				   BS_jsr
  10231  7fee		       bd f5 1f 	      lda	bankswitch_hotspot-1,x
  10232  7ff1		       68		      pla
  10233  7ff2		       aa		      tax
  10234  7ff3		       68		      pla
  10235  7ff4		       60		      rts
  10236  7ff5				  -	      if	((* & $1FFF) > ((bankswitch_hotspot & $1FFF) - 1))
  10237  7ff5				  -	      echo	"WARNING: size parameter in banksw.asm too small - the program probably will not work."
  10238  7ff5				  -	      echo	"Change to",[(*-begin_bscode+1)&$FF]d,"and try again."
  10239  7ff5					      endif
  10240  7ff5							; Provided under the CC0 license. See the included LICENSE.txt for details.
  10241  7ff5
  10242  8000					      org	$8000
  10243  8000					      rorg	$1000
  10244  8000							; Provided under the CC0 license. See the included LICENSE.txt for details.
  10245  8000
  10246  8000							; 1K Frequency Table.
  10247  8000							; Fred Quimby, Darrell Spice Jr, Chris Walton 2010
  10248  8000							;
  10249  8000							; The 1K Frequency Table can contain up to 256 frequency values
  10250  8000							;
  10251  8000							; Table entries are defined as 2^32*freq/20000
  10252  8000							;
  10253  8000							; If User ARM code is being used, then the last 512 bytes of the frequency
  10254  8000							; table will no longer be available, reducing the number of frequencies you can
  10255  8000							; use to 128.
  10256  8000
  10257  8000							; piano key frequencies (s = sharp)
  10258  8000
  10259  8000				   .freq_table_start
  10260  8000
  10261  8000		       00 00 00 00	      DC.L	0
  10262  8000		       00 01	   A0	      =	(* & $3ff)/4
  10263  8004		       ac 1c 5a 00	      DC.L	5905580
  10264  8008
  10265  8008		       00 02	   A0s	      =	(* & $3ff)/4
  10266  8008		       68 78 5f 00	      DC.L	6256744
  10267  800c
  10268  800c		       00 03	   B0	      =	(* & $3ff)/4
  10269  800c		       b5 25 65 00	      DC.L	6628789
  10270  8010
  10271  8010		       00 04	   C1	      =	(* & $3ff)/4
  10272  8010		       6e 29 6b 00	      DC.L	7022958
  10273  8014
  10274  8014		       00 05	   C1s	      =	(* & $3ff)/4
  10275  8014		       b5 88 71 00	      DC.L	7440565
  10276  8018
  10277  8018		       00 06	   D1	      =	(* & $3ff)/4
  10278  8018		       fc 48 78 00	      DC.L	7883004
  10279  801c
  10280  801c		       00 07	   D1s	      =	(* & $3ff)/4
  10281  801c		       07 70 7f 00	      DC.L	8351751
  10282  8020
  10283  8020		       00 08	   E1	      =	(* & $3ff)/4
  10284  8020		       f4 03 87 00	      DC.L	8848372
  10285  8024
  10286  8024		       00 09	   F1	      =	(* & $3ff)/4
  10287  8024		       3c 0b 8f 00	      DC.L	9374524
  10288  8028
  10289  8028		       00 0a	   F1s	      =	(* & $3ff)/4
  10290  8028		       ba 8c 97 00	      DC.L	9931962
  10291  802c
  10292  802c		       00 0b	   G1	      =	(* & $3ff)/4
  10293  802c		       b3 8f a0 00	      DC.L	10522547
  10294  8030
  10295  8030		       00 0c	   G1s	      =	(* & $3ff)/4
  10296  8030		       db 1b aa 00	      DC.L	11148251
  10297  8034
  10298  8034		       00 0d	   A1	      =	(* & $3ff)/4
  10299  8034		       58 39 b4 00	      DC.L	11811160
  10300  8038
  10301  8038		       00 0e	   A1s	      =	(* & $3ff)/4
  10302  8038		       d0 f0 be 00	      DC.L	12513488
  10303  803c
  10304  803c		       00 0f	   B1	      =	(* & $3ff)/4
  10305  803c		       6b 4b ca 00	      DC.L	13257579
  10306  8040
  10307  8040		       00 10	   C2	      =	(* & $3ff)/4
  10308  8040		       dc 52 d6 00	      DC.L	14045916
  10309  8044
  10310  8044		       00 11	   C2s	      =	(* & $3ff)/4
  10311  8044		       69 11 e3 00	      DC.L	14881129
  10312  8048
  10313  8048		       00 12	   D2	      =	(* & $3ff)/4
  10314  8048		       f7 91 f0 00	      DC.L	15766007
  10315  804c
  10316  804c		       00 13	   D2s	      =	(* & $3ff)/4
  10317  804c		       0f e0 fe 00	      DC.L	16703503
  10318  8050
  10319  8050		       00 14	   E2	      =	(* & $3ff)/4
  10320  8050		       e9 07 0e 01	      DC.L	17696745
  10321  8054
  10322  8054		       00 15	   F2	      =	(* & $3ff)/4
  10323  8054		       78 16 1e 01	      DC.L	18749048
  10324  8058
  10325  8058		       00 16	   F2s	      =	(* & $3ff)/4
  10326  8058		       74 19 2f 01	      DC.L	19863924
  10327  805c
  10328  805c		       00 17	   G2	      =	(* & $3ff)/4
  10329  805c		       67 1f 41 01	      DC.L	21045095
  10330  8060
  10331  8060		       00 18	   G2s	      =	(* & $3ff)/4
  10332  8060		       b5 37 54 01	      DC.L	22296501
  10333  8064
  10334  8064		       00 19	   A2	      =	(* & $3ff)/4
  10335  8064		       b0 72 68 01	      DC.L	23622320
  10336  8068
  10337  8068		       00 1a	   A2s	      =	(* & $3ff)/4
  10338  8068		       a0 e1 7d 01	      DC.L	25026976
  10339  806c
  10340  806c		       00 1b	   B2	      =	(* & $3ff)/4
  10341  806c		       d6 96 94 01	      DC.L	26515158
  10342  8070
  10343  8070		       00 1c	   C3	      =	(* & $3ff)/4
  10344  8070		       b7 a5 ac 01	      DC.L	28091831
  10345  8074
  10346  8074		       00 1d	   C3s	      =	(* & $3ff)/4
  10347  8074		       d2 22 c6 01	      DC.L	29762258
  10348  8078
  10349  8078		       00 1e	   D3	      =	(* & $3ff)/4
  10350  8078		       ee 23 e1 01	      DC.L	31532014
  10351  807c
  10352  807c		       00 1f	   D3s	      =	(* & $3ff)/4
  10353  807c		       1d c0 fd 01	      DC.L	33407005
  10354  8080
  10355  8080		       00 20	   E3	      =	(* & $3ff)/4
  10356  8080		       d1 0f 1c 02	      DC.L	35393489
  10357  8084
  10358  8084		       00 21	   F3	      =	(* & $3ff)/4
  10359  8084		       f0 2c 3c 02	      DC.L	37498096
  10360  8088
  10361  8088		       00 22	   F3s	      =	(* & $3ff)/4
  10362  8088		       e9 32 5e 02	      DC.L	39727849
  10363  808c
  10364  808c		       00 23	   G3	      =	(* & $3ff)/4
  10365  808c		       cd 3e 82 02	      DC.L	42090189
  10366  8090
  10367  8090		       00 24	   G3s	      =	(* & $3ff)/4
  10368  8090		       6a 6f a8 02	      DC.L	44593002
  10369  8094
  10370  8094		       00 25	   A3	      =	(* & $3ff)/4
  10371  8094		       60 e5 d0 02	      DC.L	47244640
  10372  8098
  10373  8098		       00 26	   A3s	      =	(* & $3ff)/4
  10374  8098		       41 c3 fb 02	      DC.L	50053953
  10375  809c
  10376  809c		       00 27	   B3	      =	(* & $3ff)/4
  10377  809c		       ac 2d 29 03	      DC.L	53030316
  10378  80a0
  10379  80a0		       00 28	   C4	      =	(* & $3ff)/4
  10380  80a0		       6e 4b 59 03	      DC.L	56183662
  10381  80a4
  10382  80a4		       00 29	   C4s	      =	(* & $3ff)/4
  10383  80a4		       a5 45 8c 03	      DC.L	59524517
  10384  80a8
  10385  80a8		       00 2a	   D4	      =	(* & $3ff)/4
  10386  80a8		       dd 47 c2 03	      DC.L	63064029
  10387  80ac
  10388  80ac		       00 2b	   D4s	      =	(* & $3ff)/4
  10389  80ac		       3b 80 fb 03	      DC.L	66814011
  10390  80b0
  10391  80b0		       00 2c	   E4	      =	(* & $3ff)/4
  10392  80b0		       a3 1f 38 04	      DC.L	70786979
  10393  80b4
  10394  80b4		       00 2d	   F4	      =	(* & $3ff)/4
  10395  80b4		       e0 59 78 04	      DC.L	74996192
  10396  80b8
  10397  80b8		       00 2e	   F4s	      =	(* & $3ff)/4
  10398  80b8		       d1 65 bc 04	      DC.L	79455697
  10399  80bc
  10400  80bc		       00 2f	   G4	      =	(* & $3ff)/4
  10401  80bc		       9b 7d 04 05	      DC.L	84180379
  10402  80c0
  10403  80c0		       00 30	   G4s	      =	(* & $3ff)/4
  10404  80c0		       d5 de 50 05	      DC.L	89186005
  10405  80c4
  10406  80c4		       00 31	   A4	      =	(* & $3ff)/4
  10407  80c4		       c1 ca a1 05	      DC.L	94489281
  10408  80c8
  10409  80c8		       00 32	   A4s	      =	(* & $3ff)/4
  10410  80c8		       82 86 f7 05	      DC.L	100107906
  10411  80cc
  10412  80cc		       00 33	   B4	      =	(* & $3ff)/4
  10413  80cc		       57 5b 52 06	      DC.L	106060631
  10414  80d0
  10415  80d0		       00 34	   C5	      =	(* & $3ff)/4
  10416  80d0		       dd 96 b2 06	      DC.L	112367325
  10417  80d4
  10418  80d4		       00 35	   C5s	      =	(* & $3ff)/4
  10419  80d4		       4a 8b 18 07	      DC.L	119049034
  10420  80d8
  10421  80d8		       00 36	   D5	      =	(* & $3ff)/4
  10422  80d8		       b9 8f 84 07	      DC.L	126128057
  10423  80dc
  10424  80dc		       00 37	   D5s	      =	(* & $3ff)/4
  10425  80dc		       76 00 f7 07	      DC.L	133628022
  10426  80e0
  10427  80e0		       00 38	   E5	      =	(* & $3ff)/4
  10428  80e0		       46 3f 70 08	      DC.L	141573958
  10429  80e4
  10430  80e4		       00 39	   F5	      =	(* & $3ff)/4
  10431  80e4		       bf b3 f0 08	      DC.L	149992383
  10432  80e8
  10433  80e8		       00 3a	   F5s	      =	(* & $3ff)/4
  10434  80e8		       a3 cb 78 09	      DC.L	158911395
  10435  80ec
  10436  80ec		       00 3b	   G5	      =	(* & $3ff)/4
  10437  80ec		       36 fb 08 0a	      DC.L	168360758
  10438  80f0
  10439  80f0		       00 3c	   G5s	      =	(* & $3ff)/4
  10440  80f0		       a9 bd a1 0a	      DC.L	178372009
  10441  80f4
  10442  80f4		       00 3d	   A5	      =	(* & $3ff)/4
  10443  80f4		       81 95 43 0b	      DC.L	188978561
  10444  80f8
  10445  80f8		       00 3e	   A5s	      =	(* & $3ff)/4
  10446  80f8		       03 0d ef 0b	      DC.L	200215811
  10447  80fc
  10448  80fc		       00 3f	   B5	      =	(* & $3ff)/4
  10449  80fc		       af b6 a4 0c	      DC.L	212121263
  10450  8100
  10451  8100		       00 40	   C6	      =	(* & $3ff)/4
  10452  8100		       b9 2d 65 0d	      DC.L	224734649
  10453  8104
  10454  8104		       00 41	   C6s	      =	(* & $3ff)/4
  10455  8104		       93 16 31 0e	      DC.L	238098067
  10456  8108
  10457  8108		       00 42	   D6	      =	(* & $3ff)/4
  10458  8108		       73 1f 09 0f	      DC.L	252256115
  10459  810c
  10460  810c		       00 43	   D6s	      =	(* & $3ff)/4
  10461  810c		       ec 00 ee 0f	      DC.L	267256044
  10462  8110
  10463  8110		       00 44	   E6	      =	(* & $3ff)/4
  10464  8110		       8b 7e e0 10	      DC.L	283147915
  10465  8114
  10466  8114		       00 45	   F6	      =	(* & $3ff)/4
  10467  8114		       7f 67 e1 11	      DC.L	299984767
  10468  8118
  10469  8118		       00 46	   F6s	      =	(* & $3ff)/4
  10470  8118		       45 97 f1 12	      DC.L	317822789
  10471  811c
  10472  811c		       00 47	   G6	      =	(* & $3ff)/4
  10473  811c		       6c f6 11 14	      DC.L	336721516
  10474  8120
  10475  8120		       00 48	   G6s	      =	(* & $3ff)/4
  10476  8120		       53 7b 43 15	      DC.L	356744019
  10477  8124
  10478  8124		       00 49	   A6	      =	(* & $3ff)/4
  10479  8124		       02 2b 87 16	      DC.L	377957122
  10480  8128
  10481  8128		       00 4a	   A6s	      =	(* & $3ff)/4
  10482  8128		       06 1a de 17	      DC.L	400431622
  10483  812c
  10484  812c		       00 4b	   B6	      =	(* & $3ff)/4
  10485  812c		       5d 6d 49 19	      DC.L	424242525
  10486  8130
  10487  8130		       00 4c	   C7	      =	(* & $3ff)/4
  10488  8130		       73 5b ca 1a	      DC.L	449469299
  10489  8134
  10490  8134		       00 4d	   C7s	      =	(* & $3ff)/4
  10491  8134		       26 2d 62 1c	      DC.L	476196134
  10492  8138
  10493  8138		       00 4e	   D7	      =	(* & $3ff)/4
  10494  8138		       e6 3e 12 1e	      DC.L	504512230
  10495  813c
  10496  813c		       00 4f	   D7s	      =	(* & $3ff)/4
  10497  813c		       d8 01 dc 1f	      DC.L	534512088
  10498  8140
  10499  8140		       00 50	   E7	      =	(* & $3ff)/4
  10500  8140		       17 fd c0 21	      DC.L	566295831
  10501  8144
  10502  8144		       00 51	   F7	      =	(* & $3ff)/4
  10503  8144		       fd ce c2 23	      DC.L	599969533
  10504  8148
  10505  8148		       00 52	   F7s	      =	(* & $3ff)/4
  10506  8148		       8a 2e e3 25	      DC.L	635645578
  10507  814c
  10508  814c		       00 53	   G7	      =	(* & $3ff)/4
  10509  814c		       d7 ec 23 28	      DC.L	673443031
  10510  8150
  10511  8150		       00 54	   G7s	      =	(* & $3ff)/4
  10512  8150		       a6 f6 86 2a	      DC.L	713488038
  10513  8154
  10514  8154		       00 55	   A7	      =	(* & $3ff)/4
  10515  8154		       04 56 0e 2d	      DC.L	755914244
  10516  8158
  10517  8158		       00 56	   A7s	      =	(* & $3ff)/4
  10518  8158		       0c 34 bc 2f	      DC.L	800863244
  10519  815c
  10520  815c		       00 57	   B7	      =	(* & $3ff)/4
  10521  815c		       bb da 92 32	      DC.L	848485051
  10522  8160
  10523  8160		       00 58	   C8	      =	(* & $3ff)/4
  10524  8160		       e5 b6 94 35	      DC.L	898938597
  10525  8164
  10526  8164							;values for 89-255 may go here 
  10527  8164
  10528  8164					      if	(* <= $1400)
  10529  8164		       00 00 00 00*	      ds	($1400-*)	; pad out remaining space in frequency table
  10530  8400				  -	      else
  10531  8400				  -	      echo	"FATAL ERROR - Frequency table exceeds 1K"
  10532  8400				  -	      err
  10533  8400					      endif
